

Microchip MPLAB XC8 Assembler V2.32 build 20210201212658 
                                                                                               Mon Aug 02 21:15:06 2021

Microchip MPLAB XC8 C Compiler v2.32 (Free license) build 20210201212658 Og1 
     1                           	processor	16F887
     2                           	pagewidth 120
     3                           	opt	flic
     4                           	psect	strings,global,class=STRING,delta=2,noexec
     5                           	psect	cinit,global,class=CODE,merge=1,delta=2
     6                           	psect	bssBANK0,global,class=BANK0,space=1,delta=1,noexec
     7                           	psect	bssBANK1,global,class=BANK1,space=1,delta=1,noexec
     8                           	psect	clrtext,global,class=CODE,delta=2
     9                           	psect	cstackBANK1,global,class=BANK1,space=1,delta=1,noexec
    10                           	psect	cstackCOMMON,global,class=COMMON,space=1,delta=1,noexec
    11                           	psect	cstackBANK0,global,class=BANK0,space=1,delta=1,noexec
    12                           	psect	maintext,global,class=CODE,split=1,delta=2
    13                           	psect	text1,local,class=CODE,merge=1,delta=2
    14                           	psect	text2,local,class=CODE,merge=1,delta=2
    15                           	psect	text3,local,class=CODE,merge=1,delta=2
    16                           	psect	text4,local,class=CODE,merge=1,delta=2
    17                           	psect	text5,local,class=CODE,merge=1,delta=2,group=2
    18                           	psect	text6,local,class=CODE,merge=1,delta=2,group=2
    19                           	psect	text7,local,class=CODE,merge=1,delta=2,group=2
    20                           	psect	text8,local,class=CODE,merge=1,delta=2,group=2
    21                           	psect	text9,local,class=CODE,merge=1,delta=2,group=2
    22                           	psect	text10,local,class=CODE,merge=1,delta=2,group=2
    23                           	psect	text11,local,class=CODE,merge=1,delta=2,group=2
    24                           	psect	text12,local,class=CODE,merge=1,delta=2,group=2
    25                           	psect	text13,local,class=CODE,merge=1,delta=2,group=2
    26                           	psect	text14,local,class=CODE,merge=1,delta=2,group=2
    27                           	psect	text15,local,class=CODE,merge=1,delta=2
    28                           	psect	text16,local,class=CODE,merge=1,delta=2
    29                           	psect	text17,local,class=CODE,merge=1,delta=2
    30                           	psect	text18,local,class=CODE,merge=1,delta=2
    31                           	psect	text19,local,class=CODE,merge=1,delta=2,group=1
    32                           	psect	text20,local,class=CODE,merge=1,delta=2
    33                           	psect	config,global,abs,ovrld,class=CONFIG,space=4,delta=2,noexec
    34                           	dabs	1,0x7E,2
    35  0000                     
    36                           ; Version 2.20
    37                           ; Generated 12/02/2020 GMT
    38                           ; 
    39                           ; Copyright © 2020, Microchip Technology Inc. and its subsidiaries ("Microchip")
    40                           ; All rights reserved.
    41                           ; 
    42                           ; This software is developed by Microchip Technology Inc. and its subsidiaries ("Microch
      +                          ip").
    43                           ; 
    44                           ; Redistribution and use in source and binary forms, with or without modification, are
    45                           ; permitted provided that the following conditions are met:
    46                           ; 
    47                           ;     1. Redistributions of source code must retain the above copyright notice, this lis
      +                          t of
    48                           ;        conditions and the following disclaimer.
    49                           ; 
    50                           ;     2. Redistributions in binary form must reproduce the above copyright notice, this 
      +                          list
    51                           ;        of conditions and the following disclaimer in the documentation and/or other
    52                           ;        materials provided with the distribution.
    53                           ; 
    54                           ;     3. Microchip's name may not be used to endorse or promote products derived from th
      +                          is
    55                           ;        software without specific prior written permission.
    56                           ; 
    57                           ; THIS SOFTWARE IS PROVIDED BY MICROCHIP "AS IS" AND ANY EXPRESS OR IMPLIED WARRANTIES,
    58                           ; INCLUDING, BUT NOT LIMITED TO, THE IMPLIED WARRANTIES OF MERCHANTABILITY AND FITNESS F
      +                          OR
    59                           ; PURPOSE ARE DISCLAIMED.  IN NO EVENT SHALL MICROCHIP BE LIABLE FOR ANY DIRECT, INDIREC
      +                          T,
    60                           ; INCIDENTAL, SPECIAL, EXEMPLARY, OR CONSEQUENTIAL DAMAGES (INCLUDING BUT NOT LIMITED TO
    61                           ; PROCUREMENT OF SUBSTITUTE GOODS OR SERVICES; LOSS OF USE, DATA OR PROFITS; OR BUSINESS
    62                           ; INTERRUPTION) HOWSOEVER CAUSED AND ON ANY THEORY OF LIABILITY, WHETHER IN CONTRACT, ST
      +                          RICT
    63                           ; LIABILITY, OR TORT (INCLUDING NEGLIGENCE OR OTHERWISE) ARISING IN ANY WAY OUT OF THE U
      +                          SE OF
    64                           ; THIS SOFTWARE, EVEN IF ADVISED OF THE POSSIBILITY OF SUCH DAMAGE.
    65                           ; 
    66                           ; 
    67                           ; Code-generator required, PIC16F887 Definitions
    68                           ; 
    69                           ; SFR Addresses
    70  0000                     	;# 
    71  0001                     	;# 
    72  0002                     	;# 
    73  0003                     	;# 
    74  0004                     	;# 
    75  0005                     	;# 
    76  0006                     	;# 
    77  0007                     	;# 
    78  0008                     	;# 
    79  0009                     	;# 
    80  000A                     	;# 
    81  000B                     	;# 
    82  000C                     	;# 
    83  000D                     	;# 
    84  000E                     	;# 
    85  000E                     	;# 
    86  000F                     	;# 
    87  0010                     	;# 
    88  0011                     	;# 
    89  0012                     	;# 
    90  0013                     	;# 
    91  0014                     	;# 
    92  0015                     	;# 
    93  0015                     	;# 
    94  0016                     	;# 
    95  0017                     	;# 
    96  0018                     	;# 
    97  0019                     	;# 
    98  001A                     	;# 
    99  001B                     	;# 
   100  001B                     	;# 
   101  001C                     	;# 
   102  001D                     	;# 
   103  001E                     	;# 
   104  001F                     	;# 
   105  0081                     	;# 
   106  0085                     	;# 
   107  0086                     	;# 
   108  0087                     	;# 
   109  0088                     	;# 
   110  0089                     	;# 
   111  008C                     	;# 
   112  008D                     	;# 
   113  008E                     	;# 
   114  008F                     	;# 
   115  0090                     	;# 
   116  0091                     	;# 
   117  0092                     	;# 
   118  0093                     	;# 
   119  0093                     	;# 
   120  0093                     	;# 
   121  0094                     	;# 
   122  0095                     	;# 
   123  0096                     	;# 
   124  0097                     	;# 
   125  0098                     	;# 
   126  0099                     	;# 
   127  009A                     	;# 
   128  009B                     	;# 
   129  009C                     	;# 
   130  009D                     	;# 
   131  009E                     	;# 
   132  009F                     	;# 
   133  0105                     	;# 
   134  0107                     	;# 
   135  0108                     	;# 
   136  0109                     	;# 
   137  010C                     	;# 
   138  010C                     	;# 
   139  010D                     	;# 
   140  010E                     	;# 
   141  010F                     	;# 
   142  0185                     	;# 
   143  0187                     	;# 
   144  0188                     	;# 
   145  0189                     	;# 
   146  018C                     	;# 
   147  018D                     	;# 
   148  0000                     	;# 
   149  0001                     	;# 
   150  0002                     	;# 
   151  0003                     	;# 
   152  0004                     	;# 
   153  0005                     	;# 
   154  0006                     	;# 
   155  0007                     	;# 
   156  0008                     	;# 
   157  0009                     	;# 
   158  000A                     	;# 
   159  000B                     	;# 
   160  000C                     	;# 
   161  000D                     	;# 
   162  000E                     	;# 
   163  000E                     	;# 
   164  000F                     	;# 
   165  0010                     	;# 
   166  0011                     	;# 
   167  0012                     	;# 
   168  0013                     	;# 
   169  0014                     	;# 
   170  0015                     	;# 
   171  0015                     	;# 
   172  0016                     	;# 
   173  0017                     	;# 
   174  0018                     	;# 
   175  0019                     	;# 
   176  001A                     	;# 
   177  001B                     	;# 
   178  001B                     	;# 
   179  001C                     	;# 
   180  001D                     	;# 
   181  001E                     	;# 
   182  001F                     	;# 
   183  0081                     	;# 
   184  0085                     	;# 
   185  0086                     	;# 
   186  0087                     	;# 
   187  0088                     	;# 
   188  0089                     	;# 
   189  008C                     	;# 
   190  008D                     	;# 
   191  008E                     	;# 
   192  008F                     	;# 
   193  0090                     	;# 
   194  0091                     	;# 
   195  0092                     	;# 
   196  0093                     	;# 
   197  0093                     	;# 
   198  0093                     	;# 
   199  0094                     	;# 
   200  0095                     	;# 
   201  0096                     	;# 
   202  0097                     	;# 
   203  0098                     	;# 
   204  0099                     	;# 
   205  009A                     	;# 
   206  009B                     	;# 
   207  009C                     	;# 
   208  009D                     	;# 
   209  009E                     	;# 
   210  009F                     	;# 
   211  0105                     	;# 
   212  0107                     	;# 
   213  0108                     	;# 
   214  0109                     	;# 
   215  010C                     	;# 
   216  010C                     	;# 
   217  010D                     	;# 
   218  010E                     	;# 
   219  010F                     	;# 
   220  0185                     	;# 
   221  0187                     	;# 
   222  0188                     	;# 
   223  0189                     	;# 
   224  018C                     	;# 
   225  018D                     	;# 
   226  0000                     	;# 
   227  0001                     	;# 
   228  0002                     	;# 
   229  0003                     	;# 
   230  0004                     	;# 
   231  0005                     	;# 
   232  0006                     	;# 
   233  0007                     	;# 
   234  0008                     	;# 
   235  0009                     	;# 
   236  000A                     	;# 
   237  000B                     	;# 
   238  000C                     	;# 
   239  000D                     	;# 
   240  000E                     	;# 
   241  000E                     	;# 
   242  000F                     	;# 
   243  0010                     	;# 
   244  0011                     	;# 
   245  0012                     	;# 
   246  0013                     	;# 
   247  0014                     	;# 
   248  0015                     	;# 
   249  0015                     	;# 
   250  0016                     	;# 
   251  0017                     	;# 
   252  0018                     	;# 
   253  0019                     	;# 
   254  001A                     	;# 
   255  001B                     	;# 
   256  001B                     	;# 
   257  001C                     	;# 
   258  001D                     	;# 
   259  001E                     	;# 
   260  001F                     	;# 
   261  0081                     	;# 
   262  0085                     	;# 
   263  0086                     	;# 
   264  0087                     	;# 
   265  0088                     	;# 
   266  0089                     	;# 
   267  008C                     	;# 
   268  008D                     	;# 
   269  008E                     	;# 
   270  008F                     	;# 
   271  0090                     	;# 
   272  0091                     	;# 
   273  0092                     	;# 
   274  0093                     	;# 
   275  0093                     	;# 
   276  0093                     	;# 
   277  0094                     	;# 
   278  0095                     	;# 
   279  0096                     	;# 
   280  0097                     	;# 
   281  0098                     	;# 
   282  0099                     	;# 
   283  009A                     	;# 
   284  009B                     	;# 
   285  009C                     	;# 
   286  009D                     	;# 
   287  009E                     	;# 
   288  009F                     	;# 
   289  0105                     	;# 
   290  0107                     	;# 
   291  0108                     	;# 
   292  0109                     	;# 
   293  010C                     	;# 
   294  010C                     	;# 
   295  010D                     	;# 
   296  010E                     	;# 
   297  010F                     	;# 
   298  0185                     	;# 
   299  0187                     	;# 
   300  0188                     	;# 
   301  0189                     	;# 
   302  018C                     	;# 
   303  018D                     	;# 
   304  0000                     	;# 
   305  0001                     	;# 
   306  0002                     	;# 
   307  0003                     	;# 
   308  0004                     	;# 
   309  0005                     	;# 
   310  0006                     	;# 
   311  0007                     	;# 
   312  0008                     	;# 
   313  0009                     	;# 
   314  000A                     	;# 
   315  000B                     	;# 
   316  000C                     	;# 
   317  000D                     	;# 
   318  000E                     	;# 
   319  000E                     	;# 
   320  000F                     	;# 
   321  0010                     	;# 
   322  0011                     	;# 
   323  0012                     	;# 
   324  0013                     	;# 
   325  0014                     	;# 
   326  0015                     	;# 
   327  0015                     	;# 
   328  0016                     	;# 
   329  0017                     	;# 
   330  0018                     	;# 
   331  0019                     	;# 
   332  001A                     	;# 
   333  001B                     	;# 
   334  001B                     	;# 
   335  001C                     	;# 
   336  001D                     	;# 
   337  001E                     	;# 
   338  001F                     	;# 
   339  0081                     	;# 
   340  0085                     	;# 
   341  0086                     	;# 
   342  0087                     	;# 
   343  0088                     	;# 
   344  0089                     	;# 
   345  008C                     	;# 
   346  008D                     	;# 
   347  008E                     	;# 
   348  008F                     	;# 
   349  0090                     	;# 
   350  0091                     	;# 
   351  0092                     	;# 
   352  0093                     	;# 
   353  0093                     	;# 
   354  0093                     	;# 
   355  0094                     	;# 
   356  0095                     	;# 
   357  0096                     	;# 
   358  0097                     	;# 
   359  0098                     	;# 
   360  0099                     	;# 
   361  009A                     	;# 
   362  009B                     	;# 
   363  009C                     	;# 
   364  009D                     	;# 
   365  009E                     	;# 
   366  009F                     	;# 
   367  0105                     	;# 
   368  0107                     	;# 
   369  0108                     	;# 
   370  0109                     	;# 
   371  010C                     	;# 
   372  010C                     	;# 
   373  010D                     	;# 
   374  010E                     	;# 
   375  010F                     	;# 
   376  0185                     	;# 
   377  0187                     	;# 
   378  0188                     	;# 
   379  0189                     	;# 
   380  018C                     	;# 
   381  018D                     	;# 
   382  0000                     	;# 
   383  0001                     	;# 
   384  0002                     	;# 
   385  0003                     	;# 
   386  0004                     	;# 
   387  0005                     	;# 
   388  0006                     	;# 
   389  0007                     	;# 
   390  0008                     	;# 
   391  0009                     	;# 
   392  000A                     	;# 
   393  000B                     	;# 
   394  000C                     	;# 
   395  000D                     	;# 
   396  000E                     	;# 
   397  000E                     	;# 
   398  000F                     	;# 
   399  0010                     	;# 
   400  0011                     	;# 
   401  0012                     	;# 
   402  0013                     	;# 
   403  0014                     	;# 
   404  0015                     	;# 
   405  0015                     	;# 
   406  0016                     	;# 
   407  0017                     	;# 
   408  0018                     	;# 
   409  0019                     	;# 
   410  001A                     	;# 
   411  001B                     	;# 
   412  001B                     	;# 
   413  001C                     	;# 
   414  001D                     	;# 
   415  001E                     	;# 
   416  001F                     	;# 
   417  0081                     	;# 
   418  0085                     	;# 
   419  0086                     	;# 
   420  0087                     	;# 
   421  0088                     	;# 
   422  0089                     	;# 
   423  008C                     	;# 
   424  008D                     	;# 
   425  008E                     	;# 
   426  008F                     	;# 
   427  0090                     	;# 
   428  0091                     	;# 
   429  0092                     	;# 
   430  0093                     	;# 
   431  0093                     	;# 
   432  0093                     	;# 
   433  0094                     	;# 
   434  0095                     	;# 
   435  0096                     	;# 
   436  0097                     	;# 
   437  0098                     	;# 
   438  0099                     	;# 
   439  009A                     	;# 
   440  009B                     	;# 
   441  009C                     	;# 
   442  009D                     	;# 
   443  009E                     	;# 
   444  009F                     	;# 
   445  0105                     	;# 
   446  0107                     	;# 
   447  0108                     	;# 
   448  0109                     	;# 
   449  010C                     	;# 
   450  010C                     	;# 
   451  010D                     	;# 
   452  010E                     	;# 
   453  010F                     	;# 
   454  0185                     	;# 
   455  0187                     	;# 
   456  0188                     	;# 
   457  0189                     	;# 
   458  018C                     	;# 
   459  018D                     	;# 
   460  0013                     _SSPBUF	set	19
   461  0014                     _SSPCON	set	20
   462  001F                     _ADCON0bits	set	31
   463  001A                     _RCREG	set	26
   464  000C                     _PIR1bits	set	12
   465  0019                     _TXREG	set	25
   466  0018                     _RCSTAbits	set	24
   467  0008                     _PORTD	set	8
   468  0006                     _PORTB	set	6
   469  0007                     _PORTCbits	set	7
   470  0064                     _TXIF	set	100
   471  0094                     _SSPSTATbits	set	148
   472  0094                     _SSPSTAT	set	148
   473  008F                     _OSCCONbits	set	143
   474  009F                     _ADCON1bits	set	159
   475  008C                     _PIE1bits	set	140
   476  0087                     _TRISCbits	set	135
   477  009A                     _SPBRGH	set	154
   478  0099                     _SPBRG	set	153
   479  0098                     _TXSTAbits	set	152
   480  0088                     _TRISD	set	136
   481  0086                     _TRISB	set	134
   482  043B                     _TRISC3	set	1083
   483  043D                     _TRISC5	set	1085
   484  0189                     _ANSELHbits	set	393
   485  0188                     _ANSELbits	set	392
   486  0187                     _BAUDCTLbits	set	391
   487  0189                     _ANSELH	set	393
   488  0188                     _ANSEL	set	392
   489                           
   490                           	psect	strings
   491  1000                     __pstrings:
   492  1000                     stringtab:
   493  1000                     __stringtab:
   494                           
   495                           ;	String table - string pointers are 1 byte each
   496  1000  1BFF               	btfsc	btemp+1,7
   497  1001  280A               	ljmp	stringcode
   498  1002  1383               	bcf	3,7
   499  1003  187F               	btfsc	btemp+1,0
   500  1004  1783               	bsf	3,7
   501  1005  0800               	movf	0,w
   502  1006  0A84               	incf	4,f
   503  1007  1903               	skipnz
   504  1008  0AFF               	incf	btemp+1,f
   505  1009  0008               	return
   506  100A                     stringcode:
   507  100A                     stringdir:
   508  100A  3010               	movlw	high stringdir
   509  100B  008A               	movwf	10
   510  100C  0804               	movf	4,w
   511  100D  0A84               	incf	4,f
   512  100E  0782               	addwf	2,f
   513  100F                     __stringbase:
   514  100F  3400               	retlw	0
   515  1010                     __end_of__stringtab:
   516  1010                     STR_2:
   517  1010  340D               	retlw	13
   518  1011  342D               	retlw	45	;'-'
   519  1012  342D               	retlw	45	;'-'
   520  1013  342D               	retlw	45	;'-'
   521  1014  342D               	retlw	45	;'-'
   522  1015  342D               	retlw	45	;'-'
   523  1016  342D               	retlw	45	;'-'
   524  1017  342D               	retlw	45	;'-'
   525  1018  342D               	retlw	45	;'-'
   526  1019  342D               	retlw	45	;'-'
   527  101A  342D               	retlw	45	;'-'
   528  101B  342D               	retlw	45	;'-'
   529  101C  342D               	retlw	45	;'-'
   530  101D  342D               	retlw	45	;'-'
   531  101E  342D               	retlw	45	;'-'
   532  101F  342D               	retlw	45	;'-'
   533  1020  340D               	retlw	13
   534  1021  3400               	retlw	0
   535  1022                     STR_1:
   536  1022  340D               	retlw	13
   537  1023  3453               	retlw	83	;'S'
   538  1024  3465               	retlw	101	;'e'
   539  1025  346E               	retlw	110	;'n'
   540  1026  3473               	retlw	115	;'s'
   541  1027  346F               	retlw	111	;'o'
   542  1028  3472               	retlw	114	;'r'
   543  1029  3420               	retlw	32	;' '
   544  102A  3431               	retlw	49	;'1'
   545  102B  343A               	retlw	58	;':'
   546  102C  3420               	retlw	32	;' '
   547  102D  340D               	retlw	13
   548  102E  3400               	retlw	0
   549  102F                     STR_3:
   550  102F  340D               	retlw	13
   551  1030  3453               	retlw	83	;'S'
   552  1031  3465               	retlw	101	;'e'
   553  1032  346E               	retlw	110	;'n'
   554  1033  3473               	retlw	115	;'s'
   555  1034  346F               	retlw	111	;'o'
   556  1035  3472               	retlw	114	;'r'
   557  1036  3420               	retlw	32	;' '
   558  1037  3432               	retlw	50	;'2'
   559  1038  343A               	retlw	58	;':'
   560  1039  3420               	retlw	32	;' '
   561  103A  340D               	retlw	13
   562  103B  3400               	retlw	0
   563  1010                     
   564                           	psect	cinit
   565  07EF                     start_initialization:	
   566                           ; #config settings
   567                           
   568  07EF                     __initialization:
   569                           
   570                           ; Clear objects allocated to BANK0
   571  07EF  1283               	bcf	3,5	;RP0=0, select bank0
   572  07F0  1303               	bcf	3,6	;RP1=0, select bank0
   573  07F1  01EE               	clrf	__pbssBANK0& (0+127)
   574  07F2  01EF               	clrf	(__pbssBANK0+1)& (0+127)
   575                           
   576                           ; Clear objects allocated to BANK1
   577  07F3  1383               	bcf	3,7	;select IRP bank0
   578  07F4  30A0               	movlw	low __pbssBANK1
   579  07F5  0084               	movwf	4
   580  07F6  30BC               	movlw	low (__pbssBANK1+28)
   581  07F7  120A  118A  2003  120A  118A  	fcall	clear_ram0
   582  07FC                     end_of_initialization:	
   583                           ;End of C runtime variable initialization code
   584                           
   585  07FC                     __end_of__initialization:
   586  07FC  0183               	clrf	3
   587  07FD  120A  158A  29FD   	ljmp	_main	;jump to C main() function
   588                           
   589                           	psect	bssBANK0
   590  006E                     __pbssBANK0:
   591  006E                     _var_adc1:
   592  006E                     	ds	1
   593  006F                     _var_adc0:
   594  006F                     	ds	1
   595                           
   596                           	psect	bssBANK1
   597  00A0                     __pbssBANK1:
   598  00A0                     _conv1:
   599  00A0                     	ds	4
   600  00A4                     _conv0:
   601  00A4                     	ds	4
   602  00A8                     _adc1:
   603  00A8                     	ds	10
   604  00B2                     _adc0:
   605  00B2                     	ds	10
   606                           
   607                           	psect	clrtext
   608  0003                     clear_ram0:	
   609                           ;	Called with FSR containing the base address, and
   610                           ;	W with the last address+1
   611                           
   612  0003  0064               	clrwdt	;clear the watchdog before getting into this loop
   613  0004                     clrloop0:
   614  0004  0180               	clrf	0	;clear RAM location pointed to by FSR
   615  0005  0A84               	incf	4,f	;increment pointer
   616  0006  0604               	xorwf	4,w	;XOR with final address
   617  0007  1903               	btfsc	3,2	;have we reached the end yet?
   618  0008  3400               	retlw	0	;all done for this memory range, return
   619  0009  0604               	xorwf	4,w	;XOR again to restore value
   620  000A  2804               	goto	clrloop0	;do the next byte
   621                           
   622                           	psect	cstackBANK1
   623  00BC                     __pcstackBANK1:
   624  00BC                     convert@temp:
   625                           
   626                           ; 2 bytes @ 0x0
   627  00BC                     	ds	2
   628  00BE                     convert@j:
   629                           
   630                           ; 2 bytes @ 0x2
   631  00BE                     	ds	2
   632  00C0                     convert@data:
   633                           
   634                           ; 1 bytes @ 0x4
   635  00C0                     	ds	1
   636  00C1                     convert@x:
   637                           
   638                           ; 4 bytes @ 0x5
   639  00C1                     	ds	4
   640  00C5                     convert@i:
   641                           
   642                           ; 2 bytes @ 0x9
   643  00C5                     	ds	2
   644  00C7                     convert@digits:
   645                           
   646                           ; 2 bytes @ 0xB
   647  00C7                     	ds	2
   648  00C9                     convert@mu:
   649                           
   650                           ; 2 bytes @ 0xD
   651  00C9                     	ds	2
   652  00CB                     ??_main:
   653                           
   654                           ; 1 bytes @ 0xF
   655  00CB                     	ds	4
   656                           
   657                           	psect	cstackCOMMON
   658  0070                     __pcstackCOMMON:
   659  0070                     ?___flge:
   660  0070                     ?_config:	
   661                           ; 1 bit 
   662                           
   663  0070                     ?_Eusart:	
   664                           ; 1 bytes @ 0x0
   665                           
   666  0070                     ?_spiWrite:	
   667                           ; 1 bytes @ 0x0
   668                           
   669  0070                     ??_spiWrite:	
   670                           ; 1 bytes @ 0x0
   671                           
   672  0070                     ?_spiRead:	
   673                           ; 1 bytes @ 0x0
   674                           
   675  0070                     ??_spiRead:	
   676                           ; 1 bytes @ 0x0
   677                           
   678  0070                     ?_spiInit:	
   679                           ; 1 bytes @ 0x0
   680                           
   681  0070                     ?_config_osc:	
   682                           ; 1 bytes @ 0x0
   683                           
   684  0070                     ??_config_osc:	
   685                           ; 1 bytes @ 0x0
   686                           
   687  0070                     ?_main:	
   688                           ; 1 bytes @ 0x0
   689                           
   690  0070                     ?_putch:	
   691                           ; 1 bytes @ 0x0
   692                           
   693  0070                     ??_putch:	
   694                           ; 1 bytes @ 0x0
   695                           
   696  0070                     ?_spiReceiveWait:	
   697                           ; 1 bytes @ 0x0
   698                           
   699  0070                     ??_spiReceiveWait:	
   700                           ; 1 bytes @ 0x0
   701                           
   702  0070                     ?__Umul8_16:	
   703                           ; 1 bytes @ 0x0
   704                           
   705  0070                     ?___awdiv:	
   706                           ; 2 bytes @ 0x0
   707                           
   708  0070                     ?___fltol:	
   709                           ; 2 bytes @ 0x0
   710                           
   711  0070                     ?___fladd:	
   712                           ; 4 bytes @ 0x0
   713                           
   714  0070                     putch@data:	
   715                           ; 4 bytes @ 0x0
   716                           
   717  0070                     spiInit@sDataSample:	
   718                           ; 1 bytes @ 0x0
   719                           
   720  0070                     spiWrite@dat:	
   721                           ; 1 bytes @ 0x0
   722                           
   723  0070                     __Umul8_16@multiplicand:	
   724                           ; 1 bytes @ 0x0
   725                           
   726  0070                     ___awdiv@divisor:	
   727                           ; 1 bytes @ 0x0
   728                           
   729  0070                     ___flge@ff1:	
   730                           ; 2 bytes @ 0x0
   731                           
   732  0070                     ___fltol@f1:	
   733                           ; 4 bytes @ 0x0
   734                           
   735  0070                     ___fladd@b:	
   736                           ; 4 bytes @ 0x0
   737                           
   738                           
   739                           ; 4 bytes @ 0x0
   740  0070                     	ds	1
   741  0071                     ?_printf:
   742  0071                     spiInit@sClockIdle:	
   743                           ; 2 bytes @ 0x1
   744                           
   745  0071                     printf@f:	
   746                           ; 1 bytes @ 0x1
   747                           
   748                           
   749                           ; 2 bytes @ 0x1
   750  0071                     	ds	1
   751  0072                     ??__Umul8_16:
   752  0072                     config_osc@frec:	
   753                           ; 1 bytes @ 0x2
   754                           
   755  0072                     spiInit@sTransmitEdge:	
   756                           ; 1 bytes @ 0x2
   757                           
   758  0072                     ___awdiv@dividend:	
   759                           ; 1 bytes @ 0x2
   760                           
   761                           
   762                           ; 2 bytes @ 0x2
   763  0072                     	ds	1
   764  0073                     ??_spiInit:
   765  0073                     ??_printf:	
   766                           ; 1 bytes @ 0x3
   767                           
   768  0073                     spiInit@sType:	
   769                           ; 1 bytes @ 0x3
   770                           
   771                           
   772                           ; 1 bytes @ 0x3
   773  0073                     	ds	1
   774  0074                     ??_config:
   775  0074                     ??___awdiv:	
   776                           ; 1 bytes @ 0x4
   777                           
   778  0074                     ??___fltol:	
   779                           ; 1 bytes @ 0x4
   780                           
   781  0074                     __Umul8_16@product:	
   782                           ; 1 bytes @ 0x4
   783                           
   784  0074                     ___flge@ff2:	
   785                           ; 2 bytes @ 0x4
   786                           
   787  0074                     ___fladd@a:	
   788                           ; 4 bytes @ 0x4
   789                           
   790                           
   791                           ; 4 bytes @ 0x4
   792  0074                     	ds	1
   793  0075                     ___awdiv@counter:
   794                           
   795                           ; 1 bytes @ 0x5
   796  0075                     	ds	1
   797  0076                     ___awdiv@sign:
   798  0076                     __Umul8_16@word_mpld:	
   799                           ; 1 bytes @ 0x6
   800                           
   801                           
   802                           ; 2 bytes @ 0x6
   803  0076                     	ds	1
   804  0077                     printf@ap:
   805  0077                     ___awdiv@quotient:	
   806                           ; 1 bytes @ 0x7
   807                           
   808                           
   809                           ; 2 bytes @ 0x7
   810  0077                     	ds	1
   811  0078                     ??___flge:
   812  0078                     printf@c:	
   813                           ; 1 bytes @ 0x8
   814                           
   815  0078                     ___fladd@signs:	
   816                           ; 1 bytes @ 0x8
   817                           
   818  0078                     __Umul8_16@multiplier:	
   819                           ; 1 bytes @ 0x8
   820                           
   821                           
   822                           ; 1 bytes @ 0x8
   823  0078                     	ds	1
   824  0079                     ??_Eusart:
   825  0079                     ___fltol@sign1:	
   826                           ; 1 bytes @ 0x9
   827                           
   828  0079                     ___fladd@aexp:	
   829                           ; 1 bytes @ 0x9
   830                           
   831                           
   832                           ; 1 bytes @ 0x9
   833  0079                     	ds	1
   834  007A                     ___fltol@exp1:
   835  007A                     ___fladd@bexp:	
   836                           ; 1 bytes @ 0xA
   837                           
   838                           
   839                           ; 1 bytes @ 0xA
   840  007A                     	ds	1
   841  007B                     ??___wmul:
   842  007B                     ___fladd@grs:	
   843                           ; 1 bytes @ 0xB
   844                           
   845  007B                     ___wmul@product:	
   846                           ; 1 bytes @ 0xB
   847                           
   848                           
   849                           ; 2 bytes @ 0xB
   850  007B                     	ds	2
   851  007D                     ??___flsub:
   852                           
   853                           	psect	cstackBANK0
   854  0020                     __pcstackBANK0:	
   855                           ; 1 bytes @ 0xD
   856                           
   857  0020                     ??___fladd:
   858  0020                     ?___wmul:	
   859                           ; 1 bytes @ 0x0
   860                           
   861  0020                     ___wmul@multiplier:	
   862                           ; 2 bytes @ 0x0
   863                           
   864                           
   865                           ; 2 bytes @ 0x0
   866  0020                     	ds	2
   867  0022                     ___wmul@multiplicand:
   868                           
   869                           ; 2 bytes @ 0x2
   870  0022                     	ds	2
   871  0024                     ?___xxtofl:
   872  0024                     ___xxtofl@val:	
   873                           ; 4 bytes @ 0x4
   874                           
   875                           
   876                           ; 4 bytes @ 0x4
   877  0024                     	ds	4
   878  0028                     ??___xxtofl:
   879                           
   880                           ; 1 bytes @ 0x8
   881  0028                     	ds	4
   882  002C                     ___xxtofl@sign:
   883                           
   884                           ; 1 bytes @ 0xC
   885  002C                     	ds	1
   886  002D                     ___xxtofl@exp:
   887                           
   888                           ; 1 bytes @ 0xD
   889  002D                     	ds	1
   890  002E                     ___xxtofl@arg:
   891                           
   892                           ; 4 bytes @ 0xE
   893  002E                     	ds	4
   894  0032                     ?___flsub:
   895  0032                     ?___fldiv:	
   896                           ; 4 bytes @ 0x12
   897                           
   898  0032                     ___flsub@a:	
   899                           ; 4 bytes @ 0x12
   900                           
   901  0032                     ___fldiv@a:	
   902                           ; 4 bytes @ 0x12
   903                           
   904                           
   905                           ; 4 bytes @ 0x12
   906  0032                     	ds	4
   907  0036                     ___flsub@b:
   908  0036                     ___fldiv@b:	
   909                           ; 4 bytes @ 0x16
   910                           
   911                           
   912                           ; 4 bytes @ 0x16
   913  0036                     	ds	4
   914  003A                     ??___fldiv:
   915                           
   916                           ; 1 bytes @ 0x1A
   917  003A                     	ds	5
   918  003F                     ___fldiv@rem:
   919                           
   920                           ; 4 bytes @ 0x1F
   921  003F                     	ds	4
   922  0043                     ___fldiv@sign:
   923                           
   924                           ; 1 bytes @ 0x23
   925  0043                     	ds	1
   926  0044                     ___fldiv@new_exp:
   927                           
   928                           ; 2 bytes @ 0x24
   929  0044                     	ds	2
   930  0046                     ___fldiv@grs:
   931                           
   932                           ; 4 bytes @ 0x26
   933  0046                     	ds	4
   934  004A                     ___fldiv@bexp:
   935                           
   936                           ; 1 bytes @ 0x2A
   937  004A                     	ds	1
   938  004B                     ___fldiv@aexp:
   939                           
   940                           ; 1 bytes @ 0x2B
   941  004B                     	ds	1
   942  004C                     ?___flmul:
   943  004C                     ___flmul@b:	
   944                           ; 4 bytes @ 0x2C
   945                           
   946                           
   947                           ; 4 bytes @ 0x2C
   948  004C                     	ds	4
   949  0050                     ___flmul@a:
   950                           
   951                           ; 4 bytes @ 0x30
   952  0050                     	ds	4
   953  0054                     ??___flmul:
   954                           
   955                           ; 1 bytes @ 0x34
   956  0054                     	ds	5
   957  0059                     ___flmul@sign:
   958                           
   959                           ; 1 bytes @ 0x39
   960  0059                     	ds	1
   961  005A                     ___flmul@grs:
   962                           
   963                           ; 4 bytes @ 0x3A
   964  005A                     	ds	4
   965  005E                     ___flmul@aexp:
   966                           
   967                           ; 1 bytes @ 0x3E
   968  005E                     	ds	1
   969  005F                     ___flmul@bexp:
   970                           
   971                           ; 1 bytes @ 0x3F
   972  005F                     	ds	1
   973  0060                     ___flmul@prod:
   974                           
   975                           ; 4 bytes @ 0x40
   976  0060                     	ds	4
   977  0064                     ___flmul@temp:
   978                           
   979                           ; 2 bytes @ 0x44
   980  0064                     	ds	2
   981  0066                     ?_convert:
   982  0066                     convert@a:	
   983                           ; 1 bytes @ 0x46
   984                           
   985                           
   986                           ; 4 bytes @ 0x46
   987  0066                     	ds	4
   988  006A                     convert@place:
   989                           
   990                           ; 2 bytes @ 0x4A
   991  006A                     	ds	2
   992  006C                     ??_convert:
   993                           
   994                           ; 1 bytes @ 0x4C
   995  006C                     	ds	2
   996                           
   997                           	psect	maintext
   998  09FD                     __pmaintext:	
   999 ;;
  1000 ;;Main: autosize = 0, tempsize = 4, incstack = 0, save=0
  1001 ;;
  1002 ;; *************** function _main *****************
  1003 ;; Defined at:
  1004 ;;		line 57 in file "Maestro.c"
  1005 ;; Parameters:    Size  Location     Type
  1006 ;;		None
  1007 ;; Auto vars:     Size  Location     Type
  1008 ;;		None
  1009 ;; Return value:  Size  Location     Type
  1010 ;;                  1    wreg      void 
  1011 ;; Registers used:
  1012 ;;		wreg, fsr0l, fsr0h, status,2, status,0, btemp+1, pclath, cstack
  1013 ;; Tracked objects:
  1014 ;;		On entry : B00/0
  1015 ;;		On exit  : 0/0
  1016 ;;		Unchanged: 0/0
  1017 ;; Data sizes:     COMMON   BANK0   BANK1   BANK3   BANK2
  1018 ;;      Params:         0       0       0       0       0
  1019 ;;      Locals:         0       0       0       0       0
  1020 ;;      Temps:          0       0       4       0       0
  1021 ;;      Totals:         0       0       4       0       0
  1022 ;;Total ram usage:        4 bytes
  1023 ;; Hardware stack levels required when called: 3
  1024 ;; This function calls:
  1025 ;;		_Eusart
  1026 ;;		___fldiv
  1027 ;;		___flmul
  1028 ;;		___xxtofl
  1029 ;;		_config
  1030 ;;		_convert
  1031 ;;		_spiRead
  1032 ;;		_spiWrite
  1033 ;; This function is called by:
  1034 ;;		Startup code after reset
  1035 ;; This function uses a non-reentrant model
  1036 ;;
  1037                           
  1038                           
  1039                           ;psect for function _main
  1040  09FD                     _main:
  1041  09FD                     l2876:	
  1042                           ;incstack = 0
  1043                           ; Regs used in _main: [wreg-fsr0h+status,2+status,0+btemp+1+pclath+cstack]
  1044                           
  1045                           
  1046                           ;Maestro.c: 59:     config();
  1047  09FD  160A  118A  26C1  120A  158A  	fcall	_config
  1048  0A02                     l2878:
  1049                           
  1050                           ;Maestro.c: 61:         Eusart();
  1051  0A02  120A  118A  2015  120A  158A  	fcall	_Eusart
  1052  0A07                     l2880:
  1053                           
  1054                           ;Maestro.c: 62:         PORTCbits.RC2 = 0;
  1055  0A07  1283               	bcf	3,5	;RP0=0, select bank0
  1056  0A08  1303               	bcf	3,6	;RP1=0, select bank0
  1057  0A09  1107               	bcf	7,2	;volatile
  1058  0A0A                     l2882:
  1059                           
  1060                           ;Maestro.c: 63:        _delay((unsigned long)((1)*(8000000/4000.0)));
  1061  0A0A  3003               	movlw	3
  1062  0A0B  1683               	bsf	3,5	;RP0=1, select bank1
  1063  0A0C  1303               	bcf	3,6	;RP1=0, select bank1
  1064  0A0D  00CC               	movwf	(??_main^(0+128)+1)
  1065  0A0E  3097               	movlw	151
  1066  0A0F  00CB               	movwf	??_main^(0+128)
  1067  0A10                     u3617:
  1068  0A10  0BCB               	decfsz	??_main^(0+128),f
  1069  0A11  2A10               	goto	u3617
  1070  0A12  0BCC               	decfsz	(??_main^(0+128)+1),f
  1071  0A13  2A10               	goto	u3617
  1072  0A14                     l2884:
  1073                           
  1074                           ;Maestro.c: 65:        spiWrite(1);
  1075  0A14  3001               	movlw	1
  1076  0A15  160A  118A  2647  120A  158A  	fcall	_spiWrite
  1077  0A1A                     l2886:
  1078                           
  1079                           ;Maestro.c: 66:         var_adc0 = spiRead();
  1080  0A1A  160A  118A  2654  120A  158A  	fcall	_spiRead
  1081  0A1F  1683               	bsf	3,5	;RP0=1, select bank1
  1082  0A20  1303               	bcf	3,6	;RP1=0, select bank1
  1083  0A21  00CB               	movwf	??_main^(0+128)
  1084  0A22  084B               	movf	??_main^(0+128),w
  1085  0A23  1283               	bcf	3,5	;RP0=0, select bank0
  1086  0A24  1303               	bcf	3,6	;RP1=0, select bank0
  1087  0A25  00EF               	movwf	_var_adc0	;volatile
  1088  0A26                     l2888:
  1089                           
  1090                           ;Maestro.c: 69:        _delay((unsigned long)((1)*(8000000/4000.0)));
  1091  0A26  3003               	movlw	3
  1092  0A27  1683               	bsf	3,5	;RP0=1, select bank1
  1093  0A28  1303               	bcf	3,6	;RP1=0, select bank1
  1094  0A29  00CC               	movwf	(??_main^(0+128)+1)
  1095  0A2A  3097               	movlw	151
  1096  0A2B  00CB               	movwf	??_main^(0+128)
  1097  0A2C                     u3627:
  1098  0A2C  0BCB               	decfsz	??_main^(0+128),f
  1099  0A2D  2A2C               	goto	u3627
  1100  0A2E  0BCC               	decfsz	(??_main^(0+128)+1),f
  1101  0A2F  2A2C               	goto	u3627
  1102  0A30                     l2890:
  1103                           
  1104                           ;Maestro.c: 70:        PORTCbits.RC2 = 1;
  1105  0A30  1283               	bcf	3,5	;RP0=0, select bank0
  1106  0A31  1303               	bcf	3,6	;RP1=0, select bank0
  1107  0A32  1507               	bsf	7,2	;volatile
  1108  0A33                     l2892:
  1109                           
  1110                           ;Maestro.c: 72:        PORTCbits.RC2 = 0;
  1111  0A33  1107               	bcf	7,2	;volatile
  1112  0A34                     l2894:
  1113                           
  1114                           ;Maestro.c: 73:        _delay((unsigned long)((1)*(8000000/4000.0)));
  1115  0A34  3003               	movlw	3
  1116  0A35  1683               	bsf	3,5	;RP0=1, select bank1
  1117  0A36  1303               	bcf	3,6	;RP1=0, select bank1
  1118  0A37  00CC               	movwf	(??_main^(0+128)+1)
  1119  0A38  3097               	movlw	151
  1120  0A39  00CB               	movwf	??_main^(0+128)
  1121  0A3A                     u3637:
  1122  0A3A  0BCB               	decfsz	??_main^(0+128),f
  1123  0A3B  2A3A               	goto	u3637
  1124  0A3C  0BCC               	decfsz	(??_main^(0+128)+1),f
  1125  0A3D  2A3A               	goto	u3637
  1126  0A3E                     l2896:
  1127                           
  1128                           ;Maestro.c: 75:        spiWrite(2);
  1129  0A3E  3002               	movlw	2
  1130  0A3F  160A  118A  2647  120A  158A  	fcall	_spiWrite
  1131  0A44                     l2898:
  1132                           
  1133                           ;Maestro.c: 76:        var_adc1 = spiRead();
  1134  0A44  160A  118A  2654  120A  158A  	fcall	_spiRead
  1135  0A49  1683               	bsf	3,5	;RP0=1, select bank1
  1136  0A4A  1303               	bcf	3,6	;RP1=0, select bank1
  1137  0A4B  00CB               	movwf	??_main^(0+128)
  1138  0A4C  084B               	movf	??_main^(0+128),w
  1139  0A4D  1283               	bcf	3,5	;RP0=0, select bank0
  1140  0A4E  1303               	bcf	3,6	;RP1=0, select bank0
  1141  0A4F  00EE               	movwf	_var_adc1	;volatile
  1142  0A50                     l2900:
  1143                           
  1144                           ;Maestro.c: 78:        _delay((unsigned long)((1)*(8000000/4000.0)));
  1145  0A50  3003               	movlw	3
  1146  0A51  1683               	bsf	3,5	;RP0=1, select bank1
  1147  0A52  1303               	bcf	3,6	;RP1=0, select bank1
  1148  0A53  00CC               	movwf	(??_main^(0+128)+1)
  1149  0A54  3097               	movlw	151
  1150  0A55  00CB               	movwf	??_main^(0+128)
  1151  0A56                     u3647:
  1152  0A56  0BCB               	decfsz	??_main^(0+128),f
  1153  0A57  2A56               	goto	u3647
  1154  0A58  0BCC               	decfsz	(??_main^(0+128)+1),f
  1155  0A59  2A56               	goto	u3647
  1156  0A5A                     l2902:
  1157                           
  1158                           ;Maestro.c: 79:        PORTCbits.RC2 = 1;
  1159  0A5A  1283               	bcf	3,5	;RP0=0, select bank0
  1160  0A5B  1303               	bcf	3,6	;RP1=0, select bank0
  1161  0A5C  1507               	bsf	7,2	;volatile
  1162  0A5D                     l2904:
  1163                           
  1164                           ;Maestro.c: 82:        conv0 = 0;
  1165  0A5D  3000               	movlw	0
  1166  0A5E  1683               	bsf	3,5	;RP0=1, select bank1
  1167  0A5F  1303               	bcf	3,6	;RP1=0, select bank1
  1168  0A60  00A7               	movwf	(_conv0+3)^(0+128)
  1169  0A61  3000               	movlw	0
  1170  0A62  00A6               	movwf	(_conv0+2)^(0+128)
  1171  0A63  3000               	movlw	0
  1172  0A64  00A5               	movwf	(_conv0+1)^(0+128)
  1173  0A65  3000               	movlw	0
  1174  0A66  00A4               	movwf	_conv0^(0+128)
  1175  0A67                     l2906:
  1176                           
  1177                           ;Maestro.c: 83:        conv1 = 0;
  1178  0A67  3000               	movlw	0
  1179  0A68  00A3               	movwf	(_conv1+3)^(0+128)
  1180  0A69  3000               	movlw	0
  1181  0A6A  00A2               	movwf	(_conv1+2)^(0+128)
  1182  0A6B  3000               	movlw	0
  1183  0A6C  00A1               	movwf	(_conv1+1)^(0+128)
  1184  0A6D  3000               	movlw	0
  1185  0A6E  00A0               	movwf	_conv1^(0+128)
  1186  0A6F                     l2908:
  1187                           
  1188                           ;Maestro.c: 84:        conv0 = (var_adc0 / (float) 255)*5;
  1189  0A6F  3040               	movlw	64
  1190  0A70  1283               	bcf	3,5	;RP0=0, select bank0
  1191  0A71  1303               	bcf	3,6	;RP1=0, select bank0
  1192  0A72  00CF               	movwf	___flmul@b+3
  1193  0A73  30A0               	movlw	160
  1194  0A74  00CE               	movwf	___flmul@b+2
  1195  0A75  3000               	movlw	0
  1196  0A76  00CD               	movwf	___flmul@b+1
  1197  0A77  3000               	movlw	0
  1198  0A78  00CC               	movwf	___flmul@b
  1199  0A79  3043               	movlw	67
  1200  0A7A  00B5               	movwf	___fldiv@a+3
  1201  0A7B  307F               	movlw	127
  1202  0A7C  00B4               	movwf	___fldiv@a+2
  1203  0A7D  3000               	movlw	0
  1204  0A7E  00B3               	movwf	___fldiv@a+1
  1205  0A7F  3000               	movlw	0
  1206  0A80  00B2               	movwf	___fldiv@a
  1207  0A81  086F               	movf	_var_adc0,w	;volatile
  1208  0A82  1683               	bsf	3,5	;RP0=1, select bank1
  1209  0A83  1303               	bcf	3,6	;RP1=0, select bank1
  1210  0A84  00CB               	movwf	??_main^(0+128)
  1211  0A85  01CC               	clrf	(??_main^(0+128)+1)
  1212  0A86  01CD               	clrf	(??_main^(0+128)+2)
  1213  0A87  01CE               	clrf	(??_main^(0+128)+3)
  1214  0A88  084E               	movf	(??_main+3)^(0+128),w
  1215  0A89  1283               	bcf	3,5	;RP0=0, select bank0
  1216  0A8A  1303               	bcf	3,6	;RP1=0, select bank0
  1217  0A8B  00A7               	movwf	___xxtofl@val+3
  1218  0A8C  1683               	bsf	3,5	;RP0=1, select bank1
  1219  0A8D  1303               	bcf	3,6	;RP1=0, select bank1
  1220  0A8E  084D               	movf	(??_main+2)^(0+128),w
  1221  0A8F  1283               	bcf	3,5	;RP0=0, select bank0
  1222  0A90  1303               	bcf	3,6	;RP1=0, select bank0
  1223  0A91  00A6               	movwf	___xxtofl@val+2
  1224  0A92  1683               	bsf	3,5	;RP0=1, select bank1
  1225  0A93  1303               	bcf	3,6	;RP1=0, select bank1
  1226  0A94  084C               	movf	(??_main+1)^(0+128),w
  1227  0A95  1283               	bcf	3,5	;RP0=0, select bank0
  1228  0A96  1303               	bcf	3,6	;RP1=0, select bank0
  1229  0A97  00A5               	movwf	___xxtofl@val+1
  1230  0A98  1683               	bsf	3,5	;RP0=1, select bank1
  1231  0A99  1303               	bcf	3,6	;RP1=0, select bank1
  1232  0A9A  084B               	movf	??_main^(0+128),w
  1233  0A9B  1283               	bcf	3,5	;RP0=0, select bank0
  1234  0A9C  1303               	bcf	3,6	;RP1=0, select bank0
  1235  0A9D  00A4               	movwf	___xxtofl@val
  1236  0A9E  3001               	movlw	1
  1237  0A9F  120A  158A  2141  120A  158A  	fcall	___xxtofl
  1238  0AA4  1283               	bcf	3,5	;RP0=0, select bank0
  1239  0AA5  1303               	bcf	3,6	;RP1=0, select bank0
  1240  0AA6  0827               	movf	?___xxtofl+3,w
  1241  0AA7  00B9               	movwf	___fldiv@b+3
  1242  0AA8  0826               	movf	?___xxtofl+2,w
  1243  0AA9  00B8               	movwf	___fldiv@b+2
  1244  0AAA  0825               	movf	?___xxtofl+1,w
  1245  0AAB  00B7               	movwf	___fldiv@b+1
  1246  0AAC  0824               	movf	?___xxtofl,w
  1247  0AAD  00B6               	movwf	___fldiv@b
  1248  0AAE  120A  158A  238B  120A  158A  	fcall	___fldiv
  1249  0AB3  1283               	bcf	3,5	;RP0=0, select bank0
  1250  0AB4  1303               	bcf	3,6	;RP1=0, select bank0
  1251  0AB5  0835               	movf	?___fldiv+3,w
  1252  0AB6  00D3               	movwf	___flmul@a+3
  1253  0AB7  0834               	movf	?___fldiv+2,w
  1254  0AB8  00D2               	movwf	___flmul@a+2
  1255  0AB9  0833               	movf	?___fldiv+1,w
  1256  0ABA  00D1               	movwf	___flmul@a+1
  1257  0ABB  0832               	movf	?___fldiv,w
  1258  0ABC  00D0               	movwf	___flmul@a
  1259  0ABD  120A  118A  209A  120A  158A  	fcall	___flmul
  1260  0AC2  1283               	bcf	3,5	;RP0=0, select bank0
  1261  0AC3  1303               	bcf	3,6	;RP1=0, select bank0
  1262  0AC4  084F               	movf	?___flmul+3,w
  1263  0AC5  1683               	bsf	3,5	;RP0=1, select bank1
  1264  0AC6  1303               	bcf	3,6	;RP1=0, select bank1
  1265  0AC7  00A7               	movwf	(_conv0+3)^(0+128)
  1266  0AC8  1283               	bcf	3,5	;RP0=0, select bank0
  1267  0AC9  1303               	bcf	3,6	;RP1=0, select bank0
  1268  0ACA  084E               	movf	?___flmul+2,w
  1269  0ACB  1683               	bsf	3,5	;RP0=1, select bank1
  1270  0ACC  1303               	bcf	3,6	;RP1=0, select bank1
  1271  0ACD  00A6               	movwf	(_conv0+2)^(0+128)
  1272  0ACE  1283               	bcf	3,5	;RP0=0, select bank0
  1273  0ACF  1303               	bcf	3,6	;RP1=0, select bank0
  1274  0AD0  084D               	movf	?___flmul+1,w
  1275  0AD1  1683               	bsf	3,5	;RP0=1, select bank1
  1276  0AD2  1303               	bcf	3,6	;RP1=0, select bank1
  1277  0AD3  00A5               	movwf	(_conv0+1)^(0+128)
  1278  0AD4  1283               	bcf	3,5	;RP0=0, select bank0
  1279  0AD5  1303               	bcf	3,6	;RP1=0, select bank0
  1280  0AD6  084C               	movf	?___flmul,w
  1281  0AD7  1683               	bsf	3,5	;RP0=1, select bank1
  1282  0AD8  1303               	bcf	3,6	;RP1=0, select bank1
  1283  0AD9  00A4               	movwf	_conv0^(0+128)
  1284  0ADA                     l2910:
  1285                           
  1286                           ;Maestro.c: 85:        conv1 = (var_adc1 / (float) 255)*5;
  1287  0ADA  3040               	movlw	64
  1288  0ADB  1283               	bcf	3,5	;RP0=0, select bank0
  1289  0ADC  1303               	bcf	3,6	;RP1=0, select bank0
  1290  0ADD  00CF               	movwf	___flmul@b+3
  1291  0ADE  30A0               	movlw	160
  1292  0ADF  00CE               	movwf	___flmul@b+2
  1293  0AE0  3000               	movlw	0
  1294  0AE1  00CD               	movwf	___flmul@b+1
  1295  0AE2  3000               	movlw	0
  1296  0AE3  00CC               	movwf	___flmul@b
  1297  0AE4  3043               	movlw	67
  1298  0AE5  00B5               	movwf	___fldiv@a+3
  1299  0AE6  307F               	movlw	127
  1300  0AE7  00B4               	movwf	___fldiv@a+2
  1301  0AE8  3000               	movlw	0
  1302  0AE9  00B3               	movwf	___fldiv@a+1
  1303  0AEA  3000               	movlw	0
  1304  0AEB  00B2               	movwf	___fldiv@a
  1305  0AEC  086E               	movf	_var_adc1,w	;volatile
  1306  0AED  1683               	bsf	3,5	;RP0=1, select bank1
  1307  0AEE  1303               	bcf	3,6	;RP1=0, select bank1
  1308  0AEF  00CB               	movwf	??_main^(0+128)
  1309  0AF0  01CC               	clrf	(??_main^(0+128)+1)
  1310  0AF1  01CD               	clrf	(??_main^(0+128)+2)
  1311  0AF2  01CE               	clrf	(??_main^(0+128)+3)
  1312  0AF3  084E               	movf	(??_main+3)^(0+128),w
  1313  0AF4  1283               	bcf	3,5	;RP0=0, select bank0
  1314  0AF5  1303               	bcf	3,6	;RP1=0, select bank0
  1315  0AF6  00A7               	movwf	___xxtofl@val+3
  1316  0AF7  1683               	bsf	3,5	;RP0=1, select bank1
  1317  0AF8  1303               	bcf	3,6	;RP1=0, select bank1
  1318  0AF9  084D               	movf	(??_main+2)^(0+128),w
  1319  0AFA  1283               	bcf	3,5	;RP0=0, select bank0
  1320  0AFB  1303               	bcf	3,6	;RP1=0, select bank0
  1321  0AFC  00A6               	movwf	___xxtofl@val+2
  1322  0AFD  1683               	bsf	3,5	;RP0=1, select bank1
  1323  0AFE  1303               	bcf	3,6	;RP1=0, select bank1
  1324  0AFF  084C               	movf	(??_main+1)^(0+128),w
  1325  0B00  1283               	bcf	3,5	;RP0=0, select bank0
  1326  0B01  1303               	bcf	3,6	;RP1=0, select bank0
  1327  0B02  00A5               	movwf	___xxtofl@val+1
  1328  0B03  1683               	bsf	3,5	;RP0=1, select bank1
  1329  0B04  1303               	bcf	3,6	;RP1=0, select bank1
  1330  0B05  084B               	movf	??_main^(0+128),w
  1331  0B06  1283               	bcf	3,5	;RP0=0, select bank0
  1332  0B07  1303               	bcf	3,6	;RP1=0, select bank0
  1333  0B08  00A4               	movwf	___xxtofl@val
  1334  0B09  3001               	movlw	1
  1335  0B0A  120A  158A  2141  120A  158A  	fcall	___xxtofl
  1336  0B0F  1283               	bcf	3,5	;RP0=0, select bank0
  1337  0B10  1303               	bcf	3,6	;RP1=0, select bank0
  1338  0B11  0827               	movf	?___xxtofl+3,w
  1339  0B12  00B9               	movwf	___fldiv@b+3
  1340  0B13  0826               	movf	?___xxtofl+2,w
  1341  0B14  00B8               	movwf	___fldiv@b+2
  1342  0B15  0825               	movf	?___xxtofl+1,w
  1343  0B16  00B7               	movwf	___fldiv@b+1
  1344  0B17  0824               	movf	?___xxtofl,w
  1345  0B18  00B6               	movwf	___fldiv@b
  1346  0B19  120A  158A  238B  120A  158A  	fcall	___fldiv
  1347  0B1E  1283               	bcf	3,5	;RP0=0, select bank0
  1348  0B1F  1303               	bcf	3,6	;RP1=0, select bank0
  1349  0B20  0835               	movf	?___fldiv+3,w
  1350  0B21  00D3               	movwf	___flmul@a+3
  1351  0B22  0834               	movf	?___fldiv+2,w
  1352  0B23  00D2               	movwf	___flmul@a+2
  1353  0B24  0833               	movf	?___fldiv+1,w
  1354  0B25  00D1               	movwf	___flmul@a+1
  1355  0B26  0832               	movf	?___fldiv,w
  1356  0B27  00D0               	movwf	___flmul@a
  1357  0B28  120A  118A  209A  120A  158A  	fcall	___flmul
  1358  0B2D  1283               	bcf	3,5	;RP0=0, select bank0
  1359  0B2E  1303               	bcf	3,6	;RP1=0, select bank0
  1360  0B2F  084F               	movf	?___flmul+3,w
  1361  0B30  1683               	bsf	3,5	;RP0=1, select bank1
  1362  0B31  1303               	bcf	3,6	;RP1=0, select bank1
  1363  0B32  00A3               	movwf	(_conv1+3)^(0+128)
  1364  0B33  1283               	bcf	3,5	;RP0=0, select bank0
  1365  0B34  1303               	bcf	3,6	;RP1=0, select bank0
  1366  0B35  084E               	movf	?___flmul+2,w
  1367  0B36  1683               	bsf	3,5	;RP0=1, select bank1
  1368  0B37  1303               	bcf	3,6	;RP1=0, select bank1
  1369  0B38  00A2               	movwf	(_conv1+2)^(0+128)
  1370  0B39  1283               	bcf	3,5	;RP0=0, select bank0
  1371  0B3A  1303               	bcf	3,6	;RP1=0, select bank0
  1372  0B3B  084D               	movf	?___flmul+1,w
  1373  0B3C  1683               	bsf	3,5	;RP0=1, select bank1
  1374  0B3D  1303               	bcf	3,6	;RP1=0, select bank1
  1375  0B3E  00A1               	movwf	(_conv1+1)^(0+128)
  1376  0B3F  1283               	bcf	3,5	;RP0=0, select bank0
  1377  0B40  1303               	bcf	3,6	;RP1=0, select bank0
  1378  0B41  084C               	movf	?___flmul,w
  1379  0B42  1683               	bsf	3,5	;RP0=1, select bank1
  1380  0B43  1303               	bcf	3,6	;RP1=0, select bank1
  1381  0B44  00A0               	movwf	_conv1^(0+128)
  1382  0B45                     l2912:
  1383                           
  1384                           ;Maestro.c: 87:        convert(adc0, conv0, 2);
  1385  0B45  0827               	movf	(_conv0+3)^(0+128),w
  1386  0B46  1283               	bcf	3,5	;RP0=0, select bank0
  1387  0B47  1303               	bcf	3,6	;RP1=0, select bank0
  1388  0B48  00E9               	movwf	convert@a+3
  1389  0B49  1683               	bsf	3,5	;RP0=1, select bank1
  1390  0B4A  1303               	bcf	3,6	;RP1=0, select bank1
  1391  0B4B  0826               	movf	(_conv0+2)^(0+128),w
  1392  0B4C  1283               	bcf	3,5	;RP0=0, select bank0
  1393  0B4D  1303               	bcf	3,6	;RP1=0, select bank0
  1394  0B4E  00E8               	movwf	convert@a+2
  1395  0B4F  1683               	bsf	3,5	;RP0=1, select bank1
  1396  0B50  1303               	bcf	3,6	;RP1=0, select bank1
  1397  0B51  0825               	movf	(_conv0+1)^(0+128),w
  1398  0B52  1283               	bcf	3,5	;RP0=0, select bank0
  1399  0B53  1303               	bcf	3,6	;RP1=0, select bank0
  1400  0B54  00E7               	movwf	convert@a+1
  1401  0B55  1683               	bsf	3,5	;RP0=1, select bank1
  1402  0B56  1303               	bcf	3,6	;RP1=0, select bank1
  1403  0B57  0824               	movf	_conv0^(0+128),w
  1404  0B58  1283               	bcf	3,5	;RP0=0, select bank0
  1405  0B59  1303               	bcf	3,6	;RP1=0, select bank0
  1406  0B5A  00E6               	movwf	convert@a
  1407  0B5B  3002               	movlw	2
  1408  0B5C  00EA               	movwf	convert@place
  1409  0B5D  3000               	movlw	0
  1410  0B5E  00EB               	movwf	convert@place+1
  1411  0B5F  30B2               	movlw	(low (_adc0| 0))& (0+255)
  1412  0B60  120A  118A  23FB  120A  158A  	fcall	_convert
  1413  0B65                     l2914:
  1414                           
  1415                           ;Maestro.c: 88:        convert(adc1, conv1, 2);
  1416  0B65  1683               	bsf	3,5	;RP0=1, select bank1
  1417  0B66  1303               	bcf	3,6	;RP1=0, select bank1
  1418  0B67  0823               	movf	(_conv1+3)^(0+128),w
  1419  0B68  1283               	bcf	3,5	;RP0=0, select bank0
  1420  0B69  1303               	bcf	3,6	;RP1=0, select bank0
  1421  0B6A  00E9               	movwf	convert@a+3
  1422  0B6B  1683               	bsf	3,5	;RP0=1, select bank1
  1423  0B6C  1303               	bcf	3,6	;RP1=0, select bank1
  1424  0B6D  0822               	movf	(_conv1+2)^(0+128),w
  1425  0B6E  1283               	bcf	3,5	;RP0=0, select bank0
  1426  0B6F  1303               	bcf	3,6	;RP1=0, select bank0
  1427  0B70  00E8               	movwf	convert@a+2
  1428  0B71  1683               	bsf	3,5	;RP0=1, select bank1
  1429  0B72  1303               	bcf	3,6	;RP1=0, select bank1
  1430  0B73  0821               	movf	(_conv1+1)^(0+128),w
  1431  0B74  1283               	bcf	3,5	;RP0=0, select bank0
  1432  0B75  1303               	bcf	3,6	;RP1=0, select bank0
  1433  0B76  00E7               	movwf	convert@a+1
  1434  0B77  1683               	bsf	3,5	;RP0=1, select bank1
  1435  0B78  1303               	bcf	3,6	;RP1=0, select bank1
  1436  0B79  0820               	movf	_conv1^(0+128),w
  1437  0B7A  1283               	bcf	3,5	;RP0=0, select bank0
  1438  0B7B  1303               	bcf	3,6	;RP1=0, select bank0
  1439  0B7C  00E6               	movwf	convert@a
  1440  0B7D  3002               	movlw	2
  1441  0B7E  00EA               	movwf	convert@place
  1442  0B7F  3000               	movlw	0
  1443  0B80  00EB               	movwf	convert@place+1
  1444  0B81  30A8               	movlw	(low (_adc1| 0))& (0+255)
  1445  0B82  120A  118A  23FB  120A  158A  	fcall	_convert
  1446  0B87  2A02               	goto	l2878
  1447  0B88  120A  118A  2800   	ljmp	start
  1448  0B8B                     __end_of_main:
  1449                           
  1450                           	psect	text1
  1451  1647                     __ptext1:	
  1452 ;; *************** function _spiWrite *****************
  1453 ;; Defined at:
  1454 ;;		line 75 in file "LibreriasL3.c"
  1455 ;; Parameters:    Size  Location     Type
  1456 ;;  dat             1    wreg     unsigned char 
  1457 ;; Auto vars:     Size  Location     Type
  1458 ;;  dat             1    0[COMMON] unsigned char 
  1459 ;; Return value:  Size  Location     Type
  1460 ;;                  1    wreg      void 
  1461 ;; Registers used:
  1462 ;;		wreg
  1463 ;; Tracked objects:
  1464 ;;		On entry : 0/0
  1465 ;;		On exit  : 0/0
  1466 ;;		Unchanged: 0/0
  1467 ;; Data sizes:     COMMON   BANK0   BANK1   BANK3   BANK2
  1468 ;;      Params:         0       0       0       0       0
  1469 ;;      Locals:         1       0       0       0       0
  1470 ;;      Temps:          0       0       0       0       0
  1471 ;;      Totals:         1       0       0       0       0
  1472 ;;Total ram usage:        1 bytes
  1473 ;; Hardware stack levels used: 1
  1474 ;; This function calls:
  1475 ;;		Nothing
  1476 ;; This function is called by:
  1477 ;;		_main
  1478 ;; This function uses a non-reentrant model
  1479 ;;
  1480                           
  1481                           
  1482                           ;psect for function _spiWrite
  1483  1647                     _spiWrite:
  1484                           
  1485                           ;incstack = 0
  1486                           ; Regs used in _spiWrite: [wreg]
  1487                           ;spiWrite@dat stored from wreg
  1488  1647  00F0               	movwf	spiWrite@dat
  1489  1648                     l2766:
  1490                           
  1491                           ;LibreriasL3.c: 75: void spiWrite(char dat);LibreriasL3.c: 76: {;LibreriasL3.c: 77:     
      +                          SSPBUF = dat;
  1492  1648  0870               	movf	spiWrite@dat,w
  1493  1649  1283               	bcf	3,5	;RP0=0, select bank0
  1494  164A  1303               	bcf	3,6	;RP1=0, select bank0
  1495  164B  0093               	movwf	19	;volatile
  1496  164C                     l270:
  1497  164C  0008               	return
  1498  164D                     __end_of_spiWrite:
  1499                           
  1500                           	psect	text2
  1501  1654                     __ptext2:	
  1502 ;; *************** function _spiRead *****************
  1503 ;; Defined at:
  1504 ;;		line 88 in file "LibreriasL3.c"
  1505 ;; Parameters:    Size  Location     Type
  1506 ;;		None
  1507 ;; Auto vars:     Size  Location     Type
  1508 ;;		None
  1509 ;; Return value:  Size  Location     Type
  1510 ;;                  1    wreg      unsigned char 
  1511 ;; Registers used:
  1512 ;;		wreg, status,2, status,0, pclath, cstack
  1513 ;; Tracked objects:
  1514 ;;		On entry : 0/0
  1515 ;;		On exit  : 0/0
  1516 ;;		Unchanged: 0/0
  1517 ;; Data sizes:     COMMON   BANK0   BANK1   BANK3   BANK2
  1518 ;;      Params:         0       0       0       0       0
  1519 ;;      Locals:         0       0       0       0       0
  1520 ;;      Temps:          0       0       0       0       0
  1521 ;;      Totals:         0       0       0       0       0
  1522 ;;Total ram usage:        0 bytes
  1523 ;; Hardware stack levels used: 1
  1524 ;; Hardware stack levels required when called: 1
  1525 ;; This function calls:
  1526 ;;		_spiReceiveWait
  1527 ;; This function is called by:
  1528 ;;		_main
  1529 ;; This function uses a non-reentrant model
  1530 ;;
  1531                           
  1532                           
  1533                           ;psect for function _spiRead
  1534  1654                     _spiRead:
  1535  1654                     l2768:	
  1536                           ;incstack = 0
  1537                           ; Regs used in _spiRead: [wreg+status,2+status,0+pclath+cstack]
  1538                           
  1539                           
  1540                           ;LibreriasL3.c: 90:     spiReceiveWait();
  1541  1654  160A  118A  264D  160A  118A  	fcall	_spiReceiveWait
  1542  1659                     l2770:
  1543                           
  1544                           ;LibreriasL3.c: 91:     return(SSPBUF);
  1545  1659  1283               	bcf	3,5	;RP0=0, select bank0
  1546  165A  1303               	bcf	3,6	;RP1=0, select bank0
  1547  165B  0813               	movf	19,w	;volatile
  1548  165C                     l278:
  1549  165C  0008               	return
  1550  165D                     __end_of_spiRead:
  1551                           
  1552                           	psect	text3
  1553  164D                     __ptext3:	
  1554 ;; *************** function _spiReceiveWait *****************
  1555 ;; Defined at:
  1556 ;;		line 70 in file "LibreriasL3.c"
  1557 ;; Parameters:    Size  Location     Type
  1558 ;;		None
  1559 ;; Auto vars:     Size  Location     Type
  1560 ;;		None
  1561 ;; Return value:  Size  Location     Type
  1562 ;;                  1    wreg      void 
  1563 ;; Registers used:
  1564 ;;		None
  1565 ;; Tracked objects:
  1566 ;;		On entry : 0/0
  1567 ;;		On exit  : 0/0
  1568 ;;		Unchanged: 0/0
  1569 ;; Data sizes:     COMMON   BANK0   BANK1   BANK3   BANK2
  1570 ;;      Params:         0       0       0       0       0
  1571 ;;      Locals:         0       0       0       0       0
  1572 ;;      Temps:          0       0       0       0       0
  1573 ;;      Totals:         0       0       0       0       0
  1574 ;;Total ram usage:        0 bytes
  1575 ;; Hardware stack levels used: 1
  1576 ;; This function calls:
  1577 ;;		Nothing
  1578 ;; This function is called by:
  1579 ;;		_spiRead
  1580 ;; This function uses a non-reentrant model
  1581 ;;
  1582                           
  1583                           
  1584                           ;psect for function _spiReceiveWait
  1585  164D                     _spiReceiveWait:
  1586  164D                     l2270:	
  1587                           ;incstack = 0
  1588                           ; Regs used in _spiReceiveWait: []
  1589                           
  1590  164D                     l264:	
  1591                           ;LibreriasL3.c: 72:     while ( !SSPSTATbits.BF );
  1592                           
  1593  164D  1683               	bsf	3,5	;RP0=1, select bank1
  1594  164E  1303               	bcf	3,6	;RP1=0, select bank1
  1595  164F  1C14               	btfss	20,0	;volatile
  1596  1650  2E52               	goto	u2401
  1597  1651  2E53               	goto	u2400
  1598  1652                     u2401:
  1599  1652  2E4D               	goto	l264
  1600  1653                     u2400:
  1601  1653                     l267:
  1602  1653  0008               	return
  1603  1654                     __end_of_spiReceiveWait:
  1604                           
  1605                           	psect	text4
  1606  03FB                     __ptext4:	
  1607 ;; *************** function _convert *****************
  1608 ;; Defined at:
  1609 ;;		line 16 in file "ADCL3.c"
  1610 ;; Parameters:    Size  Location     Type
  1611 ;;  data            1    wreg     PTR unsigned char 
  1612 ;;		 -> adc1(10), adc0(10), 
  1613 ;;  a               4   70[BANK0 ] float 
  1614 ;;  place           2   74[BANK0 ] int 
  1615 ;; Auto vars:     Size  Location     Type
  1616 ;;  data            1    4[BANK1 ] PTR unsigned char 
  1617 ;;		 -> adc1(10), adc0(10), 
  1618 ;;  x               4    5[BANK1 ] float 
  1619 ;;  mu              2   13[BANK1 ] int 
  1620 ;;  digits          2   11[BANK1 ] int 
  1621 ;;  i               2    9[BANK1 ] int 
  1622 ;;  j               2    2[BANK1 ] int 
  1623 ;;  temp            2    0[BANK1 ] int 
  1624 ;; Return value:  Size  Location     Type
  1625 ;;                  1    wreg      void 
  1626 ;; Registers used:
  1627 ;;		wreg, fsr0l, fsr0h, status,2, status,0, btemp+1, pclath, cstack
  1628 ;; Tracked objects:
  1629 ;;		On entry : 0/0
  1630 ;;		On exit  : 0/0
  1631 ;;		Unchanged: 0/0
  1632 ;; Data sizes:     COMMON   BANK0   BANK1   BANK3   BANK2
  1633 ;;      Params:         0       6       0       0       0
  1634 ;;      Locals:         0       0      15       0       0
  1635 ;;      Temps:          0       2       0       0       0
  1636 ;;      Totals:         0       8      15       0       0
  1637 ;;Total ram usage:       23 bytes
  1638 ;; Hardware stack levels used: 1
  1639 ;; Hardware stack levels required when called: 2
  1640 ;; This function calls:
  1641 ;;		___awdiv
  1642 ;;		___fldiv
  1643 ;;		___flge
  1644 ;;		___flmul
  1645 ;;		___flsub
  1646 ;;		___fltol
  1647 ;;		___wmul
  1648 ;;		___xxtofl
  1649 ;; This function is called by:
  1650 ;;		_main
  1651 ;; This function uses a non-reentrant model
  1652 ;;
  1653                           
  1654                           
  1655                           ;psect for function _convert
  1656  03FB                     _convert:
  1657                           
  1658                           ;incstack = 0
  1659                           ; Regs used in _convert: [wreg-fsr0h+status,2+status,0+btemp+1+pclath+cstack]
  1660                           ;convert@data stored from wreg
  1661  03FB  1683               	bsf	3,5	;RP0=1, select bank1
  1662  03FC  1303               	bcf	3,6	;RP1=0, select bank1
  1663  03FD  00C0               	movwf	convert@data^(0+128)
  1664  03FE                     l2774:
  1665                           
  1666                           ;ADCL3.c: 16: void convert(char *data,float a, int place);ADCL3.c: 17: {;ADCL3.c: 18:   
      +                             int temp=a;
  1667  03FE  1283               	bcf	3,5	;RP0=0, select bank0
  1668  03FF  1303               	bcf	3,6	;RP1=0, select bank0
  1669  0400  0869               	movf	convert@a+3,w
  1670  0401  00F3               	movwf	___fltol@f1+3
  1671  0402  0868               	movf	convert@a+2,w
  1672  0403  00F2               	movwf	___fltol@f1+2
  1673  0404  0867               	movf	convert@a+1,w
  1674  0405  00F1               	movwf	___fltol@f1+1
  1675  0406  0866               	movf	convert@a,w
  1676  0407  00F0               	movwf	___fltol@f1
  1677  0408  120A  158A  2025  120A  118A  	fcall	___fltol
  1678  040D  0871               	movf	?___fltol+1,w
  1679  040E  1683               	bsf	3,5	;RP0=1, select bank1
  1680  040F  1303               	bcf	3,6	;RP1=0, select bank1
  1681  0410  00BD               	movwf	(convert@temp+1)^(0+128)
  1682  0411  0870               	movf	?___fltol,w
  1683  0412  00BC               	movwf	convert@temp^(0+128)
  1684  0413                     l2776:
  1685  0413                     l2778:
  1686                           
  1687                           ;ADCL3.c: 20:      int digits=0;
  1688  0413  01C7               	clrf	convert@digits^(0+128)
  1689  0414  01C8               	clrf	(convert@digits+1)^(0+128)
  1690  0415                     l2780:
  1691                           
  1692                           ;ADCL3.c: 21:      int i=0,mu=1;
  1693  0415  01C5               	clrf	convert@i^(0+128)
  1694  0416  01C6               	clrf	(convert@i+1)^(0+128)
  1695  0417                     l2782:
  1696  0417  3001               	movlw	1
  1697  0418  00C9               	movwf	convert@mu^(0+128)
  1698  0419  3000               	movlw	0
  1699  041A  00CA               	movwf	(convert@mu^(0+128)+1)
  1700  041B                     l2784:
  1701  041B                     l2786:
  1702                           
  1703                           ;ADCL3.c: 23:      if(a<0)
  1704  041B  1283               	bcf	3,5	;RP0=0, select bank0
  1705  041C  1303               	bcf	3,6	;RP1=0, select bank0
  1706  041D  0869               	movf	convert@a+3,w
  1707  041E  00F3               	movwf	___flge@ff1+3
  1708  041F  0868               	movf	convert@a+2,w
  1709  0420  00F2               	movwf	___flge@ff1+2
  1710  0421  0867               	movf	convert@a+1,w
  1711  0422  00F1               	movwf	___flge@ff1+1
  1712  0423  0866               	movf	convert@a,w
  1713  0424  00F0               	movwf	___flge@ff1
  1714  0425  3000               	movlw	0
  1715  0426  00F7               	movwf	___flge@ff2+3
  1716  0427  3000               	movlw	0
  1717  0428  00F6               	movwf	___flge@ff2+2
  1718  0429  3000               	movlw	0
  1719  042A  00F5               	movwf	___flge@ff2+1
  1720  042B  3000               	movlw	0
  1721  042C  00F4               	movwf	___flge@ff2
  1722  042D  120A  158A  209F  120A  118A  	fcall	___flge
  1723  0432  1803               	btfsc	3,0
  1724  0433  2C35               	goto	u3521
  1725  0434  2C36               	goto	u3520
  1726  0435                     u3521:
  1727  0435  2C84               	goto	l2798
  1728  0436                     u3520:
  1729  0436                     l2788:
  1730                           
  1731                           ;ADCL3.c: 24:      {;ADCL3.c: 25:             a=a*-1;
  1732  0436  30BF               	movlw	191
  1733  0437  1283               	bcf	3,5	;RP0=0, select bank0
  1734  0438  1303               	bcf	3,6	;RP1=0, select bank0
  1735  0439  00CF               	movwf	___flmul@b+3
  1736  043A  3080               	movlw	128
  1737  043B  00CE               	movwf	___flmul@b+2
  1738  043C  3000               	movlw	0
  1739  043D  00CD               	movwf	___flmul@b+1
  1740  043E  3000               	movlw	0
  1741  043F  00CC               	movwf	___flmul@b
  1742  0440  0869               	movf	convert@a+3,w
  1743  0441  00D3               	movwf	___flmul@a+3
  1744  0442  0868               	movf	convert@a+2,w
  1745  0443  00D2               	movwf	___flmul@a+2
  1746  0444  0867               	movf	convert@a+1,w
  1747  0445  00D1               	movwf	___flmul@a+1
  1748  0446  0866               	movf	convert@a,w
  1749  0447  00D0               	movwf	___flmul@a
  1750  0448  120A  118A  209A  120A  118A  	fcall	___flmul
  1751  044D  1283               	bcf	3,5	;RP0=0, select bank0
  1752  044E  1303               	bcf	3,6	;RP1=0, select bank0
  1753  044F  084F               	movf	?___flmul+3,w
  1754  0450  00E9               	movwf	convert@a+3
  1755  0451  084E               	movf	?___flmul+2,w
  1756  0452  00E8               	movwf	convert@a+2
  1757  0453  084D               	movf	?___flmul+1,w
  1758  0454  00E7               	movwf	convert@a+1
  1759  0455  084C               	movf	?___flmul,w
  1760  0456  00E6               	movwf	convert@a
  1761  0457                     l2790:
  1762                           
  1763                           ;ADCL3.c: 26:             data[i]='-';
  1764  0457  302D               	movlw	45
  1765  0458  00EC               	movwf	??_convert
  1766  0459  1683               	bsf	3,5	;RP0=1, select bank1
  1767  045A  1303               	bcf	3,6	;RP1=0, select bank1
  1768  045B  0840               	movf	convert@data^(0+128),w
  1769  045C  0084               	movwf	4
  1770  045D  1283               	bcf	3,5	;RP0=0, select bank0
  1771  045E  1303               	bcf	3,6	;RP1=0, select bank0
  1772  045F  086C               	movf	??_convert,w
  1773  0460  1383               	bcf	3,7	;select IRP bank0
  1774  0461  0080               	movwf	0
  1775  0462                     l2792:
  1776                           
  1777                           ;ADCL3.c: 27:             i++;
  1778  0462  3001               	movlw	1
  1779  0463  1683               	bsf	3,5	;RP0=1, select bank1
  1780  0464  1303               	bcf	3,6	;RP1=0, select bank1
  1781  0465  07C5               	addwf	convert@i^(0+128),f
  1782  0466  1803               	skipnc
  1783  0467  0AC6               	incf	(convert@i+1)^(0+128),f
  1784  0468  3000               	movlw	0
  1785  0469  07C6               	addwf	(convert@i+1)^(0+128),f
  1786  046A  2C84               	goto	l2798
  1787  046B                     l2794:
  1788                           
  1789                           ;ADCL3.c: 31:      {;ADCL3.c: 32:          temp=temp/10;
  1790  046B  300A               	movlw	10
  1791  046C  00F0               	movwf	___awdiv@divisor
  1792  046D  3000               	movlw	0
  1793  046E  00F1               	movwf	___awdiv@divisor+1
  1794  046F  083D               	movf	(convert@temp+1)^(0+128),w
  1795  0470  00F3               	movwf	___awdiv@dividend+1
  1796  0471  083C               	movf	convert@temp^(0+128),w
  1797  0472  00F2               	movwf	___awdiv@dividend
  1798  0473  160A  118A  2799  120A  118A  	fcall	___awdiv
  1799  0478  0871               	movf	?___awdiv+1,w
  1800  0479  1683               	bsf	3,5	;RP0=1, select bank1
  1801  047A  1303               	bcf	3,6	;RP1=0, select bank1
  1802  047B  00BD               	movwf	(convert@temp+1)^(0+128)
  1803  047C  0870               	movf	?___awdiv,w
  1804  047D  00BC               	movwf	convert@temp^(0+128)
  1805  047E                     l2796:
  1806                           
  1807                           ;ADCL3.c: 33:          digits++;
  1808  047E  3001               	movlw	1
  1809  047F  07C7               	addwf	convert@digits^(0+128),f
  1810  0480  1803               	skipnc
  1811  0481  0AC8               	incf	(convert@digits+1)^(0+128),f
  1812  0482  3000               	movlw	0
  1813  0483  07C8               	addwf	(convert@digits+1)^(0+128),f
  1814  0484                     l2798:
  1815                           
  1816                           ;ADCL3.c: 30:      while(temp!=0)
  1817  0484  1683               	bsf	3,5	;RP0=1, select bank1
  1818  0485  1303               	bcf	3,6	;RP1=0, select bank1
  1819  0486  083C               	movf	convert@temp^(0+128),w
  1820  0487  043D               	iorwf	(convert@temp+1)^(0+128),w
  1821  0488  1D03               	btfss	3,2
  1822  0489  2C8B               	goto	u3531
  1823  048A  2C8C               	goto	u3530
  1824  048B                     u3531:
  1825  048B  2C6B               	goto	l2794
  1826  048C                     u3530:
  1827  048C  2DA8               	goto	l2822
  1828  048D                     l2800:
  1829                           
  1830                           ;ADCL3.c: 36:      {;ADCL3.c: 37:          if(digits==1)mu=1;
  1831  048D  0347               	decf	convert@digits^(0+128),w
  1832  048E  0448               	iorwf	(convert@digits+1)^(0+128),w
  1833  048F  1D03               	btfss	3,2
  1834  0490  2C92               	goto	u3541
  1835  0491  2C93               	goto	u3540
  1836  0492                     u3541:
  1837  0492  2C98               	goto	l2804
  1838  0493                     u3540:
  1839  0493                     l2802:
  1840  0493  3001               	movlw	1
  1841  0494  00C9               	movwf	convert@mu^(0+128)
  1842  0495  3000               	movlw	0
  1843  0496  00CA               	movwf	(convert@mu^(0+128)+1)
  1844  0497  2CDA               	goto	l2812
  1845  0498                     l2804:
  1846  0498  3002               	movlw	2
  1847  0499  00BE               	movwf	convert@j^(0+128)
  1848  049A  3000               	movlw	0
  1849  049B  00BF               	movwf	(convert@j^(0+128)+1)
  1850  049C  2CC4               	goto	l2810
  1851  049D                     l2806:
  1852  049D  1683               	bsf	3,5	;RP0=1, select bank1
  1853  049E  1303               	bcf	3,6	;RP1=0, select bank1
  1854  049F  084A               	movf	(convert@mu+1)^(0+128),w
  1855  04A0  1283               	bcf	3,5	;RP0=0, select bank0
  1856  04A1  1303               	bcf	3,6	;RP1=0, select bank0
  1857  04A2  00A1               	movwf	___wmul@multiplier+1
  1858  04A3  1683               	bsf	3,5	;RP0=1, select bank1
  1859  04A4  1303               	bcf	3,6	;RP1=0, select bank1
  1860  04A5  0849               	movf	convert@mu^(0+128),w
  1861  04A6  1283               	bcf	3,5	;RP0=0, select bank0
  1862  04A7  1303               	bcf	3,6	;RP1=0, select bank0
  1863  04A8  00A0               	movwf	___wmul@multiplier
  1864  04A9  300A               	movlw	10
  1865  04AA  00A2               	movwf	___wmul@multiplicand
  1866  04AB  3000               	movlw	0
  1867  04AC  00A3               	movwf	___wmul@multiplicand+1
  1868  04AD  160A  118A  269A  120A  118A  	fcall	___wmul
  1869  04B2  1283               	bcf	3,5	;RP0=0, select bank0
  1870  04B3  1303               	bcf	3,6	;RP1=0, select bank0
  1871  04B4  0821               	movf	?___wmul+1,w
  1872  04B5  1683               	bsf	3,5	;RP0=1, select bank1
  1873  04B6  1303               	bcf	3,6	;RP1=0, select bank1
  1874  04B7  00CA               	movwf	(convert@mu+1)^(0+128)
  1875  04B8  1283               	bcf	3,5	;RP0=0, select bank0
  1876  04B9  1303               	bcf	3,6	;RP1=0, select bank0
  1877  04BA  0820               	movf	?___wmul,w
  1878  04BB  1683               	bsf	3,5	;RP0=1, select bank1
  1879  04BC  1303               	bcf	3,6	;RP1=0, select bank1
  1880  04BD  00C9               	movwf	convert@mu^(0+128)
  1881  04BE                     l2808:
  1882  04BE  3001               	movlw	1
  1883  04BF  07BE               	addwf	convert@j^(0+128),f
  1884  04C0  1803               	skipnc
  1885  04C1  0ABF               	incf	(convert@j+1)^(0+128),f
  1886  04C2  3000               	movlw	0
  1887  04C3  07BF               	addwf	(convert@j+1)^(0+128),f
  1888  04C4                     l2810:
  1889  04C4  0848               	movf	(convert@digits+1)^(0+128),w
  1890  04C5  3A80               	xorlw	128
  1891  04C6  1283               	bcf	3,5	;RP0=0, select bank0
  1892  04C7  1303               	bcf	3,6	;RP1=0, select bank0
  1893  04C8  00EC               	movwf	??_convert
  1894  04C9  1683               	bsf	3,5	;RP0=1, select bank1
  1895  04CA  1303               	bcf	3,6	;RP1=0, select bank1
  1896  04CB  083F               	movf	(convert@j+1)^(0+128),w
  1897  04CC  3A80               	xorlw	128
  1898  04CD  1283               	bcf	3,5	;RP0=0, select bank0
  1899  04CE  1303               	bcf	3,6	;RP1=0, select bank0
  1900  04CF  026C               	subwf	??_convert,w
  1901  04D0  1D03               	skipz
  1902  04D1  2CD6               	goto	u3555
  1903  04D2  1683               	bsf	3,5	;RP0=1, select bank1
  1904  04D3  1303               	bcf	3,6	;RP1=0, select bank1
  1905  04D4  083E               	movf	convert@j^(0+128),w
  1906  04D5  0247               	subwf	convert@digits^(0+128),w
  1907  04D6                     u3555:
  1908  04D6  1803               	skipnc
  1909  04D7  2CD9               	goto	u3551
  1910  04D8  2CDA               	goto	u3550
  1911  04D9                     u3551:
  1912  04D9  2C9D               	goto	l2806
  1913  04DA                     u3550:
  1914  04DA                     l2812:
  1915                           
  1916                           ;ADCL3.c: 40:          x=a/mu;
  1917  04DA  1683               	bsf	3,5	;RP0=1, select bank1
  1918  04DB  1303               	bcf	3,6	;RP1=0, select bank1
  1919  04DC  0849               	movf	convert@mu^(0+128),w
  1920  04DD  1283               	bcf	3,5	;RP0=0, select bank0
  1921  04DE  1303               	bcf	3,6	;RP1=0, select bank0
  1922  04DF  00A4               	movwf	___xxtofl@val
  1923  04E0  1683               	bsf	3,5	;RP0=1, select bank1
  1924  04E1  1303               	bcf	3,6	;RP1=0, select bank1
  1925  04E2  084A               	movf	(convert@mu+1)^(0+128),w
  1926  04E3  1283               	bcf	3,5	;RP0=0, select bank0
  1927  04E4  1303               	bcf	3,6	;RP1=0, select bank0
  1928  04E5  00A5               	movwf	___xxtofl@val+1
  1929  04E6  3000               	movlw	0
  1930  04E7  1BA5               	btfsc	___xxtofl@val+1,7
  1931  04E8  30FF               	movlw	255
  1932  04E9  00A6               	movwf	___xxtofl@val+2
  1933  04EA  00A7               	movwf	___xxtofl@val+3
  1934  04EB  3001               	movlw	1
  1935  04EC  120A  158A  2141  120A  118A  	fcall	___xxtofl
  1936  04F1  1283               	bcf	3,5	;RP0=0, select bank0
  1937  04F2  1303               	bcf	3,6	;RP1=0, select bank0
  1938  04F3  0827               	movf	?___xxtofl+3,w
  1939  04F4  00B5               	movwf	___fldiv@a+3
  1940  04F5  0826               	movf	?___xxtofl+2,w
  1941  04F6  00B4               	movwf	___fldiv@a+2
  1942  04F7  0825               	movf	?___xxtofl+1,w
  1943  04F8  00B3               	movwf	___fldiv@a+1
  1944  04F9  0824               	movf	?___xxtofl,w
  1945  04FA  00B2               	movwf	___fldiv@a
  1946  04FB  0869               	movf	convert@a+3,w
  1947  04FC  00B9               	movwf	___fldiv@b+3
  1948  04FD  0868               	movf	convert@a+2,w
  1949  04FE  00B8               	movwf	___fldiv@b+2
  1950  04FF  0867               	movf	convert@a+1,w
  1951  0500  00B7               	movwf	___fldiv@b+1
  1952  0501  0866               	movf	convert@a,w
  1953  0502  00B6               	movwf	___fldiv@b
  1954  0503  120A  158A  238B  120A  118A  	fcall	___fldiv
  1955  0508  1283               	bcf	3,5	;RP0=0, select bank0
  1956  0509  1303               	bcf	3,6	;RP1=0, select bank0
  1957  050A  0835               	movf	?___fldiv+3,w
  1958  050B  1683               	bsf	3,5	;RP0=1, select bank1
  1959  050C  1303               	bcf	3,6	;RP1=0, select bank1
  1960  050D  00C4               	movwf	(convert@x+3)^(0+128)
  1961  050E  1283               	bcf	3,5	;RP0=0, select bank0
  1962  050F  1303               	bcf	3,6	;RP1=0, select bank0
  1963  0510  0834               	movf	?___fldiv+2,w
  1964  0511  1683               	bsf	3,5	;RP0=1, select bank1
  1965  0512  1303               	bcf	3,6	;RP1=0, select bank1
  1966  0513  00C3               	movwf	(convert@x+2)^(0+128)
  1967  0514  1283               	bcf	3,5	;RP0=0, select bank0
  1968  0515  1303               	bcf	3,6	;RP1=0, select bank0
  1969  0516  0833               	movf	?___fldiv+1,w
  1970  0517  1683               	bsf	3,5	;RP0=1, select bank1
  1971  0518  1303               	bcf	3,6	;RP1=0, select bank1
  1972  0519  00C2               	movwf	(convert@x+1)^(0+128)
  1973  051A  1283               	bcf	3,5	;RP0=0, select bank0
  1974  051B  1303               	bcf	3,6	;RP1=0, select bank0
  1975  051C  0832               	movf	?___fldiv,w
  1976  051D  1683               	bsf	3,5	;RP0=1, select bank1
  1977  051E  1303               	bcf	3,6	;RP1=0, select bank1
  1978  051F  00C1               	movwf	convert@x^(0+128)
  1979                           
  1980                           ;ADCL3.c: 41:          a=a-((int)x*mu);
  1981  0520  084A               	movf	(convert@mu+1)^(0+128),w
  1982  0521  1283               	bcf	3,5	;RP0=0, select bank0
  1983  0522  1303               	bcf	3,6	;RP1=0, select bank0
  1984  0523  00A3               	movwf	___wmul@multiplicand+1
  1985  0524  1683               	bsf	3,5	;RP0=1, select bank1
  1986  0525  1303               	bcf	3,6	;RP1=0, select bank1
  1987  0526  0849               	movf	convert@mu^(0+128),w
  1988  0527  1283               	bcf	3,5	;RP0=0, select bank0
  1989  0528  1303               	bcf	3,6	;RP1=0, select bank0
  1990  0529  00A2               	movwf	___wmul@multiplicand
  1991  052A  1683               	bsf	3,5	;RP0=1, select bank1
  1992  052B  1303               	bcf	3,6	;RP1=0, select bank1
  1993  052C  0844               	movf	(convert@x+3)^(0+128),w
  1994  052D  00F3               	movwf	___fltol@f1+3
  1995  052E  0843               	movf	(convert@x+2)^(0+128),w
  1996  052F  00F2               	movwf	___fltol@f1+2
  1997  0530  0842               	movf	(convert@x+1)^(0+128),w
  1998  0531  00F1               	movwf	___fltol@f1+1
  1999  0532  0841               	movf	convert@x^(0+128),w
  2000  0533  00F0               	movwf	___fltol@f1
  2001  0534  120A  158A  2025  120A  118A  	fcall	___fltol
  2002  0539  0871               	movf	?___fltol+1,w
  2003  053A  1283               	bcf	3,5	;RP0=0, select bank0
  2004  053B  1303               	bcf	3,6	;RP1=0, select bank0
  2005  053C  00A1               	movwf	___wmul@multiplier+1
  2006  053D  0870               	movf	?___fltol,w
  2007  053E  00A0               	movwf	___wmul@multiplier
  2008  053F  160A  118A  269A  120A  118A  	fcall	___wmul
  2009  0544  1283               	bcf	3,5	;RP0=0, select bank0
  2010  0545  1303               	bcf	3,6	;RP1=0, select bank0
  2011  0546  0820               	movf	?___wmul,w
  2012  0547  00A4               	movwf	___xxtofl@val
  2013  0548  0821               	movf	?___wmul+1,w
  2014  0549  00A5               	movwf	___xxtofl@val+1
  2015  054A  3000               	movlw	0
  2016  054B  1BA5               	btfsc	___xxtofl@val+1,7
  2017  054C  30FF               	movlw	255
  2018  054D  00A6               	movwf	___xxtofl@val+2
  2019  054E  00A7               	movwf	___xxtofl@val+3
  2020  054F  3001               	movlw	1
  2021  0550  120A  158A  2141  120A  118A  	fcall	___xxtofl
  2022  0555  1283               	bcf	3,5	;RP0=0, select bank0
  2023  0556  1303               	bcf	3,6	;RP1=0, select bank0
  2024  0557  0827               	movf	?___xxtofl+3,w
  2025  0558  00B5               	movwf	___flsub@a+3
  2026  0559  0826               	movf	?___xxtofl+2,w
  2027  055A  00B4               	movwf	___flsub@a+2
  2028  055B  0825               	movf	?___xxtofl+1,w
  2029  055C  00B3               	movwf	___flsub@a+1
  2030  055D  0824               	movf	?___xxtofl,w
  2031  055E  00B2               	movwf	___flsub@a
  2032  055F  0869               	movf	convert@a+3,w
  2033  0560  00B9               	movwf	___flsub@b+3
  2034  0561  0868               	movf	convert@a+2,w
  2035  0562  00B8               	movwf	___flsub@b+2
  2036  0563  0867               	movf	convert@a+1,w
  2037  0564  00B7               	movwf	___flsub@b+1
  2038  0565  0866               	movf	convert@a,w
  2039  0566  00B6               	movwf	___flsub@b
  2040  0567  120A  158A  2001  120A  118A  	fcall	___flsub
  2041  056C  1283               	bcf	3,5	;RP0=0, select bank0
  2042  056D  1303               	bcf	3,6	;RP1=0, select bank0
  2043  056E  0835               	movf	?___flsub+3,w
  2044  056F  00E9               	movwf	convert@a+3
  2045  0570  0834               	movf	?___flsub+2,w
  2046  0571  00E8               	movwf	convert@a+2
  2047  0572  0833               	movf	?___flsub+1,w
  2048  0573  00E7               	movwf	convert@a+1
  2049  0574  0832               	movf	?___flsub,w
  2050  0575  00E6               	movwf	convert@a
  2051  0576                     l2814:
  2052                           
  2053                           ;ADCL3.c: 42:          data[i]=0x30+((int)x);
  2054  0576  1683               	bsf	3,5	;RP0=1, select bank1
  2055  0577  1303               	bcf	3,6	;RP1=0, select bank1
  2056  0578  0844               	movf	(convert@x+3)^(0+128),w
  2057  0579  00F3               	movwf	___fltol@f1+3
  2058  057A  0843               	movf	(convert@x+2)^(0+128),w
  2059  057B  00F2               	movwf	___fltol@f1+2
  2060  057C  0842               	movf	(convert@x+1)^(0+128),w
  2061  057D  00F1               	movwf	___fltol@f1+1
  2062  057E  0841               	movf	convert@x^(0+128),w
  2063  057F  00F0               	movwf	___fltol@f1
  2064  0580  120A  158A  2025  120A  118A  	fcall	___fltol
  2065  0585  0870               	movf	?___fltol,w
  2066  0586  3E30               	addlw	48
  2067  0587  1283               	bcf	3,5	;RP0=0, select bank0
  2068  0588  1303               	bcf	3,6	;RP1=0, select bank0
  2069  0589  00EC               	movwf	??_convert
  2070  058A  1683               	bsf	3,5	;RP0=1, select bank1
  2071  058B  1303               	bcf	3,6	;RP1=0, select bank1
  2072  058C  0845               	movf	convert@i^(0+128),w
  2073  058D  0740               	addwf	convert@data^(0+128),w
  2074  058E  1283               	bcf	3,5	;RP0=0, select bank0
  2075  058F  1303               	bcf	3,6	;RP1=0, select bank0
  2076  0590  00ED               	movwf	??_convert+1
  2077  0591  086D               	movf	??_convert+1,w
  2078  0592  0084               	movwf	4
  2079  0593  086C               	movf	??_convert,w
  2080  0594  1383               	bcf	3,7	;select IRP bank0
  2081  0595  0080               	movwf	0
  2082  0596                     l2816:
  2083                           
  2084                           ;ADCL3.c: 43:          i++;
  2085  0596  3001               	movlw	1
  2086  0597  1683               	bsf	3,5	;RP0=1, select bank1
  2087  0598  1303               	bcf	3,6	;RP1=0, select bank1
  2088  0599  07C5               	addwf	convert@i^(0+128),f
  2089  059A  1803               	skipnc
  2090  059B  0AC6               	incf	(convert@i+1)^(0+128),f
  2091  059C  3000               	movlw	0
  2092  059D  07C6               	addwf	(convert@i+1)^(0+128),f
  2093  059E                     l2818:
  2094                           
  2095                           ;ADCL3.c: 44:          digits--;
  2096  059E  30FF               	movlw	255
  2097  059F  07C7               	addwf	convert@digits^(0+128),f
  2098  05A0  1803               	skipnc
  2099  05A1  0AC8               	incf	(convert@digits+1)^(0+128),f
  2100  05A2  30FF               	movlw	255
  2101  05A3  07C8               	addwf	(convert@digits+1)^(0+128),f
  2102  05A4                     l2820:
  2103                           
  2104                           ;ADCL3.c: 45:          mu=1;
  2105  05A4  3001               	movlw	1
  2106  05A5  00C9               	movwf	convert@mu^(0+128)
  2107  05A6  3000               	movlw	0
  2108  05A7  00CA               	movwf	(convert@mu^(0+128)+1)
  2109  05A8                     l2822:
  2110                           
  2111                           ;ADCL3.c: 35:      while(digits!=0)
  2112  05A8  0847               	movf	convert@digits^(0+128),w
  2113  05A9  0448               	iorwf	(convert@digits+1)^(0+128),w
  2114  05AA  1D03               	btfss	3,2
  2115  05AB  2DAD               	goto	u3561
  2116  05AC  2DAE               	goto	u3560
  2117  05AD                     u3561:
  2118  05AD  2C8D               	goto	l2800
  2119  05AE                     u3560:
  2120  05AE                     l2824:
  2121                           
  2122                           ;ADCL3.c: 48:      data[i]='.';
  2123  05AE  302E               	movlw	46
  2124  05AF  1283               	bcf	3,5	;RP0=0, select bank0
  2125  05B0  1303               	bcf	3,6	;RP1=0, select bank0
  2126  05B1  00EC               	movwf	??_convert
  2127  05B2  1683               	bsf	3,5	;RP0=1, select bank1
  2128  05B3  1303               	bcf	3,6	;RP1=0, select bank1
  2129  05B4  0845               	movf	convert@i^(0+128),w
  2130  05B5  0740               	addwf	convert@data^(0+128),w
  2131  05B6  1283               	bcf	3,5	;RP0=0, select bank0
  2132  05B7  1303               	bcf	3,6	;RP1=0, select bank0
  2133  05B8  00ED               	movwf	??_convert+1
  2134  05B9  086D               	movf	??_convert+1,w
  2135  05BA  0084               	movwf	4
  2136  05BB  086C               	movf	??_convert,w
  2137  05BC  1383               	bcf	3,7	;select IRP bank0
  2138  05BD  0080               	movwf	0
  2139  05BE                     l2826:
  2140                           
  2141                           ;ADCL3.c: 49:      i++;
  2142  05BE  3001               	movlw	1
  2143  05BF  1683               	bsf	3,5	;RP0=1, select bank1
  2144  05C0  1303               	bcf	3,6	;RP1=0, select bank1
  2145  05C1  07C5               	addwf	convert@i^(0+128),f
  2146  05C2  1803               	skipnc
  2147  05C3  0AC6               	incf	(convert@i+1)^(0+128),f
  2148  05C4  3000               	movlw	0
  2149  05C5  07C6               	addwf	(convert@i+1)^(0+128),f
  2150  05C6                     l2828:
  2151  05C6                     l2830:
  2152                           
  2153                           ;ADCL3.c: 51:      for(j=1;j<=place;j++)mu=mu*10;
  2154  05C6  3001               	movlw	1
  2155  05C7  00BE               	movwf	convert@j^(0+128)
  2156  05C8  3000               	movlw	0
  2157  05C9  00BF               	movwf	(convert@j^(0+128)+1)
  2158  05CA  2DF2               	goto	l2836
  2159  05CB                     l2832:
  2160  05CB  1683               	bsf	3,5	;RP0=1, select bank1
  2161  05CC  1303               	bcf	3,6	;RP1=0, select bank1
  2162  05CD  084A               	movf	(convert@mu+1)^(0+128),w
  2163  05CE  1283               	bcf	3,5	;RP0=0, select bank0
  2164  05CF  1303               	bcf	3,6	;RP1=0, select bank0
  2165  05D0  00A1               	movwf	___wmul@multiplier+1
  2166  05D1  1683               	bsf	3,5	;RP0=1, select bank1
  2167  05D2  1303               	bcf	3,6	;RP1=0, select bank1
  2168  05D3  0849               	movf	convert@mu^(0+128),w
  2169  05D4  1283               	bcf	3,5	;RP0=0, select bank0
  2170  05D5  1303               	bcf	3,6	;RP1=0, select bank0
  2171  05D6  00A0               	movwf	___wmul@multiplier
  2172  05D7  300A               	movlw	10
  2173  05D8  00A2               	movwf	___wmul@multiplicand
  2174  05D9  3000               	movlw	0
  2175  05DA  00A3               	movwf	___wmul@multiplicand+1
  2176  05DB  160A  118A  269A  120A  118A  	fcall	___wmul
  2177  05E0  1283               	bcf	3,5	;RP0=0, select bank0
  2178  05E1  1303               	bcf	3,6	;RP1=0, select bank0
  2179  05E2  0821               	movf	?___wmul+1,w
  2180  05E3  1683               	bsf	3,5	;RP0=1, select bank1
  2181  05E4  1303               	bcf	3,6	;RP1=0, select bank1
  2182  05E5  00CA               	movwf	(convert@mu+1)^(0+128)
  2183  05E6  1283               	bcf	3,5	;RP0=0, select bank0
  2184  05E7  1303               	bcf	3,6	;RP1=0, select bank0
  2185  05E8  0820               	movf	?___wmul,w
  2186  05E9  1683               	bsf	3,5	;RP0=1, select bank1
  2187  05EA  1303               	bcf	3,6	;RP1=0, select bank1
  2188  05EB  00C9               	movwf	convert@mu^(0+128)
  2189  05EC                     l2834:
  2190  05EC  3001               	movlw	1
  2191  05ED  07BE               	addwf	convert@j^(0+128),f
  2192  05EE  1803               	skipnc
  2193  05EF  0ABF               	incf	(convert@j+1)^(0+128),f
  2194  05F0  3000               	movlw	0
  2195  05F1  07BF               	addwf	(convert@j+1)^(0+128),f
  2196  05F2                     l2836:
  2197  05F2  1283               	bcf	3,5	;RP0=0, select bank0
  2198  05F3  1303               	bcf	3,6	;RP1=0, select bank0
  2199  05F4  086B               	movf	convert@place+1,w
  2200  05F5  3A80               	xorlw	128
  2201  05F6  00EC               	movwf	??_convert
  2202  05F7  1683               	bsf	3,5	;RP0=1, select bank1
  2203  05F8  1303               	bcf	3,6	;RP1=0, select bank1
  2204  05F9  083F               	movf	(convert@j+1)^(0+128),w
  2205  05FA  3A80               	xorlw	128
  2206  05FB  1283               	bcf	3,5	;RP0=0, select bank0
  2207  05FC  1303               	bcf	3,6	;RP1=0, select bank0
  2208  05FD  026C               	subwf	??_convert,w
  2209  05FE  1D03               	skipz
  2210  05FF  2E06               	goto	u3575
  2211  0600  1683               	bsf	3,5	;RP0=1, select bank1
  2212  0601  1303               	bcf	3,6	;RP1=0, select bank1
  2213  0602  083E               	movf	convert@j^(0+128),w
  2214  0603  1283               	bcf	3,5	;RP0=0, select bank0
  2215  0604  1303               	bcf	3,6	;RP1=0, select bank0
  2216  0605  026A               	subwf	convert@place,w
  2217  0606                     u3575:
  2218  0606  1803               	skipnc
  2219  0607  2E09               	goto	u3571
  2220  0608  2E0A               	goto	u3570
  2221  0609                     u3571:
  2222  0609  2DCB               	goto	l2832
  2223  060A                     u3570:
  2224  060A                     l2838:
  2225                           
  2226                           ;ADCL3.c: 52:      x=(a-(int)a)*mu;
  2227  060A  1683               	bsf	3,5	;RP0=1, select bank1
  2228  060B  1303               	bcf	3,6	;RP1=0, select bank1
  2229  060C  0849               	movf	convert@mu^(0+128),w
  2230  060D  1283               	bcf	3,5	;RP0=0, select bank0
  2231  060E  1303               	bcf	3,6	;RP1=0, select bank0
  2232  060F  00A4               	movwf	___xxtofl@val
  2233  0610  1683               	bsf	3,5	;RP0=1, select bank1
  2234  0611  1303               	bcf	3,6	;RP1=0, select bank1
  2235  0612  084A               	movf	(convert@mu+1)^(0+128),w
  2236  0613  1283               	bcf	3,5	;RP0=0, select bank0
  2237  0614  1303               	bcf	3,6	;RP1=0, select bank0
  2238  0615  00A5               	movwf	___xxtofl@val+1
  2239  0616  3000               	movlw	0
  2240  0617  1BA5               	btfsc	___xxtofl@val+1,7
  2241  0618  30FF               	movlw	255
  2242  0619  00A6               	movwf	___xxtofl@val+2
  2243  061A  00A7               	movwf	___xxtofl@val+3
  2244  061B  3001               	movlw	1
  2245  061C  120A  158A  2141  120A  118A  	fcall	___xxtofl
  2246  0621  1283               	bcf	3,5	;RP0=0, select bank0
  2247  0622  1303               	bcf	3,6	;RP1=0, select bank0
  2248  0623  0827               	movf	?___xxtofl+3,w
  2249  0624  00CF               	movwf	___flmul@b+3
  2250  0625  0826               	movf	?___xxtofl+2,w
  2251  0626  00CE               	movwf	___flmul@b+2
  2252  0627  0825               	movf	?___xxtofl+1,w
  2253  0628  00CD               	movwf	___flmul@b+1
  2254  0629  0824               	movf	?___xxtofl,w
  2255  062A  00CC               	movwf	___flmul@b
  2256  062B  0869               	movf	convert@a+3,w
  2257  062C  00F3               	movwf	___fltol@f1+3
  2258  062D  0868               	movf	convert@a+2,w
  2259  062E  00F2               	movwf	___fltol@f1+2
  2260  062F  0867               	movf	convert@a+1,w
  2261  0630  00F1               	movwf	___fltol@f1+1
  2262  0631  0866               	movf	convert@a,w
  2263  0632  00F0               	movwf	___fltol@f1
  2264  0633  120A  158A  2025  120A  118A  	fcall	___fltol
  2265  0638  0870               	movf	?___fltol,w
  2266  0639  1283               	bcf	3,5	;RP0=0, select bank0
  2267  063A  1303               	bcf	3,6	;RP1=0, select bank0
  2268  063B  00A4               	movwf	___xxtofl@val
  2269  063C  0871               	movf	?___fltol+1,w
  2270  063D  00A5               	movwf	___xxtofl@val+1
  2271  063E  3000               	movlw	0
  2272  063F  1BA5               	btfsc	___xxtofl@val+1,7
  2273  0640  30FF               	movlw	255
  2274  0641  00A6               	movwf	___xxtofl@val+2
  2275  0642  00A7               	movwf	___xxtofl@val+3
  2276  0643  3001               	movlw	1
  2277  0644  120A  158A  2141  120A  118A  	fcall	___xxtofl
  2278  0649  1283               	bcf	3,5	;RP0=0, select bank0
  2279  064A  1303               	bcf	3,6	;RP1=0, select bank0
  2280  064B  0827               	movf	?___xxtofl+3,w
  2281  064C  00B5               	movwf	___flsub@a+3
  2282  064D  0826               	movf	?___xxtofl+2,w
  2283  064E  00B4               	movwf	___flsub@a+2
  2284  064F  0825               	movf	?___xxtofl+1,w
  2285  0650  00B3               	movwf	___flsub@a+1
  2286  0651  0824               	movf	?___xxtofl,w
  2287  0652  00B2               	movwf	___flsub@a
  2288  0653  0869               	movf	convert@a+3,w
  2289  0654  00B9               	movwf	___flsub@b+3
  2290  0655  0868               	movf	convert@a+2,w
  2291  0656  00B8               	movwf	___flsub@b+2
  2292  0657  0867               	movf	convert@a+1,w
  2293  0658  00B7               	movwf	___flsub@b+1
  2294  0659  0866               	movf	convert@a,w
  2295  065A  00B6               	movwf	___flsub@b
  2296  065B  120A  158A  2001  120A  118A  	fcall	___flsub
  2297  0660  1283               	bcf	3,5	;RP0=0, select bank0
  2298  0661  1303               	bcf	3,6	;RP1=0, select bank0
  2299  0662  0835               	movf	?___flsub+3,w
  2300  0663  00D3               	movwf	___flmul@a+3
  2301  0664  0834               	movf	?___flsub+2,w
  2302  0665  00D2               	movwf	___flmul@a+2
  2303  0666  0833               	movf	?___flsub+1,w
  2304  0667  00D1               	movwf	___flmul@a+1
  2305  0668  0832               	movf	?___flsub,w
  2306  0669  00D0               	movwf	___flmul@a
  2307  066A  120A  118A  209A  120A  118A  	fcall	___flmul
  2308  066F  1283               	bcf	3,5	;RP0=0, select bank0
  2309  0670  1303               	bcf	3,6	;RP1=0, select bank0
  2310  0671  084F               	movf	?___flmul+3,w
  2311  0672  1683               	bsf	3,5	;RP0=1, select bank1
  2312  0673  1303               	bcf	3,6	;RP1=0, select bank1
  2313  0674  00C4               	movwf	(convert@x+3)^(0+128)
  2314  0675  1283               	bcf	3,5	;RP0=0, select bank0
  2315  0676  1303               	bcf	3,6	;RP1=0, select bank0
  2316  0677  084E               	movf	?___flmul+2,w
  2317  0678  1683               	bsf	3,5	;RP0=1, select bank1
  2318  0679  1303               	bcf	3,6	;RP1=0, select bank1
  2319  067A  00C3               	movwf	(convert@x+2)^(0+128)
  2320  067B  1283               	bcf	3,5	;RP0=0, select bank0
  2321  067C  1303               	bcf	3,6	;RP1=0, select bank0
  2322  067D  084D               	movf	?___flmul+1,w
  2323  067E  1683               	bsf	3,5	;RP0=1, select bank1
  2324  067F  1303               	bcf	3,6	;RP1=0, select bank1
  2325  0680  00C2               	movwf	(convert@x+1)^(0+128)
  2326  0681  1283               	bcf	3,5	;RP0=0, select bank0
  2327  0682  1303               	bcf	3,6	;RP1=0, select bank0
  2328  0683  084C               	movf	?___flmul,w
  2329  0684  1683               	bsf	3,5	;RP0=1, select bank1
  2330  0685  1303               	bcf	3,6	;RP1=0, select bank1
  2331  0686  00C1               	movwf	convert@x^(0+128)
  2332  0687                     l2840:
  2333                           
  2334                           ;ADCL3.c: 53:      a=x;
  2335  0687  0844               	movf	(convert@x+3)^(0+128),w
  2336  0688  1283               	bcf	3,5	;RP0=0, select bank0
  2337  0689  1303               	bcf	3,6	;RP1=0, select bank0
  2338  068A  00E9               	movwf	convert@a+3
  2339  068B  1683               	bsf	3,5	;RP0=1, select bank1
  2340  068C  1303               	bcf	3,6	;RP1=0, select bank1
  2341  068D  0843               	movf	(convert@x+2)^(0+128),w
  2342  068E  1283               	bcf	3,5	;RP0=0, select bank0
  2343  068F  1303               	bcf	3,6	;RP1=0, select bank0
  2344  0690  00E8               	movwf	convert@a+2
  2345  0691  1683               	bsf	3,5	;RP0=1, select bank1
  2346  0692  1303               	bcf	3,6	;RP1=0, select bank1
  2347  0693  0842               	movf	(convert@x+1)^(0+128),w
  2348  0694  1283               	bcf	3,5	;RP0=0, select bank0
  2349  0695  1303               	bcf	3,6	;RP1=0, select bank0
  2350  0696  00E7               	movwf	convert@a+1
  2351  0697  1683               	bsf	3,5	;RP0=1, select bank1
  2352  0698  1303               	bcf	3,6	;RP1=0, select bank1
  2353  0699  0841               	movf	convert@x^(0+128),w
  2354  069A  1283               	bcf	3,5	;RP0=0, select bank0
  2355  069B  1303               	bcf	3,6	;RP1=0, select bank0
  2356  069C  00E6               	movwf	convert@a
  2357  069D                     l2842:
  2358  069D  0869               	movf	convert@a+3,w
  2359  069E  00F3               	movwf	___fltol@f1+3
  2360  069F  0868               	movf	convert@a+2,w
  2361  06A0  00F2               	movwf	___fltol@f1+2
  2362  06A1  0867               	movf	convert@a+1,w
  2363  06A2  00F1               	movwf	___fltol@f1+1
  2364  06A3  0866               	movf	convert@a,w
  2365  06A4  00F0               	movwf	___fltol@f1
  2366  06A5  120A  158A  2025  120A  118A  	fcall	___fltol
  2367  06AA                     l2844:
  2368  06AA                     l2846:
  2369                           
  2370                           ;ADCL3.c: 56:      mu=1;
  2371  06AA  3001               	movlw	1
  2372  06AB  1683               	bsf	3,5	;RP0=1, select bank1
  2373  06AC  1303               	bcf	3,6	;RP1=0, select bank1
  2374  06AD  00C9               	movwf	convert@mu^(0+128)
  2375  06AE  3000               	movlw	0
  2376  06AF  00CA               	movwf	(convert@mu^(0+128)+1)
  2377  06B0                     l2848:
  2378                           
  2379                           ;ADCL3.c: 57:      digits=place;
  2380  06B0  1283               	bcf	3,5	;RP0=0, select bank0
  2381  06B1  1303               	bcf	3,6	;RP1=0, select bank0
  2382  06B2  086B               	movf	convert@place+1,w
  2383  06B3  1683               	bsf	3,5	;RP0=1, select bank1
  2384  06B4  1303               	bcf	3,6	;RP1=0, select bank1
  2385  06B5  00C8               	movwf	(convert@digits+1)^(0+128)
  2386  06B6  1283               	bcf	3,5	;RP0=0, select bank0
  2387  06B7  1303               	bcf	3,6	;RP1=0, select bank0
  2388  06B8  086A               	movf	convert@place,w
  2389  06B9  1683               	bsf	3,5	;RP0=1, select bank1
  2390  06BA  1303               	bcf	3,6	;RP1=0, select bank1
  2391  06BB  00C7               	movwf	convert@digits^(0+128)
  2392                           
  2393                           ;ADCL3.c: 58:      while(digits!=0)
  2394  06BC  2FD8               	goto	l2872
  2395  06BD                     l2850:
  2396                           
  2397                           ;ADCL3.c: 59:      {;ADCL3.c: 60:          if(digits==1)mu=1;
  2398  06BD  0347               	decf	convert@digits^(0+128),w
  2399  06BE  0448               	iorwf	(convert@digits+1)^(0+128),w
  2400  06BF  1D03               	btfss	3,2
  2401  06C0  2EC2               	goto	u3581
  2402  06C1  2EC3               	goto	u3580
  2403  06C2                     u3581:
  2404  06C2  2EC8               	goto	l2854
  2405  06C3                     u3580:
  2406  06C3                     l2852:
  2407  06C3  3001               	movlw	1
  2408  06C4  00C9               	movwf	convert@mu^(0+128)
  2409  06C5  3000               	movlw	0
  2410  06C6  00CA               	movwf	(convert@mu^(0+128)+1)
  2411  06C7  2F0A               	goto	l2862
  2412  06C8                     l2854:
  2413  06C8  3002               	movlw	2
  2414  06C9  00BE               	movwf	convert@j^(0+128)
  2415  06CA  3000               	movlw	0
  2416  06CB  00BF               	movwf	(convert@j^(0+128)+1)
  2417  06CC  2EF4               	goto	l2860
  2418  06CD                     l2856:
  2419  06CD  1683               	bsf	3,5	;RP0=1, select bank1
  2420  06CE  1303               	bcf	3,6	;RP1=0, select bank1
  2421  06CF  084A               	movf	(convert@mu+1)^(0+128),w
  2422  06D0  1283               	bcf	3,5	;RP0=0, select bank0
  2423  06D1  1303               	bcf	3,6	;RP1=0, select bank0
  2424  06D2  00A1               	movwf	___wmul@multiplier+1
  2425  06D3  1683               	bsf	3,5	;RP0=1, select bank1
  2426  06D4  1303               	bcf	3,6	;RP1=0, select bank1
  2427  06D5  0849               	movf	convert@mu^(0+128),w
  2428  06D6  1283               	bcf	3,5	;RP0=0, select bank0
  2429  06D7  1303               	bcf	3,6	;RP1=0, select bank0
  2430  06D8  00A0               	movwf	___wmul@multiplier
  2431  06D9  300A               	movlw	10
  2432  06DA  00A2               	movwf	___wmul@multiplicand
  2433  06DB  3000               	movlw	0
  2434  06DC  00A3               	movwf	___wmul@multiplicand+1
  2435  06DD  160A  118A  269A  120A  118A  	fcall	___wmul
  2436  06E2  1283               	bcf	3,5	;RP0=0, select bank0
  2437  06E3  1303               	bcf	3,6	;RP1=0, select bank0
  2438  06E4  0821               	movf	?___wmul+1,w
  2439  06E5  1683               	bsf	3,5	;RP0=1, select bank1
  2440  06E6  1303               	bcf	3,6	;RP1=0, select bank1
  2441  06E7  00CA               	movwf	(convert@mu+1)^(0+128)
  2442  06E8  1283               	bcf	3,5	;RP0=0, select bank0
  2443  06E9  1303               	bcf	3,6	;RP1=0, select bank0
  2444  06EA  0820               	movf	?___wmul,w
  2445  06EB  1683               	bsf	3,5	;RP0=1, select bank1
  2446  06EC  1303               	bcf	3,6	;RP1=0, select bank1
  2447  06ED  00C9               	movwf	convert@mu^(0+128)
  2448  06EE                     l2858:
  2449  06EE  3001               	movlw	1
  2450  06EF  07BE               	addwf	convert@j^(0+128),f
  2451  06F0  1803               	skipnc
  2452  06F1  0ABF               	incf	(convert@j+1)^(0+128),f
  2453  06F2  3000               	movlw	0
  2454  06F3  07BF               	addwf	(convert@j+1)^(0+128),f
  2455  06F4                     l2860:
  2456  06F4  0848               	movf	(convert@digits+1)^(0+128),w
  2457  06F5  3A80               	xorlw	128
  2458  06F6  1283               	bcf	3,5	;RP0=0, select bank0
  2459  06F7  1303               	bcf	3,6	;RP1=0, select bank0
  2460  06F8  00EC               	movwf	??_convert
  2461  06F9  1683               	bsf	3,5	;RP0=1, select bank1
  2462  06FA  1303               	bcf	3,6	;RP1=0, select bank1
  2463  06FB  083F               	movf	(convert@j+1)^(0+128),w
  2464  06FC  3A80               	xorlw	128
  2465  06FD  1283               	bcf	3,5	;RP0=0, select bank0
  2466  06FE  1303               	bcf	3,6	;RP1=0, select bank0
  2467  06FF  026C               	subwf	??_convert,w
  2468  0700  1D03               	skipz
  2469  0701  2F06               	goto	u3595
  2470  0702  1683               	bsf	3,5	;RP0=1, select bank1
  2471  0703  1303               	bcf	3,6	;RP1=0, select bank1
  2472  0704  083E               	movf	convert@j^(0+128),w
  2473  0705  0247               	subwf	convert@digits^(0+128),w
  2474  0706                     u3595:
  2475  0706  1803               	skipnc
  2476  0707  2F09               	goto	u3591
  2477  0708  2F0A               	goto	u3590
  2478  0709                     u3591:
  2479  0709  2ECD               	goto	l2856
  2480  070A                     u3590:
  2481  070A                     l2862:
  2482                           
  2483                           ;ADCL3.c: 63:          x=a/mu;
  2484  070A  1683               	bsf	3,5	;RP0=1, select bank1
  2485  070B  1303               	bcf	3,6	;RP1=0, select bank1
  2486  070C  0849               	movf	convert@mu^(0+128),w
  2487  070D  1283               	bcf	3,5	;RP0=0, select bank0
  2488  070E  1303               	bcf	3,6	;RP1=0, select bank0
  2489  070F  00A4               	movwf	___xxtofl@val
  2490  0710  1683               	bsf	3,5	;RP0=1, select bank1
  2491  0711  1303               	bcf	3,6	;RP1=0, select bank1
  2492  0712  084A               	movf	(convert@mu+1)^(0+128),w
  2493  0713  1283               	bcf	3,5	;RP0=0, select bank0
  2494  0714  1303               	bcf	3,6	;RP1=0, select bank0
  2495  0715  00A5               	movwf	___xxtofl@val+1
  2496  0716  3000               	movlw	0
  2497  0717  1BA5               	btfsc	___xxtofl@val+1,7
  2498  0718  30FF               	movlw	255
  2499  0719  00A6               	movwf	___xxtofl@val+2
  2500  071A  00A7               	movwf	___xxtofl@val+3
  2501  071B  3001               	movlw	1
  2502  071C  120A  158A  2141  120A  118A  	fcall	___xxtofl
  2503  0721  1283               	bcf	3,5	;RP0=0, select bank0
  2504  0722  1303               	bcf	3,6	;RP1=0, select bank0
  2505  0723  0827               	movf	?___xxtofl+3,w
  2506  0724  00B5               	movwf	___fldiv@a+3
  2507  0725  0826               	movf	?___xxtofl+2,w
  2508  0726  00B4               	movwf	___fldiv@a+2
  2509  0727  0825               	movf	?___xxtofl+1,w
  2510  0728  00B3               	movwf	___fldiv@a+1
  2511  0729  0824               	movf	?___xxtofl,w
  2512  072A  00B2               	movwf	___fldiv@a
  2513  072B  0869               	movf	convert@a+3,w
  2514  072C  00B9               	movwf	___fldiv@b+3
  2515  072D  0868               	movf	convert@a+2,w
  2516  072E  00B8               	movwf	___fldiv@b+2
  2517  072F  0867               	movf	convert@a+1,w
  2518  0730  00B7               	movwf	___fldiv@b+1
  2519  0731  0866               	movf	convert@a,w
  2520  0732  00B6               	movwf	___fldiv@b
  2521  0733  120A  158A  238B  120A  118A  	fcall	___fldiv
  2522  0738  1283               	bcf	3,5	;RP0=0, select bank0
  2523  0739  1303               	bcf	3,6	;RP1=0, select bank0
  2524  073A  0835               	movf	?___fldiv+3,w
  2525  073B  1683               	bsf	3,5	;RP0=1, select bank1
  2526  073C  1303               	bcf	3,6	;RP1=0, select bank1
  2527  073D  00C4               	movwf	(convert@x+3)^(0+128)
  2528  073E  1283               	bcf	3,5	;RP0=0, select bank0
  2529  073F  1303               	bcf	3,6	;RP1=0, select bank0
  2530  0740  0834               	movf	?___fldiv+2,w
  2531  0741  1683               	bsf	3,5	;RP0=1, select bank1
  2532  0742  1303               	bcf	3,6	;RP1=0, select bank1
  2533  0743  00C3               	movwf	(convert@x+2)^(0+128)
  2534  0744  1283               	bcf	3,5	;RP0=0, select bank0
  2535  0745  1303               	bcf	3,6	;RP1=0, select bank0
  2536  0746  0833               	movf	?___fldiv+1,w
  2537  0747  1683               	bsf	3,5	;RP0=1, select bank1
  2538  0748  1303               	bcf	3,6	;RP1=0, select bank1
  2539  0749  00C2               	movwf	(convert@x+1)^(0+128)
  2540  074A  1283               	bcf	3,5	;RP0=0, select bank0
  2541  074B  1303               	bcf	3,6	;RP1=0, select bank0
  2542  074C  0832               	movf	?___fldiv,w
  2543  074D  1683               	bsf	3,5	;RP0=1, select bank1
  2544  074E  1303               	bcf	3,6	;RP1=0, select bank1
  2545  074F  00C1               	movwf	convert@x^(0+128)
  2546                           
  2547                           ;ADCL3.c: 64:          a=a-((int)x*mu);
  2548  0750  084A               	movf	(convert@mu+1)^(0+128),w
  2549  0751  1283               	bcf	3,5	;RP0=0, select bank0
  2550  0752  1303               	bcf	3,6	;RP1=0, select bank0
  2551  0753  00A3               	movwf	___wmul@multiplicand+1
  2552  0754  1683               	bsf	3,5	;RP0=1, select bank1
  2553  0755  1303               	bcf	3,6	;RP1=0, select bank1
  2554  0756  0849               	movf	convert@mu^(0+128),w
  2555  0757  1283               	bcf	3,5	;RP0=0, select bank0
  2556  0758  1303               	bcf	3,6	;RP1=0, select bank0
  2557  0759  00A2               	movwf	___wmul@multiplicand
  2558  075A  1683               	bsf	3,5	;RP0=1, select bank1
  2559  075B  1303               	bcf	3,6	;RP1=0, select bank1
  2560  075C  0844               	movf	(convert@x+3)^(0+128),w
  2561  075D  00F3               	movwf	___fltol@f1+3
  2562  075E  0843               	movf	(convert@x+2)^(0+128),w
  2563  075F  00F2               	movwf	___fltol@f1+2
  2564  0760  0842               	movf	(convert@x+1)^(0+128),w
  2565  0761  00F1               	movwf	___fltol@f1+1
  2566  0762  0841               	movf	convert@x^(0+128),w
  2567  0763  00F0               	movwf	___fltol@f1
  2568  0764  120A  158A  2025  120A  118A  	fcall	___fltol
  2569  0769  0871               	movf	?___fltol+1,w
  2570  076A  1283               	bcf	3,5	;RP0=0, select bank0
  2571  076B  1303               	bcf	3,6	;RP1=0, select bank0
  2572  076C  00A1               	movwf	___wmul@multiplier+1
  2573  076D  0870               	movf	?___fltol,w
  2574  076E  00A0               	movwf	___wmul@multiplier
  2575  076F  160A  118A  269A  120A  118A  	fcall	___wmul
  2576  0774  1283               	bcf	3,5	;RP0=0, select bank0
  2577  0775  1303               	bcf	3,6	;RP1=0, select bank0
  2578  0776  0820               	movf	?___wmul,w
  2579  0777  00A4               	movwf	___xxtofl@val
  2580  0778  0821               	movf	?___wmul+1,w
  2581  0779  00A5               	movwf	___xxtofl@val+1
  2582  077A  3000               	movlw	0
  2583  077B  1BA5               	btfsc	___xxtofl@val+1,7
  2584  077C  30FF               	movlw	255
  2585  077D  00A6               	movwf	___xxtofl@val+2
  2586  077E  00A7               	movwf	___xxtofl@val+3
  2587  077F  3001               	movlw	1
  2588  0780  120A  158A  2141  120A  118A  	fcall	___xxtofl
  2589  0785  1283               	bcf	3,5	;RP0=0, select bank0
  2590  0786  1303               	bcf	3,6	;RP1=0, select bank0
  2591  0787  0827               	movf	?___xxtofl+3,w
  2592  0788  00B5               	movwf	___flsub@a+3
  2593  0789  0826               	movf	?___xxtofl+2,w
  2594  078A  00B4               	movwf	___flsub@a+2
  2595  078B  0825               	movf	?___xxtofl+1,w
  2596  078C  00B3               	movwf	___flsub@a+1
  2597  078D  0824               	movf	?___xxtofl,w
  2598  078E  00B2               	movwf	___flsub@a
  2599  078F  0869               	movf	convert@a+3,w
  2600  0790  00B9               	movwf	___flsub@b+3
  2601  0791  0868               	movf	convert@a+2,w
  2602  0792  00B8               	movwf	___flsub@b+2
  2603  0793  0867               	movf	convert@a+1,w
  2604  0794  00B7               	movwf	___flsub@b+1
  2605  0795  0866               	movf	convert@a,w
  2606  0796  00B6               	movwf	___flsub@b
  2607  0797  120A  158A  2001  120A  118A  	fcall	___flsub
  2608  079C  1283               	bcf	3,5	;RP0=0, select bank0
  2609  079D  1303               	bcf	3,6	;RP1=0, select bank0
  2610  079E  0835               	movf	?___flsub+3,w
  2611  079F  00E9               	movwf	convert@a+3
  2612  07A0  0834               	movf	?___flsub+2,w
  2613  07A1  00E8               	movwf	convert@a+2
  2614  07A2  0833               	movf	?___flsub+1,w
  2615  07A3  00E7               	movwf	convert@a+1
  2616  07A4  0832               	movf	?___flsub,w
  2617  07A5  00E6               	movwf	convert@a
  2618  07A6                     l2864:
  2619                           
  2620                           ;ADCL3.c: 65:          data[i]=0x30+((int)x);
  2621  07A6  1683               	bsf	3,5	;RP0=1, select bank1
  2622  07A7  1303               	bcf	3,6	;RP1=0, select bank1
  2623  07A8  0844               	movf	(convert@x+3)^(0+128),w
  2624  07A9  00F3               	movwf	___fltol@f1+3
  2625  07AA  0843               	movf	(convert@x+2)^(0+128),w
  2626  07AB  00F2               	movwf	___fltol@f1+2
  2627  07AC  0842               	movf	(convert@x+1)^(0+128),w
  2628  07AD  00F1               	movwf	___fltol@f1+1
  2629  07AE  0841               	movf	convert@x^(0+128),w
  2630  07AF  00F0               	movwf	___fltol@f1
  2631  07B0  120A  158A  2025  120A  118A  	fcall	___fltol
  2632  07B5  0870               	movf	?___fltol,w
  2633  07B6  3E30               	addlw	48
  2634  07B7  1283               	bcf	3,5	;RP0=0, select bank0
  2635  07B8  1303               	bcf	3,6	;RP1=0, select bank0
  2636  07B9  00EC               	movwf	??_convert
  2637  07BA  1683               	bsf	3,5	;RP0=1, select bank1
  2638  07BB  1303               	bcf	3,6	;RP1=0, select bank1
  2639  07BC  0845               	movf	convert@i^(0+128),w
  2640  07BD  0740               	addwf	convert@data^(0+128),w
  2641  07BE  1283               	bcf	3,5	;RP0=0, select bank0
  2642  07BF  1303               	bcf	3,6	;RP1=0, select bank0
  2643  07C0  00ED               	movwf	??_convert+1
  2644  07C1  086D               	movf	??_convert+1,w
  2645  07C2  0084               	movwf	4
  2646  07C3  086C               	movf	??_convert,w
  2647  07C4  1383               	bcf	3,7	;select IRP bank0
  2648  07C5  0080               	movwf	0
  2649  07C6                     l2866:
  2650                           
  2651                           ;ADCL3.c: 66:          i++;
  2652  07C6  3001               	movlw	1
  2653  07C7  1683               	bsf	3,5	;RP0=1, select bank1
  2654  07C8  1303               	bcf	3,6	;RP1=0, select bank1
  2655  07C9  07C5               	addwf	convert@i^(0+128),f
  2656  07CA  1803               	skipnc
  2657  07CB  0AC6               	incf	(convert@i+1)^(0+128),f
  2658  07CC  3000               	movlw	0
  2659  07CD  07C6               	addwf	(convert@i+1)^(0+128),f
  2660  07CE                     l2868:
  2661                           
  2662                           ;ADCL3.c: 67:          digits--;
  2663  07CE  30FF               	movlw	255
  2664  07CF  07C7               	addwf	convert@digits^(0+128),f
  2665  07D0  1803               	skipnc
  2666  07D1  0AC8               	incf	(convert@digits+1)^(0+128),f
  2667  07D2  30FF               	movlw	255
  2668  07D3  07C8               	addwf	(convert@digits+1)^(0+128),f
  2669  07D4                     l2870:
  2670                           
  2671                           ;ADCL3.c: 68:          mu=1;
  2672  07D4  3001               	movlw	1
  2673  07D5  00C9               	movwf	convert@mu^(0+128)
  2674  07D6  3000               	movlw	0
  2675  07D7  00CA               	movwf	(convert@mu^(0+128)+1)
  2676  07D8                     l2872:
  2677                           
  2678                           ;ADCL3.c: 58:      while(digits!=0)
  2679  07D8  0847               	movf	convert@digits^(0+128),w
  2680  07D9  0448               	iorwf	(convert@digits+1)^(0+128),w
  2681  07DA  1D03               	btfss	3,2
  2682  07DB  2FDD               	goto	u3601
  2683  07DC  2FDE               	goto	u3600
  2684  07DD                     u3601:
  2685  07DD  2EBD               	goto	l2850
  2686  07DE                     u3600:
  2687  07DE                     l2874:
  2688                           
  2689                           ;ADCL3.c: 71:     data[i]='\n';
  2690  07DE  300A               	movlw	10
  2691  07DF  1283               	bcf	3,5	;RP0=0, select bank0
  2692  07E0  1303               	bcf	3,6	;RP1=0, select bank0
  2693  07E1  00EC               	movwf	??_convert
  2694  07E2  1683               	bsf	3,5	;RP0=1, select bank1
  2695  07E3  1303               	bcf	3,6	;RP1=0, select bank1
  2696  07E4  0845               	movf	convert@i^(0+128),w
  2697  07E5  0740               	addwf	convert@data^(0+128),w
  2698  07E6  1283               	bcf	3,5	;RP0=0, select bank0
  2699  07E7  1303               	bcf	3,6	;RP1=0, select bank0
  2700  07E8  00ED               	movwf	??_convert+1
  2701  07E9  086D               	movf	??_convert+1,w
  2702  07EA  0084               	movwf	4
  2703  07EB  086C               	movf	??_convert,w
  2704  07EC  1383               	bcf	3,7	;select IRP bank0
  2705  07ED  0080               	movwf	0
  2706  07EE                     l171:
  2707  07EE  0008               	return
  2708  07EF                     __end_of_convert:
  2709                           
  2710                           	psect	text5
  2711  0941                     __ptext5:	
  2712 ;; *************** function ___xxtofl *****************
  2713 ;; Defined at:
  2714 ;;		line 10 in file "C:\Program Files\Microchip\xc8\v2.32\pic\sources\c90\common\xxtofl.c"
  2715 ;; Parameters:    Size  Location     Type
  2716 ;;  sign            1    wreg     unsigned char 
  2717 ;;  val             4    4[BANK0 ] long 
  2718 ;; Auto vars:     Size  Location     Type
  2719 ;;  sign            1   12[BANK0 ] unsigned char 
  2720 ;;  arg             4   14[BANK0 ] unsigned long 
  2721 ;;  exp             1   13[BANK0 ] unsigned char 
  2722 ;; Return value:  Size  Location     Type
  2723 ;;                  4    4[BANK0 ] unsigned char 
  2724 ;; Registers used:
  2725 ;;		wreg, status,2, status,0
  2726 ;; Tracked objects:
  2727 ;;		On entry : 0/0
  2728 ;;		On exit  : 0/0
  2729 ;;		Unchanged: 0/0
  2730 ;; Data sizes:     COMMON   BANK0   BANK1   BANK3   BANK2
  2731 ;;      Params:         0       4       0       0       0
  2732 ;;      Locals:         0       6       0       0       0
  2733 ;;      Temps:          0       4       0       0       0
  2734 ;;      Totals:         0      14       0       0       0
  2735 ;;Total ram usage:       14 bytes
  2736 ;; Hardware stack levels used: 1
  2737 ;; This function calls:
  2738 ;;		Nothing
  2739 ;; This function is called by:
  2740 ;;		_main
  2741 ;;		_convert
  2742 ;; This function uses a non-reentrant model
  2743 ;;
  2744                           
  2745                           
  2746                           ;psect for function ___xxtofl
  2747  0941                     ___xxtofl:
  2748                           
  2749                           ;incstack = 0
  2750                           ; Regs used in ___xxtofl: [wreg+status,2+status,0]
  2751                           ;___xxtofl@sign stored from wreg
  2752  0941  1283               	bcf	3,5	;RP0=0, select bank0
  2753  0942  1303               	bcf	3,6	;RP1=0, select bank0
  2754  0943  00AC               	movwf	___xxtofl@sign
  2755  0944                     l2674:
  2756  0944  082C               	movf	___xxtofl@sign,w
  2757  0945  1903               	btfsc	3,2
  2758  0946  2948               	goto	u3381
  2759  0947  2949               	goto	u3380
  2760  0948                     u3381:
  2761  0948  295D               	goto	l2680
  2762  0949                     u3380:
  2763  0949                     l2676:
  2764  0949  1FA7               	btfss	___xxtofl@val+3,7
  2765  094A  294C               	goto	u3391
  2766  094B  294D               	goto	u3390
  2767  094C                     u3391:
  2768  094C  295D               	goto	l2680
  2769  094D                     u3390:
  2770  094D                     l2678:
  2771  094D  0924               	comf	___xxtofl@val,w
  2772  094E  00AE               	movwf	___xxtofl@arg
  2773  094F  0925               	comf	___xxtofl@val+1,w
  2774  0950  00AF               	movwf	___xxtofl@arg+1
  2775  0951  0926               	comf	___xxtofl@val+2,w
  2776  0952  00B0               	movwf	___xxtofl@arg+2
  2777  0953  0927               	comf	___xxtofl@val+3,w
  2778  0954  00B1               	movwf	___xxtofl@arg+3
  2779  0955  0AAE               	incf	___xxtofl@arg,f
  2780  0956  1903               	skipnz
  2781  0957  0AAF               	incf	___xxtofl@arg+1,f
  2782  0958  1903               	skipnz
  2783  0959  0AB0               	incf	___xxtofl@arg+2,f
  2784  095A  1903               	skipnz
  2785  095B  0AB1               	incf	___xxtofl@arg+3,f
  2786  095C  2965               	goto	l813
  2787  095D                     l2680:
  2788  095D  0827               	movf	___xxtofl@val+3,w
  2789  095E  00B1               	movwf	___xxtofl@arg+3
  2790  095F  0826               	movf	___xxtofl@val+2,w
  2791  0960  00B0               	movwf	___xxtofl@arg+2
  2792  0961  0825               	movf	___xxtofl@val+1,w
  2793  0962  00AF               	movwf	___xxtofl@arg+1
  2794  0963  0824               	movf	___xxtofl@val,w
  2795  0964  00AE               	movwf	___xxtofl@arg
  2796  0965                     l813:
  2797  0965  0827               	movf	___xxtofl@val+3,w
  2798  0966  0426               	iorwf	___xxtofl@val+2,w
  2799  0967  0425               	iorwf	___xxtofl@val+1,w
  2800  0968  0424               	iorwf	___xxtofl@val,w
  2801  0969  1D03               	skipz
  2802  096A  296C               	goto	u3401
  2803  096B  296D               	goto	u3400
  2804  096C                     u3401:
  2805  096C  2976               	goto	l2686
  2806  096D                     u3400:
  2807  096D                     l2682:
  2808  096D  3000               	movlw	0
  2809  096E  00A7               	movwf	?___xxtofl+3
  2810  096F  3000               	movlw	0
  2811  0970  00A6               	movwf	?___xxtofl+2
  2812  0971  3000               	movlw	0
  2813  0972  00A5               	movwf	?___xxtofl+1
  2814  0973  3000               	movlw	0
  2815  0974  00A4               	movwf	?___xxtofl
  2816  0975  29FC               	goto	l815
  2817  0976                     l2686:
  2818  0976  3096               	movlw	150
  2819  0977  00A8               	movwf	??___xxtofl
  2820  0978  0828               	movf	??___xxtofl,w
  2821  0979  00AD               	movwf	___xxtofl@exp
  2822  097A  2988               	goto	l2690
  2823  097B                     l2688:
  2824  097B  3001               	movlw	1
  2825  097C  00A8               	movwf	??___xxtofl
  2826  097D  0828               	movf	??___xxtofl,w
  2827  097E  07AD               	addwf	___xxtofl@exp,f
  2828  097F  3001               	movlw	1
  2829  0980                     u3415:
  2830  0980  1003               	clrc
  2831  0981  0CB1               	rrf	___xxtofl@arg+3,f
  2832  0982  0CB0               	rrf	___xxtofl@arg+2,f
  2833  0983  0CAF               	rrf	___xxtofl@arg+1,f
  2834  0984  0CAE               	rrf	___xxtofl@arg,f
  2835  0985  3EFF               	addlw	-1
  2836  0986  1D03               	skipz
  2837  0987  2980               	goto	u3415
  2838  0988                     l2690:
  2839  0988  30FE               	movlw	254
  2840  0989  0531               	andwf	___xxtofl@arg+3,w
  2841  098A  1D03               	btfss	3,2
  2842  098B  298D               	goto	u3421
  2843  098C  298E               	goto	u3420
  2844  098D                     u3421:
  2845  098D  297B               	goto	l2688
  2846  098E                     u3420:
  2847  098E  29AA               	goto	l819
  2848  098F                     l2692:
  2849  098F  3001               	movlw	1
  2850  0990  00A8               	movwf	??___xxtofl
  2851  0991  0828               	movf	??___xxtofl,w
  2852  0992  07AD               	addwf	___xxtofl@exp,f
  2853  0993                     l2694:
  2854  0993  3001               	movlw	1
  2855  0994  07AE               	addwf	___xxtofl@arg,f
  2856  0995  3000               	movlw	0
  2857  0996  1803               	skipnc
  2858  0997  3001               	movlw	1
  2859  0998  07AF               	addwf	___xxtofl@arg+1,f
  2860  0999  3000               	movlw	0
  2861  099A  1803               	skipnc
  2862  099B  3001               	movlw	1
  2863  099C  07B0               	addwf	___xxtofl@arg+2,f
  2864  099D  3000               	movlw	0
  2865  099E  1803               	skipnc
  2866  099F  3001               	movlw	1
  2867  09A0  07B1               	addwf	___xxtofl@arg+3,f
  2868  09A1                     l2696:
  2869  09A1  3001               	movlw	1
  2870  09A2                     u3435:
  2871  09A2  1003               	clrc
  2872  09A3  0CB1               	rrf	___xxtofl@arg+3,f
  2873  09A4  0CB0               	rrf	___xxtofl@arg+2,f
  2874  09A5  0CAF               	rrf	___xxtofl@arg+1,f
  2875  09A6  0CAE               	rrf	___xxtofl@arg,f
  2876  09A7  3EFF               	addlw	-1
  2877  09A8  1D03               	skipz
  2878  09A9  29A2               	goto	u3435
  2879  09AA                     l819:
  2880  09AA  30FF               	movlw	255
  2881  09AB  0531               	andwf	___xxtofl@arg+3,w
  2882  09AC  1D03               	btfss	3,2
  2883  09AD  29AF               	goto	u3441
  2884  09AE  29B0               	goto	u3440
  2885  09AF                     u3441:
  2886  09AF  298F               	goto	l2692
  2887  09B0                     u3440:
  2888  09B0  29BC               	goto	l2700
  2889  09B1                     l2698:
  2890  09B1  3001               	movlw	1
  2891  09B2  02AD               	subwf	___xxtofl@exp,f
  2892  09B3  3001               	movlw	1
  2893  09B4  00A8               	movwf	??___xxtofl
  2894  09B5                     u3455:
  2895  09B5  1003               	clrc
  2896  09B6  0DAE               	rlf	___xxtofl@arg,f
  2897  09B7  0DAF               	rlf	___xxtofl@arg+1,f
  2898  09B8  0DB0               	rlf	___xxtofl@arg+2,f
  2899  09B9  0DB1               	rlf	___xxtofl@arg+3,f
  2900  09BA  0BA8               	decfsz	??___xxtofl,f
  2901  09BB  29B5               	goto	u3455
  2902  09BC                     l2700:
  2903  09BC  1BB0               	btfsc	___xxtofl@arg+2,7
  2904  09BD  29BF               	goto	u3461
  2905  09BE  29C0               	goto	u3460
  2906  09BF                     u3461:
  2907  09BF  29C6               	goto	l826
  2908  09C0                     u3460:
  2909  09C0                     l2702:
  2910  09C0  3002               	movlw	2
  2911  09C1  022D               	subwf	___xxtofl@exp,w
  2912  09C2  1803               	skipnc
  2913  09C3  29C5               	goto	u3471
  2914  09C4  29C6               	goto	u3470
  2915  09C5                     u3471:
  2916  09C5  29B1               	goto	l2698
  2917  09C6                     u3470:
  2918  09C6                     l826:
  2919  09C6  182D               	btfsc	___xxtofl@exp,0
  2920  09C7  29C9               	goto	u3481
  2921  09C8  29CA               	goto	u3480
  2922  09C9                     u3481:
  2923  09C9  29D2               	goto	l827
  2924  09CA                     u3480:
  2925  09CA                     l2704:
  2926  09CA  30FF               	movlw	255
  2927  09CB  05AE               	andwf	___xxtofl@arg,f
  2928  09CC  30FF               	movlw	255
  2929  09CD  05AF               	andwf	___xxtofl@arg+1,f
  2930  09CE  307F               	movlw	127
  2931  09CF  05B0               	andwf	___xxtofl@arg+2,f
  2932  09D0  30FF               	movlw	255
  2933  09D1  05B1               	andwf	___xxtofl@arg+3,f
  2934  09D2                     l827:
  2935  09D2  1003               	clrc
  2936  09D3  0CAD               	rrf	___xxtofl@exp,f
  2937  09D4                     l2706:
  2938  09D4  082D               	movf	___xxtofl@exp,w
  2939  09D5  00A8               	movwf	??___xxtofl
  2940  09D6  01A9               	clrf	??___xxtofl+1
  2941  09D7  01AA               	clrf	??___xxtofl+2
  2942  09D8  01AB               	clrf	??___xxtofl+3
  2943  09D9  3018               	movlw	24
  2944  09DA                     u3495:
  2945  09DA  1003               	clrc
  2946  09DB  0DA8               	rlf	??___xxtofl,f
  2947  09DC  0DA9               	rlf	??___xxtofl+1,f
  2948  09DD  0DAA               	rlf	??___xxtofl+2,f
  2949  09DE  0DAB               	rlf	??___xxtofl+3,f
  2950  09DF                     u3490:
  2951  09DF  3EFF               	addlw	-1
  2952  09E0  1D03               	skipz
  2953  09E1  29DA               	goto	u3495
  2954  09E2  0828               	movf	??___xxtofl,w
  2955  09E3  04AE               	iorwf	___xxtofl@arg,f
  2956  09E4  0829               	movf	??___xxtofl+1,w
  2957  09E5  04AF               	iorwf	___xxtofl@arg+1,f
  2958  09E6  082A               	movf	??___xxtofl+2,w
  2959  09E7  04B0               	iorwf	___xxtofl@arg+2,f
  2960  09E8  082B               	movf	??___xxtofl+3,w
  2961  09E9  04B1               	iorwf	___xxtofl@arg+3,f
  2962  09EA                     l2708:
  2963  09EA  082C               	movf	___xxtofl@sign,w
  2964  09EB  1903               	btfsc	3,2
  2965  09EC  29EE               	goto	u3501
  2966  09ED  29EF               	goto	u3500
  2967  09EE                     u3501:
  2968  09EE  29F4               	goto	l2714
  2969  09EF                     u3500:
  2970  09EF                     l2710:
  2971  09EF  1FA7               	btfss	___xxtofl@val+3,7
  2972  09F0  29F2               	goto	u3511
  2973  09F1  29F3               	goto	u3510
  2974  09F2                     u3511:
  2975  09F2  29F4               	goto	l2714
  2976  09F3                     u3510:
  2977  09F3                     l2712:
  2978  09F3  17B1               	bsf	___xxtofl@arg+3,7
  2979  09F4                     l2714:
  2980  09F4  0831               	movf	___xxtofl@arg+3,w
  2981  09F5  00A7               	movwf	?___xxtofl+3
  2982  09F6  0830               	movf	___xxtofl@arg+2,w
  2983  09F7  00A6               	movwf	?___xxtofl+2
  2984  09F8  082F               	movf	___xxtofl@arg+1,w
  2985  09F9  00A5               	movwf	?___xxtofl+1
  2986  09FA  082E               	movf	___xxtofl@arg,w
  2987  09FB  00A4               	movwf	?___xxtofl
  2988  09FC                     l815:
  2989  09FC  0008               	return
  2990  09FD                     __end_of___xxtofl:
  2991                           
  2992                           	psect	text6
  2993  169A                     __ptext6:	
  2994 ;; *************** function ___wmul *****************
  2995 ;; Defined at:
  2996 ;;		line 15 in file "C:\Program Files\Microchip\xc8\v2.32\pic\sources\c90\common\Umul16.c"
  2997 ;; Parameters:    Size  Location     Type
  2998 ;;  multiplier      2    0[BANK0 ] unsigned int 
  2999 ;;  multiplicand    2    2[BANK0 ] unsigned int 
  3000 ;; Auto vars:     Size  Location     Type
  3001 ;;  product         2   11[COMMON] unsigned int 
  3002 ;; Return value:  Size  Location     Type
  3003 ;;                  2    0[BANK0 ] unsigned int 
  3004 ;; Registers used:
  3005 ;;		wreg, status,2, status,0
  3006 ;; Tracked objects:
  3007 ;;		On entry : 0/0
  3008 ;;		On exit  : 0/0
  3009 ;;		Unchanged: 0/0
  3010 ;; Data sizes:     COMMON   BANK0   BANK1   BANK3   BANK2
  3011 ;;      Params:         0       4       0       0       0
  3012 ;;      Locals:         2       0       0       0       0
  3013 ;;      Temps:          0       0       0       0       0
  3014 ;;      Totals:         2       4       0       0       0
  3015 ;;Total ram usage:        6 bytes
  3016 ;; Hardware stack levels used: 1
  3017 ;; This function calls:
  3018 ;;		Nothing
  3019 ;; This function is called by:
  3020 ;;		_convert
  3021 ;; This function uses a non-reentrant model
  3022 ;;
  3023                           
  3024                           
  3025                           ;psect for function ___wmul
  3026  169A                     ___wmul:
  3027  169A                     l2272:	
  3028                           ;incstack = 0
  3029                           ; Regs used in ___wmul: [wreg+status,2+status,0]
  3030                           
  3031  169A  01FB               	clrf	___wmul@product
  3032  169B  01FC               	clrf	___wmul@product+1
  3033  169C                     l2274:
  3034  169C  1283               	bcf	3,5	;RP0=0, select bank0
  3035  169D  1303               	bcf	3,6	;RP1=0, select bank0
  3036  169E  1C20               	btfss	___wmul@multiplier,0
  3037  169F  2EA1               	goto	u2411
  3038  16A0  2EA2               	goto	u2410
  3039  16A1                     u2411:
  3040  16A1  2EA8               	goto	l380
  3041  16A2                     u2410:
  3042  16A2                     l2276:
  3043  16A2  0822               	movf	___wmul@multiplicand,w
  3044  16A3  07FB               	addwf	___wmul@product,f
  3045  16A4  1803               	skipnc
  3046  16A5  0AFC               	incf	___wmul@product+1,f
  3047  16A6  0823               	movf	___wmul@multiplicand+1,w
  3048  16A7  07FC               	addwf	___wmul@product+1,f
  3049  16A8                     l380:
  3050  16A8  3001               	movlw	1
  3051  16A9                     u2425:
  3052  16A9  1003               	clrc
  3053  16AA  0DA2               	rlf	___wmul@multiplicand,f
  3054  16AB  0DA3               	rlf	___wmul@multiplicand+1,f
  3055  16AC  3EFF               	addlw	-1
  3056  16AD  1D03               	skipz
  3057  16AE  2EA9               	goto	u2425
  3058  16AF                     l2278:
  3059  16AF  3001               	movlw	1
  3060  16B0                     u2435:
  3061  16B0  1003               	clrc
  3062  16B1  0CA1               	rrf	___wmul@multiplier+1,f
  3063  16B2  0CA0               	rrf	___wmul@multiplier,f
  3064  16B3  3EFF               	addlw	-1
  3065  16B4  1D03               	skipz
  3066  16B5  2EB0               	goto	u2435
  3067  16B6                     l2280:
  3068  16B6  0820               	movf	___wmul@multiplier,w
  3069  16B7  0421               	iorwf	___wmul@multiplier+1,w
  3070  16B8  1D03               	btfss	3,2
  3071  16B9  2EBB               	goto	u2441
  3072  16BA  2EBC               	goto	u2440
  3073  16BB                     u2441:
  3074  16BB  2E9C               	goto	l2274
  3075  16BC                     u2440:
  3076  16BC                     l2282:
  3077  16BC  087C               	movf	___wmul@product+1,w
  3078  16BD  00A1               	movwf	?___wmul+1
  3079  16BE  087B               	movf	___wmul@product,w
  3080  16BF  00A0               	movwf	?___wmul
  3081  16C0                     l382:
  3082  16C0  0008               	return
  3083  16C1                     __end_of___wmul:
  3084                           
  3085                           	psect	text7
  3086  0825                     __ptext7:	
  3087 ;; *************** function ___fltol *****************
  3088 ;; Defined at:
  3089 ;;		line 43 in file "C:\Program Files\Microchip\xc8\v2.32\pic\sources\c90\common\fltol.c"
  3090 ;; Parameters:    Size  Location     Type
  3091 ;;  f1              4    0[COMMON] unsigned int 
  3092 ;; Auto vars:     Size  Location     Type
  3093 ;;  exp1            1   10[COMMON] unsigned char 
  3094 ;;  sign1           1    9[COMMON] unsigned char 
  3095 ;; Return value:  Size  Location     Type
  3096 ;;                  4    0[COMMON] long 
  3097 ;; Registers used:
  3098 ;;		wreg, status,2, status,0
  3099 ;; Tracked objects:
  3100 ;;		On entry : 0/0
  3101 ;;		On exit  : 0/0
  3102 ;;		Unchanged: 0/0
  3103 ;; Data sizes:     COMMON   BANK0   BANK1   BANK3   BANK2
  3104 ;;      Params:         4       0       0       0       0
  3105 ;;      Locals:         2       0       0       0       0
  3106 ;;      Temps:          5       0       0       0       0
  3107 ;;      Totals:        11       0       0       0       0
  3108 ;;Total ram usage:       11 bytes
  3109 ;; Hardware stack levels used: 1
  3110 ;; This function calls:
  3111 ;;		Nothing
  3112 ;; This function is called by:
  3113 ;;		_convert
  3114 ;; This function uses a non-reentrant model
  3115 ;;
  3116                           
  3117                           
  3118                           ;psect for function ___fltol
  3119  0825                     ___fltol:
  3120  0825                     l2350:	
  3121                           ;incstack = 0
  3122                           ; Regs used in ___fltol: [wreg+status,2+status,0]
  3123                           
  3124  0825  1003               	clrc
  3125  0826  0D72               	rlf	___fltol@f1+2,w
  3126  0827  0D73               	rlf	___fltol@f1+3,w
  3127  0828  00F4               	movwf	??___fltol
  3128  0829  0874               	movf	??___fltol,w
  3129  082A  00FA               	movwf	___fltol@exp1
  3130  082B  087A               	movf	___fltol@exp1,w
  3131  082C  1D03               	btfss	3,2
  3132  082D  282F               	goto	u2621
  3133  082E  2830               	goto	u2620
  3134  082F                     u2621:
  3135  082F  2839               	goto	l2356
  3136  0830                     u2620:
  3137  0830                     l2352:
  3138  0830  3000               	movlw	0
  3139  0831  00F3               	movwf	?___fltol+3
  3140  0832  3000               	movlw	0
  3141  0833  00F2               	movwf	?___fltol+2
  3142  0834  3000               	movlw	0
  3143  0835  00F1               	movwf	?___fltol+1
  3144  0836  3000               	movlw	0
  3145  0837  00F0               	movwf	?___fltol
  3146  0838  289E               	goto	l566
  3147  0839                     l2356:
  3148  0839  0870               	movf	___fltol@f1,w
  3149  083A  00F4               	movwf	??___fltol
  3150  083B  0871               	movf	___fltol@f1+1,w
  3151  083C  00F5               	movwf	??___fltol+1
  3152  083D  0872               	movf	___fltol@f1+2,w
  3153  083E  00F6               	movwf	??___fltol+2
  3154  083F  0873               	movf	___fltol@f1+3,w
  3155  0840  00F7               	movwf	??___fltol+3
  3156  0841  301F               	movlw	31
  3157  0842                     u2635:
  3158  0842  1003               	clrc
  3159  0843  0CF7               	rrf	??___fltol+3,f
  3160  0844  0CF6               	rrf	??___fltol+2,f
  3161  0845  0CF5               	rrf	??___fltol+1,f
  3162  0846  0CF4               	rrf	??___fltol,f
  3163  0847                     u2630:
  3164  0847  3EFF               	addlw	-1
  3165  0848  1D03               	skipz
  3166  0849  2842               	goto	u2635
  3167  084A  0874               	movf	??___fltol,w
  3168  084B  00F8               	movwf	??___fltol+4
  3169  084C  0878               	movf	??___fltol+4,w
  3170  084D  00F9               	movwf	___fltol@sign1
  3171  084E                     l2358:
  3172  084E  17F2               	bsf	___fltol@f1+2,7
  3173  084F                     l2360:
  3174  084F  30FF               	movlw	255
  3175  0850  05F0               	andwf	___fltol@f1,f
  3176  0851  30FF               	movlw	255
  3177  0852  05F1               	andwf	___fltol@f1+1,f
  3178  0853  30FF               	movlw	255
  3179  0854  05F2               	andwf	___fltol@f1+2,f
  3180  0855  3000               	movlw	0
  3181  0856  05F3               	andwf	___fltol@f1+3,f
  3182  0857                     l2362:
  3183  0857  3096               	movlw	150
  3184  0858  02FA               	subwf	___fltol@exp1,f
  3185  0859                     l2364:
  3186  0859  1FFA               	btfss	___fltol@exp1,7
  3187  085A  285C               	goto	u2641
  3188  085B  285D               	goto	u2640
  3189  085C                     u2641:
  3190  085C  2877               	goto	l2374
  3191  085D                     u2640:
  3192  085D                     l2366:
  3193  085D  087A               	movf	___fltol@exp1,w
  3194  085E  3A80               	xorlw	128
  3195  085F  3E97               	addlw	151
  3196  0860  1803               	skipnc
  3197  0861  2863               	goto	u2651
  3198  0862  2864               	goto	u2650
  3199  0863                     u2651:
  3200  0863  2865               	goto	l2372
  3201  0864                     u2650:
  3202  0864  2830               	goto	l2352
  3203  0865                     l2372:
  3204  0865  3001               	movlw	1
  3205  0866                     u2665:
  3206  0866  1003               	clrc
  3207  0867  0CF3               	rrf	___fltol@f1+3,f
  3208  0868  0CF2               	rrf	___fltol@f1+2,f
  3209  0869  0CF1               	rrf	___fltol@f1+1,f
  3210  086A  0CF0               	rrf	___fltol@f1,f
  3211  086B  3EFF               	addlw	-1
  3212  086C  1D03               	skipz
  3213  086D  2866               	goto	u2665
  3214  086E  3001               	movlw	1
  3215  086F  00F4               	movwf	??___fltol
  3216  0870  0874               	movf	??___fltol,w
  3217  0871  07FA               	addwf	___fltol@exp1,f
  3218  0872  1D03               	btfss	3,2
  3219  0873  2875               	goto	u2671
  3220  0874  2876               	goto	u2670
  3221  0875                     u2671:
  3222  0875  2865               	goto	l2372
  3223  0876                     u2670:
  3224  0876  288E               	goto	l2382
  3225  0877                     l2374:
  3226  0877  3020               	movlw	32
  3227  0878  027A               	subwf	___fltol@exp1,w
  3228  0879  1C03               	skipc
  3229  087A  287C               	goto	u2681
  3230  087B  287D               	goto	u2680
  3231  087C                     u2681:
  3232  087C  2889               	goto	l573
  3233  087D                     u2680:
  3234  087D  2830               	goto	l2352
  3235  087E                     l2380:
  3236  087E  3001               	movlw	1
  3237  087F  00F4               	movwf	??___fltol
  3238  0880                     u2695:
  3239  0880  1003               	clrc
  3240  0881  0DF0               	rlf	___fltol@f1,f
  3241  0882  0DF1               	rlf	___fltol@f1+1,f
  3242  0883  0DF2               	rlf	___fltol@f1+2,f
  3243  0884  0DF3               	rlf	___fltol@f1+3,f
  3244  0885  0BF4               	decfsz	??___fltol,f
  3245  0886  2880               	goto	u2695
  3246  0887  3001               	movlw	1
  3247  0888  02FA               	subwf	___fltol@exp1,f
  3248  0889                     l573:
  3249  0889  087A               	movf	___fltol@exp1,w
  3250  088A  1D03               	btfss	3,2
  3251  088B  288D               	goto	u2701
  3252  088C  288E               	goto	u2700
  3253  088D                     u2701:
  3254  088D  287E               	goto	l2380
  3255  088E                     u2700:
  3256  088E                     l2382:
  3257  088E  0879               	movf	___fltol@sign1,w
  3258  088F  1903               	btfsc	3,2
  3259  0890  2892               	goto	u2711
  3260  0891  2893               	goto	u2710
  3261  0892                     u2711:
  3262  0892  289E               	goto	l576
  3263  0893                     u2710:
  3264  0893                     l2384:
  3265  0893  09F0               	comf	___fltol@f1,f
  3266  0894  09F1               	comf	___fltol@f1+1,f
  3267  0895  09F2               	comf	___fltol@f1+2,f
  3268  0896  09F3               	comf	___fltol@f1+3,f
  3269  0897  0AF0               	incf	___fltol@f1,f
  3270  0898  1903               	skipnz
  3271  0899  0AF1               	incf	___fltol@f1+1,f
  3272  089A  1903               	skipnz
  3273  089B  0AF2               	incf	___fltol@f1+2,f
  3274  089C  1903               	skipnz
  3275  089D  0AF3               	incf	___fltol@f1+3,f
  3276  089E                     l576:
  3277  089E                     l566:
  3278  089E  0008               	return
  3279  089F                     __end_of___fltol:
  3280                           
  3281                           	psect	text8
  3282  0801                     __ptext8:	
  3283 ;; *************** function ___flsub *****************
  3284 ;; Defined at:
  3285 ;;		line 242 in file "C:\Program Files\Microchip\xc8\v2.32\pic\sources\c90\common\sprcadd.c"
  3286 ;; Parameters:    Size  Location     Type
  3287 ;;  a               4   18[BANK0 ] long 
  3288 ;;  b               4   22[BANK0 ] long 
  3289 ;; Auto vars:     Size  Location     Type
  3290 ;;		None
  3291 ;; Return value:  Size  Location     Type
  3292 ;;                  4   18[BANK0 ] long 
  3293 ;; Registers used:
  3294 ;;		wreg, status,2, status,0, btemp+1, pclath, cstack
  3295 ;; Tracked objects:
  3296 ;;		On entry : 0/0
  3297 ;;		On exit  : 0/0
  3298 ;;		Unchanged: 0/0
  3299 ;; Data sizes:     COMMON   BANK0   BANK1   BANK3   BANK2
  3300 ;;      Params:         0       8       0       0       0
  3301 ;;      Locals:         0       0       0       0       0
  3302 ;;      Temps:          0       0       0       0       0
  3303 ;;      Totals:         0       8       0       0       0
  3304 ;;Total ram usage:        8 bytes
  3305 ;; Hardware stack levels used: 1
  3306 ;; Hardware stack levels required when called: 1
  3307 ;; This function calls:
  3308 ;;		___fladd
  3309 ;; This function is called by:
  3310 ;;		_convert
  3311 ;; This function uses a non-reentrant model
  3312 ;;
  3313                           
  3314                           
  3315                           ;psect for function ___flsub
  3316  0801                     ___flsub:
  3317  0801                     l2386:	
  3318                           ;incstack = 0
  3319                           ; Regs used in ___flsub: [wreg+status,2+status,0+btemp+1+pclath+cstack]
  3320                           
  3321  0801  3080               	movlw	128
  3322  0802  1283               	bcf	3,5	;RP0=0, select bank0
  3323  0803  1303               	bcf	3,6	;RP1=0, select bank0
  3324  0804  06B5               	xorwf	___flsub@a+3,f
  3325  0805                     l2388:
  3326  0805  0839               	movf	___flsub@b+3,w
  3327  0806  00F3               	movwf	___fladd@b+3
  3328  0807  0838               	movf	___flsub@b+2,w
  3329  0808  00F2               	movwf	___fladd@b+2
  3330  0809  0837               	movf	___flsub@b+1,w
  3331  080A  00F1               	movwf	___fladd@b+1
  3332  080B  0836               	movf	___flsub@b,w
  3333  080C  00F0               	movwf	___fladd@b
  3334  080D  0835               	movf	___flsub@a+3,w
  3335  080E  00F7               	movwf	___fladd@a+3
  3336  080F  0834               	movf	___flsub@a+2,w
  3337  0810  00F6               	movwf	___fladd@a+2
  3338  0811  0833               	movf	___flsub@a+1,w
  3339  0812  00F5               	movwf	___fladd@a+1
  3340  0813  0832               	movf	___flsub@a,w
  3341  0814  00F4               	movwf	___fladd@a
  3342  0815  120A  158A  2568  120A  158A  	fcall	___fladd
  3343  081A  0873               	movf	?___fladd+3,w
  3344  081B  1283               	bcf	3,5	;RP0=0, select bank0
  3345  081C  1303               	bcf	3,6	;RP1=0, select bank0
  3346  081D  00B5               	movwf	?___flsub+3
  3347  081E  0872               	movf	?___fladd+2,w
  3348  081F  00B4               	movwf	?___flsub+2
  3349  0820  0871               	movf	?___fladd+1,w
  3350  0821  00B3               	movwf	?___flsub+1
  3351  0822  0870               	movf	?___fladd,w
  3352  0823  00B2               	movwf	?___flsub
  3353  0824                     l719:
  3354  0824  0008               	return
  3355  0825                     __end_of___flsub:
  3356                           
  3357                           	psect	text9
  3358  0D68                     __ptext9:	
  3359 ;; *************** function ___fladd *****************
  3360 ;; Defined at:
  3361 ;;		line 10 in file "C:\Program Files\Microchip\xc8\v2.32\pic\sources\c90\common\sprcadd.c"
  3362 ;; Parameters:    Size  Location     Type
  3363 ;;  b               4    0[COMMON] long 
  3364 ;;  a               4    4[COMMON] long 
  3365 ;; Auto vars:     Size  Location     Type
  3366 ;;  grs             1   11[COMMON] unsigned char 
  3367 ;;  bexp            1   10[COMMON] unsigned char 
  3368 ;;  aexp            1    9[COMMON] unsigned char 
  3369 ;;  signs           1    8[COMMON] unsigned char 
  3370 ;; Return value:  Size  Location     Type
  3371 ;;                  4    0[COMMON] unsigned char 
  3372 ;; Registers used:
  3373 ;;		wreg, status,2, status,0, btemp+1
  3374 ;; Tracked objects:
  3375 ;;		On entry : 0/0
  3376 ;;		On exit  : 0/0
  3377 ;;		Unchanged: 0/0
  3378 ;; Data sizes:     COMMON   BANK0   BANK1   BANK3   BANK2
  3379 ;;      Params:         8       0       0       0       0
  3380 ;;      Locals:         4       0       0       0       0
  3381 ;;      Temps:          0       8       0       0       0
  3382 ;;      Totals:        12       8       0       0       0
  3383 ;;Total ram usage:       20 bytes
  3384 ;; Hardware stack levels used: 1
  3385 ;; This function calls:
  3386 ;;		Nothing
  3387 ;; This function is called by:
  3388 ;;		___flsub
  3389 ;; This function uses a non-reentrant model
  3390 ;;
  3391                           
  3392                           
  3393                           ;psect for function ___fladd
  3394  0D68                     ___fladd:
  3395  0D68                     l2004:	
  3396                           ;incstack = 0
  3397                           ; Regs used in ___fladd: [wreg+status,2+status,0+btemp+1]
  3398                           
  3399  0D68  0873               	movf	___fladd@b+3,w
  3400  0D69  3980               	andlw	128
  3401  0D6A  1283               	bcf	3,5	;RP0=0, select bank0
  3402  0D6B  1303               	bcf	3,6	;RP1=0, select bank0
  3403  0D6C  00A0               	movwf	??___fladd
  3404  0D6D  0820               	movf	??___fladd,w
  3405  0D6E  00F8               	movwf	___fladd@signs
  3406  0D6F                     l2006:
  3407  0D6F  0873               	movf	___fladd@b+3,w
  3408  0D70  00A0               	movwf	??___fladd
  3409  0D71  0720               	addwf	??___fladd,w
  3410  0D72  00A1               	movwf	??___fladd+1
  3411  0D73  0821               	movf	??___fladd+1,w
  3412  0D74  00FA               	movwf	___fladd@bexp
  3413  0D75                     l2008:
  3414  0D75  1FF2               	btfss	___fladd@b+2,7
  3415  0D76  2D78               	goto	u1881
  3416  0D77  2D79               	goto	u1880
  3417  0D78                     u1881:
  3418  0D78  2D7A               	goto	l2012
  3419  0D79                     u1880:
  3420  0D79                     l2010:
  3421  0D79  147A               	bsf	___fladd@bexp,0
  3422  0D7A                     l2012:
  3423  0D7A  087A               	movf	___fladd@bexp,w
  3424  0D7B  1903               	btfsc	3,2
  3425  0D7C  2D7E               	goto	u1891
  3426  0D7D  2D7F               	goto	u1890
  3427  0D7E                     u1891:
  3428  0D7E  2D8F               	goto	l2022
  3429  0D7F                     u1890:
  3430  0D7F                     l2014:
  3431  0D7F  0A7A               	incf	___fladd@bexp,w
  3432  0D80  1D03               	btfss	3,2
  3433  0D81  2D83               	goto	u1901
  3434  0D82  2D84               	goto	u1900
  3435  0D83                     u1901:
  3436  0D83  2D8C               	goto	l2018
  3437  0D84                     u1900:
  3438  0D84                     l2016:
  3439  0D84  3000               	movlw	0
  3440  0D85  00F3               	movwf	___fladd@b+3
  3441  0D86  3000               	movlw	0
  3442  0D87  00F2               	movwf	___fladd@b+2
  3443  0D88  3000               	movlw	0
  3444  0D89  00F1               	movwf	___fladd@b+1
  3445  0D8A  3000               	movlw	0
  3446  0D8B  00F0               	movwf	___fladd@b
  3447  0D8C                     l2018:
  3448  0D8C  17F2               	bsf	___fladd@b+2,7
  3449  0D8D                     l2020:
  3450  0D8D  01F3               	clrf	___fladd@b+3
  3451  0D8E  2D97               	goto	l2024
  3452  0D8F                     l2022:
  3453  0D8F  3000               	movlw	0
  3454  0D90  00F3               	movwf	___fladd@b+3
  3455  0D91  3000               	movlw	0
  3456  0D92  00F2               	movwf	___fladd@b+2
  3457  0D93  3000               	movlw	0
  3458  0D94  00F1               	movwf	___fladd@b+1
  3459  0D95  3000               	movlw	0
  3460  0D96  00F0               	movwf	___fladd@b
  3461  0D97                     l2024:
  3462  0D97  0877               	movf	___fladd@a+3,w
  3463  0D98  3980               	andlw	128
  3464  0D99  00A0               	movwf	??___fladd
  3465  0D9A  0820               	movf	??___fladd,w
  3466  0D9B  00F9               	movwf	___fladd@aexp
  3467  0D9C                     l2026:
  3468  0D9C  0879               	movf	___fladd@aexp,w
  3469  0D9D  0678               	xorwf	___fladd@signs,w
  3470  0D9E  1903               	skipnz
  3471  0D9F  2DA1               	goto	u1911
  3472  0DA0  2DA2               	goto	u1910
  3473  0DA1                     u1911:
  3474  0DA1  2DA3               	goto	l2030
  3475  0DA2                     u1910:
  3476  0DA2                     l2028:
  3477  0DA2  1778               	bsf	___fladd@signs,6
  3478  0DA3                     l2030:
  3479  0DA3  0877               	movf	___fladd@a+3,w
  3480  0DA4  00A0               	movwf	??___fladd
  3481  0DA5  0720               	addwf	??___fladd,w
  3482  0DA6  00A1               	movwf	??___fladd+1
  3483  0DA7  0821               	movf	??___fladd+1,w
  3484  0DA8  00F9               	movwf	___fladd@aexp
  3485  0DA9                     l2032:
  3486  0DA9  1FF6               	btfss	___fladd@a+2,7
  3487  0DAA  2DAC               	goto	u1921
  3488  0DAB  2DAD               	goto	u1920
  3489  0DAC                     u1921:
  3490  0DAC  2DAE               	goto	l2036
  3491  0DAD                     u1920:
  3492  0DAD                     l2034:
  3493  0DAD  1479               	bsf	___fladd@aexp,0
  3494  0DAE                     l2036:
  3495  0DAE  0879               	movf	___fladd@aexp,w
  3496  0DAF  1903               	btfsc	3,2
  3497  0DB0  2DB2               	goto	u1931
  3498  0DB1  2DB3               	goto	u1930
  3499  0DB2                     u1931:
  3500  0DB2  2DC3               	goto	l2046
  3501  0DB3                     u1930:
  3502  0DB3                     l2038:
  3503  0DB3  0A79               	incf	___fladd@aexp,w
  3504  0DB4  1D03               	btfss	3,2
  3505  0DB5  2DB7               	goto	u1941
  3506  0DB6  2DB8               	goto	u1940
  3507  0DB7                     u1941:
  3508  0DB7  2DC0               	goto	l2042
  3509  0DB8                     u1940:
  3510  0DB8                     l2040:
  3511  0DB8  3000               	movlw	0
  3512  0DB9  00F7               	movwf	___fladd@a+3
  3513  0DBA  3000               	movlw	0
  3514  0DBB  00F6               	movwf	___fladd@a+2
  3515  0DBC  3000               	movlw	0
  3516  0DBD  00F5               	movwf	___fladd@a+1
  3517  0DBE  3000               	movlw	0
  3518  0DBF  00F4               	movwf	___fladd@a
  3519  0DC0                     l2042:
  3520  0DC0  17F6               	bsf	___fladd@a+2,7
  3521  0DC1                     l2044:
  3522  0DC1  01F7               	clrf	___fladd@a+3
  3523  0DC2  2DCB               	goto	l673
  3524  0DC3                     l2046:
  3525  0DC3  3000               	movlw	0
  3526  0DC4  00F7               	movwf	___fladd@a+3
  3527  0DC5  3000               	movlw	0
  3528  0DC6  00F6               	movwf	___fladd@a+2
  3529  0DC7  3000               	movlw	0
  3530  0DC8  00F5               	movwf	___fladd@a+1
  3531  0DC9  3000               	movlw	0
  3532  0DCA  00F4               	movwf	___fladd@a
  3533  0DCB                     l673:
  3534  0DCB  087A               	movf	___fladd@bexp,w
  3535  0DCC  0279               	subwf	___fladd@aexp,w
  3536  0DCD  1803               	skipnc
  3537  0DCE  2DD0               	goto	u1951
  3538  0DCF  2DD1               	goto	u1950
  3539  0DD0                     u1951:
  3540  0DD0  2E15               	goto	l2082
  3541  0DD1                     u1950:
  3542  0DD1                     l2048:
  3543  0DD1  1F78               	btfss	___fladd@signs,6
  3544  0DD2  2DD4               	goto	u1961
  3545  0DD3  2DD5               	goto	u1960
  3546  0DD4                     u1961:
  3547  0DD4  2DD9               	goto	l2052
  3548  0DD5                     u1960:
  3549  0DD5                     l2050:
  3550  0DD5  3080               	movlw	128
  3551  0DD6  00A0               	movwf	??___fladd
  3552  0DD7  0820               	movf	??___fladd,w
  3553  0DD8  06F8               	xorwf	___fladd@signs,f
  3554  0DD9                     l2052:
  3555  0DD9  087A               	movf	___fladd@bexp,w
  3556  0DDA  00A0               	movwf	??___fladd
  3557  0DDB  0820               	movf	??___fladd,w
  3558  0DDC  00FB               	movwf	___fladd@grs
  3559  0DDD                     l2054:
  3560  0DDD  0879               	movf	___fladd@aexp,w
  3561  0DDE  00A0               	movwf	??___fladd
  3562  0DDF  0820               	movf	??___fladd,w
  3563  0DE0  00FA               	movwf	___fladd@bexp
  3564  0DE1                     l2056:
  3565  0DE1  087B               	movf	___fladd@grs,w
  3566  0DE2  00A0               	movwf	??___fladd
  3567  0DE3  0820               	movf	??___fladd,w
  3568  0DE4  00F9               	movwf	___fladd@aexp
  3569  0DE5                     l2058:
  3570  0DE5  0870               	movf	___fladd@b,w
  3571  0DE6  00A0               	movwf	??___fladd
  3572  0DE7  0820               	movf	??___fladd,w
  3573  0DE8  00FB               	movwf	___fladd@grs
  3574  0DE9                     l2060:
  3575  0DE9  0874               	movf	___fladd@a,w
  3576  0DEA  00A0               	movwf	??___fladd
  3577  0DEB  0820               	movf	??___fladd,w
  3578  0DEC  00F0               	movwf	___fladd@b
  3579  0DED                     l2062:
  3580  0DED  087B               	movf	___fladd@grs,w
  3581  0DEE  00A0               	movwf	??___fladd
  3582  0DEF  0820               	movf	??___fladd,w
  3583  0DF0  00F4               	movwf	___fladd@a
  3584  0DF1                     l2064:
  3585  0DF1  0871               	movf	___fladd@b+1,w
  3586  0DF2  00A0               	movwf	??___fladd
  3587  0DF3  0820               	movf	??___fladd,w
  3588  0DF4  00FB               	movwf	___fladd@grs
  3589  0DF5                     l2066:
  3590  0DF5  0875               	movf	___fladd@a+1,w
  3591  0DF6  00A0               	movwf	??___fladd
  3592  0DF7  0820               	movf	??___fladd,w
  3593  0DF8  00F1               	movwf	___fladd@b+1
  3594  0DF9                     l2068:
  3595  0DF9  087B               	movf	___fladd@grs,w
  3596  0DFA  00A0               	movwf	??___fladd
  3597  0DFB  0820               	movf	??___fladd,w
  3598  0DFC  00F5               	movwf	___fladd@a+1
  3599  0DFD                     l2070:
  3600  0DFD  0872               	movf	___fladd@b+2,w
  3601  0DFE  00A0               	movwf	??___fladd
  3602  0DFF  0820               	movf	??___fladd,w
  3603  0E00  00FB               	movwf	___fladd@grs
  3604  0E01                     l2072:
  3605  0E01  0876               	movf	___fladd@a+2,w
  3606  0E02  00A0               	movwf	??___fladd
  3607  0E03  0820               	movf	??___fladd,w
  3608  0E04  00F2               	movwf	___fladd@b+2
  3609  0E05                     l2074:
  3610  0E05  087B               	movf	___fladd@grs,w
  3611  0E06  00A0               	movwf	??___fladd
  3612  0E07  0820               	movf	??___fladd,w
  3613  0E08  00F6               	movwf	___fladd@a+2
  3614  0E09                     l2076:
  3615  0E09  0873               	movf	___fladd@b+3,w
  3616  0E0A  00A0               	movwf	??___fladd
  3617  0E0B  0820               	movf	??___fladd,w
  3618  0E0C  00FB               	movwf	___fladd@grs
  3619  0E0D                     l2078:
  3620  0E0D  0877               	movf	___fladd@a+3,w
  3621  0E0E  00A0               	movwf	??___fladd
  3622  0E0F  0820               	movf	??___fladd,w
  3623  0E10  00F3               	movwf	___fladd@b+3
  3624  0E11                     l2080:
  3625  0E11  087B               	movf	___fladd@grs,w
  3626  0E12  00A0               	movwf	??___fladd
  3627  0E13  0820               	movf	??___fladd,w
  3628  0E14  00F7               	movwf	___fladd@a+3
  3629  0E15                     l2082:
  3630  0E15  01FB               	clrf	___fladd@grs
  3631  0E16                     l2084:
  3632  0E16  0879               	movf	___fladd@aexp,w
  3633  0E17  00A0               	movwf	??___fladd
  3634  0E18  01A1               	clrf	??___fladd+1
  3635  0E19  0821               	movf	??___fladd+1,w
  3636  0E1A  00A3               	movwf	??___fladd+3
  3637  0E1B  087A               	movf	___fladd@bexp,w
  3638  0E1C  0220               	subwf	??___fladd,w
  3639  0E1D  00A2               	movwf	??___fladd+2
  3640  0E1E  1C03               	skipc
  3641  0E1F  03A3               	decf	??___fladd+3,f
  3642  0E20  0823               	movf	??___fladd+3,w
  3643  0E21  3A80               	xorlw	128
  3644  0E22  00FF               	movwf	btemp+1
  3645  0E23  3080               	movlw	128
  3646  0E24  027F               	subwf	btemp+1,w
  3647  0E25  1D03               	skipz
  3648  0E26  2E29               	goto	u1975
  3649  0E27  301A               	movlw	26
  3650  0E28  0222               	subwf	??___fladd+2,w
  3651  0E29                     u1975:
  3652  0E29  1C03               	skipc
  3653  0E2A  2E2C               	goto	u1971
  3654  0E2B  2E2D               	goto	u1970
  3655  0E2C                     u1971:
  3656  0E2C  2E6E               	goto	l2100
  3657  0E2D                     u1970:
  3658  0E2D                     l2086:
  3659  0E2D  0873               	movf	___fladd@b+3,w
  3660  0E2E  0472               	iorwf	___fladd@b+2,w
  3661  0E2F  0471               	iorwf	___fladd@b+1,w
  3662  0E30  0470               	iorwf	___fladd@b,w
  3663  0E31  1D03               	skipz
  3664  0E32  2E34               	goto	u1981
  3665  0E33  2E36               	goto	u1980
  3666  0E34                     u1981:
  3667  0E34  3001               	movlw	1
  3668  0E35  2E37               	goto	u1990
  3669  0E36                     u1980:
  3670  0E36  3000               	movlw	0
  3671  0E37                     u1990:
  3672  0E37  1283               	bcf	3,5	;RP0=0, select bank0
  3673  0E38  1303               	bcf	3,6	;RP1=0, select bank0
  3674  0E39  00A0               	movwf	??___fladd
  3675  0E3A  0820               	movf	??___fladd,w
  3676  0E3B  00FB               	movwf	___fladd@grs
  3677  0E3C  3000               	movlw	0
  3678  0E3D  00F3               	movwf	___fladd@b+3
  3679  0E3E  3000               	movlw	0
  3680  0E3F  00F2               	movwf	___fladd@b+2
  3681  0E40  3000               	movlw	0
  3682  0E41  00F1               	movwf	___fladd@b+1
  3683  0E42  3000               	movlw	0
  3684  0E43  00F0               	movwf	___fladd@b
  3685  0E44  0879               	movf	___fladd@aexp,w
  3686  0E45  00A0               	movwf	??___fladd
  3687  0E46  0820               	movf	??___fladd,w
  3688  0E47  00FA               	movwf	___fladd@bexp
  3689  0E48  2E74               	goto	l677
  3690  0E49                     l679:
  3691  0E49  1C7B               	btfss	___fladd@grs,0
  3692  0E4A  2E4C               	goto	u2001
  3693  0E4B  2E4D               	goto	u2000
  3694  0E4C                     u2001:
  3695  0E4C  2E58               	goto	l2090
  3696  0E4D                     u2000:
  3697  0E4D                     l2088:
  3698  0E4D  087B               	movf	___fladd@grs,w
  3699  0E4E  1283               	bcf	3,5	;RP0=0, select bank0
  3700  0E4F  1303               	bcf	3,6	;RP1=0, select bank0
  3701  0E50  00A0               	movwf	??___fladd
  3702  0E51  1003               	clrc
  3703  0E52  0C20               	rrf	??___fladd,w
  3704  0E53  3801               	iorlw	1
  3705  0E54  00A1               	movwf	??___fladd+1
  3706  0E55  0821               	movf	??___fladd+1,w
  3707  0E56  00FB               	movwf	___fladd@grs
  3708  0E57  2E5A               	goto	l2092
  3709  0E58                     l2090:
  3710  0E58  1003               	clrc
  3711  0E59  0CFB               	rrf	___fladd@grs,f
  3712  0E5A                     l2092:
  3713  0E5A  1C70               	btfss	___fladd@b,0
  3714  0E5B  2E5D               	goto	u2011
  3715  0E5C  2E5E               	goto	u2010
  3716  0E5D                     u2011:
  3717  0E5D  2E5F               	goto	l2096
  3718  0E5E                     u2010:
  3719  0E5E                     l2094:
  3720  0E5E  17FB               	bsf	___fladd@grs,7
  3721  0E5F                     l2096:
  3722  0E5F  3001               	movlw	1
  3723  0E60  1283               	bcf	3,5	;RP0=0, select bank0
  3724  0E61  1303               	bcf	3,6	;RP1=0, select bank0
  3725  0E62  00A0               	movwf	??___fladd
  3726  0E63                     u2025:
  3727  0E63  0D73               	rlf	___fladd@b+3,w
  3728  0E64  0CF3               	rrf	___fladd@b+3,f
  3729  0E65  0CF2               	rrf	___fladd@b+2,f
  3730  0E66  0CF1               	rrf	___fladd@b+1,f
  3731  0E67  0CF0               	rrf	___fladd@b,f
  3732  0E68  0BA0               	decfsz	??___fladd& (0+127),f
  3733  0E69  2E63               	goto	u2025
  3734  0E6A                     l2098:
  3735  0E6A  3001               	movlw	1
  3736  0E6B  00A0               	movwf	??___fladd
  3737  0E6C  0820               	movf	??___fladd,w
  3738  0E6D  07FA               	addwf	___fladd@bexp,f
  3739  0E6E                     l2100:
  3740  0E6E  0879               	movf	___fladd@aexp,w
  3741  0E6F  027A               	subwf	___fladd@bexp,w
  3742  0E70  1C03               	skipc
  3743  0E71  2E73               	goto	u2031
  3744  0E72  2E74               	goto	u2030
  3745  0E73                     u2031:
  3746  0E73  2E49               	goto	l679
  3747  0E74                     u2030:
  3748  0E74                     l677:
  3749  0E74  1B78               	btfsc	___fladd@signs,6
  3750  0E75  2E77               	goto	u2041
  3751  0E76  2E78               	goto	u2040
  3752  0E77                     u2041:
  3753  0E77  2EC7               	goto	l2126
  3754  0E78                     u2040:
  3755  0E78                     l2102:
  3756  0E78  087A               	movf	___fladd@bexp,w
  3757  0E79  1D03               	btfss	3,2
  3758  0E7A  2E7C               	goto	u2051
  3759  0E7B  2E7D               	goto	u2050
  3760  0E7C                     u2051:
  3761  0E7C  2E86               	goto	l2108
  3762  0E7D                     u2050:
  3763  0E7D                     l2104:
  3764  0E7D  3000               	movlw	0
  3765  0E7E  00F3               	movwf	?___fladd+3
  3766  0E7F  3000               	movlw	0
  3767  0E80  00F2               	movwf	?___fladd+2
  3768  0E81  3000               	movlw	0
  3769  0E82  00F1               	movwf	?___fladd+1
  3770  0E83  3000               	movlw	0
  3771  0E84  00F0               	movwf	?___fladd
  3772  0E85  2FFF               	goto	l686
  3773  0E86                     l2108:
  3774  0E86  0874               	movf	___fladd@a,w
  3775  0E87  07F0               	addwf	___fladd@b,f
  3776  0E88  0875               	movf	___fladd@a+1,w
  3777  0E89  1103               	clrz
  3778  0E8A  1803               	skipnc
  3779  0E8B  3E01               	addlw	1
  3780  0E8C  1903               	skipnz
  3781  0E8D  2E8F               	goto	u2061
  3782  0E8E  07F1               	addwf	___fladd@b+1,f
  3783  0E8F                     u2061:
  3784  0E8F  0876               	movf	___fladd@a+2,w
  3785  0E90  1103               	clrz
  3786  0E91  1803               	skipnc
  3787  0E92  3E01               	addlw	1
  3788  0E93  1903               	skipnz
  3789  0E94  2E96               	goto	u2062
  3790  0E95  07F2               	addwf	___fladd@b+2,f
  3791  0E96                     u2062:
  3792  0E96  0877               	movf	___fladd@a+3,w
  3793  0E97  1103               	clrz
  3794  0E98  1803               	skipnc
  3795  0E99  3E01               	addlw	1
  3796  0E9A  1903               	skipnz
  3797  0E9B  2E9D               	goto	u2063
  3798  0E9C  07F3               	addwf	___fladd@b+3,f
  3799  0E9D                     u2063:
  3800  0E9D                     l2110:
  3801  0E9D  1C73               	btfss	___fladd@b+3,0
  3802  0E9E  2EA0               	goto	u2071
  3803  0E9F  2EA1               	goto	u2070
  3804  0EA0                     u2071:
  3805  0EA0  2F7F               	goto	l2160
  3806  0EA1                     u2070:
  3807  0EA1                     l2112:
  3808  0EA1  1C7B               	btfss	___fladd@grs,0
  3809  0EA2  2EA4               	goto	u2081
  3810  0EA3  2EA5               	goto	u2080
  3811  0EA4                     u2081:
  3812  0EA4  2EB0               	goto	l2116
  3813  0EA5                     u2080:
  3814  0EA5                     l2114:
  3815  0EA5  087B               	movf	___fladd@grs,w
  3816  0EA6  1283               	bcf	3,5	;RP0=0, select bank0
  3817  0EA7  1303               	bcf	3,6	;RP1=0, select bank0
  3818  0EA8  00A0               	movwf	??___fladd
  3819  0EA9  1003               	clrc
  3820  0EAA  0C20               	rrf	??___fladd,w
  3821  0EAB  3801               	iorlw	1
  3822  0EAC  00A1               	movwf	??___fladd+1
  3823  0EAD  0821               	movf	??___fladd+1,w
  3824  0EAE  00FB               	movwf	___fladd@grs
  3825  0EAF  2EB2               	goto	l2118
  3826  0EB0                     l2116:
  3827  0EB0  1003               	clrc
  3828  0EB1  0CFB               	rrf	___fladd@grs,f
  3829  0EB2                     l2118:
  3830  0EB2  1C70               	btfss	___fladd@b,0
  3831  0EB3  2EB5               	goto	u2091
  3832  0EB4  2EB6               	goto	u2090
  3833  0EB5                     u2091:
  3834  0EB5  2EB7               	goto	l2122
  3835  0EB6                     u2090:
  3836  0EB6                     l2120:
  3837  0EB6  17FB               	bsf	___fladd@grs,7
  3838  0EB7                     l2122:
  3839  0EB7  3001               	movlw	1
  3840  0EB8  1283               	bcf	3,5	;RP0=0, select bank0
  3841  0EB9  1303               	bcf	3,6	;RP1=0, select bank0
  3842  0EBA  00A0               	movwf	??___fladd
  3843  0EBB                     u2105:
  3844  0EBB  0D73               	rlf	___fladd@b+3,w
  3845  0EBC  0CF3               	rrf	___fladd@b+3,f
  3846  0EBD  0CF2               	rrf	___fladd@b+2,f
  3847  0EBE  0CF1               	rrf	___fladd@b+1,f
  3848  0EBF  0CF0               	rrf	___fladd@b,f
  3849  0EC0  0BA0               	decfsz	??___fladd& (0+127),f
  3850  0EC1  2EBB               	goto	u2105
  3851  0EC2                     l2124:
  3852  0EC2  3001               	movlw	1
  3853  0EC3  00A0               	movwf	??___fladd
  3854  0EC4  0820               	movf	??___fladd,w
  3855  0EC5  07FA               	addwf	___fladd@bexp,f
  3856  0EC6  2F7F               	goto	l2160
  3857  0EC7                     l2126:
  3858  0EC7  0873               	movf	___fladd@b+3,w
  3859  0EC8  3A80               	xorlw	128
  3860  0EC9  00FF               	movwf	btemp+1
  3861  0ECA  0877               	movf	___fladd@a+3,w
  3862  0ECB  3A80               	xorlw	128
  3863  0ECC  027F               	subwf	btemp+1,w
  3864  0ECD  1D03               	skipz
  3865  0ECE  2ED9               	goto	u2113
  3866  0ECF  0876               	movf	___fladd@a+2,w
  3867  0ED0  0272               	subwf	___fladd@b+2,w
  3868  0ED1  1D03               	skipz
  3869  0ED2  2ED9               	goto	u2113
  3870  0ED3  0875               	movf	___fladd@a+1,w
  3871  0ED4  0271               	subwf	___fladd@b+1,w
  3872  0ED5  1D03               	skipz
  3873  0ED6  2ED9               	goto	u2113
  3874  0ED7  0874               	movf	___fladd@a,w
  3875  0ED8  0270               	subwf	___fladd@b,w
  3876  0ED9                     u2113:
  3877  0ED9  1803               	skipnc
  3878  0EDA  2EDC               	goto	u2111
  3879  0EDB  2EDD               	goto	u2110
  3880  0EDC                     u2111:
  3881  0EDC  2F37               	goto	l2136
  3882  0EDD                     u2110:
  3883  0EDD                     l2128:
  3884  0EDD  30FF               	movlw	255
  3885  0EDE  1283               	bcf	3,5	;RP0=0, select bank0
  3886  0EDF  1303               	bcf	3,6	;RP1=0, select bank0
  3887  0EE0  00A0               	movwf	??___fladd
  3888  0EE1  30FF               	movlw	255
  3889  0EE2  00A1               	movwf	??___fladd+1
  3890  0EE3  30FF               	movlw	255
  3891  0EE4  00A2               	movwf	??___fladd+2
  3892  0EE5  30FF               	movlw	255
  3893  0EE6  00A3               	movwf	??___fladd+3
  3894  0EE7  0874               	movf	___fladd@a,w
  3895  0EE8  00A4               	movwf	??___fladd+4
  3896  0EE9  0875               	movf	___fladd@a+1,w
  3897  0EEA  00A5               	movwf	??___fladd+5
  3898  0EEB  0876               	movf	___fladd@a+2,w
  3899  0EEC  00A6               	movwf	??___fladd+6
  3900  0EED  0877               	movf	___fladd@a+3,w
  3901  0EEE  00A7               	movwf	??___fladd+7
  3902  0EEF  0870               	movf	___fladd@b,w
  3903  0EF0  02A4               	subwf	??___fladd+4,f
  3904  0EF1  0871               	movf	___fladd@b+1,w
  3905  0EF2  1C03               	skipc
  3906  0EF3  0F71               	incfsz	___fladd@b+1,w
  3907  0EF4  2EF6               	goto	u2121
  3908  0EF5  2EF7               	goto	u2122
  3909  0EF6                     u2121:
  3910  0EF6  02A5               	subwf	??___fladd+5,f
  3911  0EF7                     u2122:
  3912  0EF7  0872               	movf	___fladd@b+2,w
  3913  0EF8  1C03               	skipc
  3914  0EF9  0F72               	incfsz	___fladd@b+2,w
  3915  0EFA  2EFC               	goto	u2123
  3916  0EFB  2EFD               	goto	u2124
  3917  0EFC                     u2123:
  3918  0EFC  02A6               	subwf	??___fladd+6,f
  3919  0EFD                     u2124:
  3920  0EFD  0873               	movf	___fladd@b+3,w
  3921  0EFE  1C03               	skipc
  3922  0EFF  0F73               	incfsz	___fladd@b+3,w
  3923  0F00  2F02               	goto	u2125
  3924  0F01  2F03               	goto	u2126
  3925  0F02                     u2125:
  3926  0F02  02A7               	subwf	??___fladd+7,f
  3927  0F03                     u2126:
  3928  0F03  0824               	movf	??___fladd+4,w
  3929  0F04  07A0               	addwf	??___fladd,f
  3930  0F05  0825               	movf	??___fladd+5,w
  3931  0F06  1803               	skipnc
  3932  0F07  0F25               	incfsz	??___fladd+5,w
  3933  0F08  2F0A               	goto	u2130
  3934  0F09  2F0B               	goto	u2131
  3935  0F0A                     u2130:
  3936  0F0A  07A1               	addwf	??___fladd+1,f
  3937  0F0B                     u2131:
  3938  0F0B  0826               	movf	??___fladd+6,w
  3939  0F0C  1803               	skipnc
  3940  0F0D  0F26               	incfsz	??___fladd+6,w
  3941  0F0E  2F10               	goto	u2132
  3942  0F0F  2F11               	goto	u2133
  3943  0F10                     u2132:
  3944  0F10  07A2               	addwf	??___fladd+2,f
  3945  0F11                     u2133:
  3946  0F11  0827               	movf	??___fladd+7,w
  3947  0F12  1803               	skipnc
  3948  0F13  0A27               	incf	??___fladd+7,w
  3949  0F14  07A3               	addwf	??___fladd+3,f
  3950  0F15  0823               	movf	??___fladd+3,w
  3951  0F16  00F3               	movwf	___fladd@b+3
  3952  0F17  0822               	movf	??___fladd+2,w
  3953  0F18  00F2               	movwf	___fladd@b+2
  3954  0F19  0821               	movf	??___fladd+1,w
  3955  0F1A  00F1               	movwf	___fladd@b+1
  3956  0F1B  0820               	movf	??___fladd,w
  3957  0F1C  00F0               	movwf	___fladd@b
  3958  0F1D                     l2130:
  3959  0F1D  3080               	movlw	128
  3960  0F1E  00A0               	movwf	??___fladd
  3961  0F1F  0820               	movf	??___fladd,w
  3962  0F20  06F8               	xorwf	___fladd@signs,f
  3963  0F21  09FB               	comf	___fladd@grs,f
  3964  0F22  0AFB               	incf	___fladd@grs,f
  3965  0F23                     l2132:
  3966  0F23  087B               	movf	___fladd@grs,w
  3967  0F24  1D03               	btfss	3,2
  3968  0F25  2F27               	goto	u2141
  3969  0F26  2F28               	goto	u2140
  3970  0F27                     u2141:
  3971  0F27  2F45               	goto	l694
  3972  0F28                     u2140:
  3973  0F28                     l2134:
  3974  0F28  3001               	movlw	1
  3975  0F29  07F0               	addwf	___fladd@b,f
  3976  0F2A  3000               	movlw	0
  3977  0F2B  1803               	skipnc
  3978  0F2C  3001               	movlw	1
  3979  0F2D  07F1               	addwf	___fladd@b+1,f
  3980  0F2E  3000               	movlw	0
  3981  0F2F  1803               	skipnc
  3982  0F30  3001               	movlw	1
  3983  0F31  07F2               	addwf	___fladd@b+2,f
  3984  0F32  3000               	movlw	0
  3985  0F33  1803               	skipnc
  3986  0F34  3001               	movlw	1
  3987  0F35  07F3               	addwf	___fladd@b+3,f
  3988  0F36  2F45               	goto	l694
  3989  0F37                     l2136:
  3990  0F37  0874               	movf	___fladd@a,w
  3991  0F38  02F0               	subwf	___fladd@b,f
  3992  0F39  0875               	movf	___fladd@a+1,w
  3993  0F3A  1C03               	skipc
  3994  0F3B  0F75               	incfsz	___fladd@a+1,w
  3995  0F3C  02F1               	subwf	___fladd@b+1,f
  3996  0F3D  0876               	movf	___fladd@a+2,w
  3997  0F3E  1C03               	skipc
  3998  0F3F  0F76               	incfsz	___fladd@a+2,w
  3999  0F40  02F2               	subwf	___fladd@b+2,f
  4000  0F41  0877               	movf	___fladd@a+3,w
  4001  0F42  1C03               	skipc
  4002  0F43  0F77               	incfsz	___fladd@a+3,w
  4003  0F44  02F3               	subwf	___fladd@b+3,f
  4004  0F45                     l694:
  4005  0F45  0873               	movf	___fladd@b+3,w
  4006  0F46  0472               	iorwf	___fladd@b+2,w
  4007  0F47  0471               	iorwf	___fladd@b+1,w
  4008  0F48  0470               	iorwf	___fladd@b,w
  4009  0F49  1D03               	skipz
  4010  0F4A  2F4C               	goto	u2151
  4011  0F4B  2F4D               	goto	u2150
  4012  0F4C                     u2151:
  4013  0F4C  2F7B               	goto	l2158
  4014  0F4D                     u2150:
  4015  0F4D                     l2138:
  4016  0F4D  087B               	movf	___fladd@grs,w
  4017  0F4E  1D03               	btfss	3,2
  4018  0F4F  2F51               	goto	u2161
  4019  0F50  2F52               	goto	u2160
  4020  0F51                     u2161:
  4021  0F51  2F7B               	goto	l2158
  4022  0F52                     u2160:
  4023  0F52                     l2140:
  4024  0F52  3000               	movlw	0
  4025  0F53  00F3               	movwf	?___fladd+3
  4026  0F54  3000               	movlw	0
  4027  0F55  00F2               	movwf	?___fladd+2
  4028  0F56  3000               	movlw	0
  4029  0F57  00F1               	movwf	?___fladd+1
  4030  0F58  3000               	movlw	0
  4031  0F59  00F0               	movwf	?___fladd
  4032  0F5A  2FFF               	goto	l686
  4033  0F5B                     l2144:
  4034  0F5B  3001               	movlw	1
  4035  0F5C  1283               	bcf	3,5	;RP0=0, select bank0
  4036  0F5D  1303               	bcf	3,6	;RP1=0, select bank0
  4037  0F5E  00A0               	movwf	??___fladd
  4038  0F5F                     u2175:
  4039  0F5F  1003               	clrc
  4040  0F60  0DF0               	rlf	___fladd@b,f
  4041  0F61  0DF1               	rlf	___fladd@b+1,f
  4042  0F62  0DF2               	rlf	___fladd@b+2,f
  4043  0F63  0DF3               	rlf	___fladd@b+3,f
  4044  0F64  0BA0               	decfsz	??___fladd,f
  4045  0F65  2F5F               	goto	u2175
  4046  0F66                     l2146:
  4047  0F66  1FFB               	btfss	___fladd@grs,7
  4048  0F67  2F69               	goto	u2181
  4049  0F68  2F6A               	goto	u2180
  4050  0F69                     u2181:
  4051  0F69  2F6B               	goto	l698
  4052  0F6A                     u2180:
  4053  0F6A                     l2148:
  4054  0F6A  1470               	bsf	___fladd@b,0
  4055  0F6B                     l698:
  4056  0F6B  1C7B               	btfss	___fladd@grs,0
  4057  0F6C  2F6E               	goto	u2191
  4058  0F6D  2F6F               	goto	u2190
  4059  0F6E                     u2191:
  4060  0F6E  2F72               	goto	l2152
  4061  0F6F                     u2190:
  4062  0F6F                     l2150:
  4063  0F6F  1403               	setc
  4064  0F70  0DFB               	rlf	___fladd@grs,f
  4065  0F71  2F74               	goto	l2154
  4066  0F72                     l2152:
  4067  0F72  1003               	clrc
  4068  0F73  0DFB               	rlf	___fladd@grs,f
  4069  0F74                     l2154:
  4070  0F74  087A               	movf	___fladd@bexp,w
  4071  0F75  1903               	btfsc	3,2
  4072  0F76  2F78               	goto	u2201
  4073  0F77  2F79               	goto	u2200
  4074  0F78                     u2201:
  4075  0F78  2F7B               	goto	l2158
  4076  0F79                     u2200:
  4077  0F79                     l2156:
  4078  0F79  3001               	movlw	1
  4079  0F7A  02FA               	subwf	___fladd@bexp,f
  4080  0F7B                     l2158:
  4081  0F7B  1FF2               	btfss	___fladd@b+2,7
  4082  0F7C  2F7E               	goto	u2211
  4083  0F7D  2F7F               	goto	u2210
  4084  0F7E                     u2211:
  4085  0F7E  2F5B               	goto	l2144
  4086  0F7F                     u2210:
  4087  0F7F                     l2160:
  4088  0F7F  01F9               	clrf	___fladd@aexp
  4089  0F80                     l2162:
  4090  0F80  1FFB               	btfss	___fladd@grs,7
  4091  0F81  2F83               	goto	u2221
  4092  0F82  2F84               	goto	u2220
  4093  0F83                     u2221:
  4094  0F83  2F92               	goto	l2170
  4095  0F84                     u2220:
  4096  0F84                     l2164:
  4097  0F84  087B               	movf	___fladd@grs,w
  4098  0F85  397F               	andlw	127
  4099  0F86  1903               	btfsc	3,2
  4100  0F87  2F89               	goto	u2231
  4101  0F88  2F8A               	goto	u2230
  4102  0F89                     u2231:
  4103  0F89  2F8D               	goto	l704
  4104  0F8A                     u2230:
  4105  0F8A                     l2166:
  4106  0F8A  01F9               	clrf	___fladd@aexp
  4107  0F8B  0AF9               	incf	___fladd@aexp,f
  4108  0F8C  2F92               	goto	l2170
  4109  0F8D                     l704:
  4110  0F8D  1C70               	btfss	___fladd@b,0
  4111  0F8E  2F90               	goto	u2241
  4112  0F8F  2F91               	goto	u2240
  4113  0F90                     u2241:
  4114  0F90  2F92               	goto	l2170
  4115  0F91                     u2240:
  4116  0F91  2F8A               	goto	l2166
  4117  0F92                     l2170:
  4118  0F92  0879               	movf	___fladd@aexp,w
  4119  0F93  1903               	btfsc	3,2
  4120  0F94  2F96               	goto	u2251
  4121  0F95  2F97               	goto	u2250
  4122  0F96                     u2251:
  4123  0F96  2FCD               	goto	l707
  4124  0F97                     u2250:
  4125  0F97                     l2172:
  4126  0F97  3001               	movlw	1
  4127  0F98  07F0               	addwf	___fladd@b,f
  4128  0F99  3000               	movlw	0
  4129  0F9A  1803               	skipnc
  4130  0F9B  3001               	movlw	1
  4131  0F9C  07F1               	addwf	___fladd@b+1,f
  4132  0F9D  3000               	movlw	0
  4133  0F9E  1803               	skipnc
  4134  0F9F  3001               	movlw	1
  4135  0FA0  07F2               	addwf	___fladd@b+2,f
  4136  0FA1  3000               	movlw	0
  4137  0FA2  1803               	skipnc
  4138  0FA3  3001               	movlw	1
  4139  0FA4  07F3               	addwf	___fladd@b+3,f
  4140  0FA5                     l2174:
  4141  0FA5  1C73               	btfss	___fladd@b+3,0
  4142  0FA6  2FA8               	goto	u2261
  4143  0FA7  2FA9               	goto	u2260
  4144  0FA8                     u2261:
  4145  0FA8  2FCD               	goto	l707
  4146  0FA9                     u2260:
  4147  0FA9                     l2176:
  4148  0FA9  0870               	movf	___fladd@b,w
  4149  0FAA  1283               	bcf	3,5	;RP0=0, select bank0
  4150  0FAB  1303               	bcf	3,6	;RP1=0, select bank0
  4151  0FAC  00A0               	movwf	??___fladd
  4152  0FAD  0871               	movf	___fladd@b+1,w
  4153  0FAE  00A1               	movwf	??___fladd+1
  4154  0FAF  0872               	movf	___fladd@b+2,w
  4155  0FB0  00A2               	movwf	??___fladd+2
  4156  0FB1  0873               	movf	___fladd@b+3,w
  4157  0FB2  00A3               	movwf	??___fladd+3
  4158  0FB3  3001               	movlw	1
  4159  0FB4  00A4               	movwf	??___fladd+4
  4160  0FB5                     u2275:
  4161  0FB5  0D23               	rlf	??___fladd+3,w
  4162  0FB6  0CA3               	rrf	??___fladd+3,f
  4163  0FB7  0CA2               	rrf	??___fladd+2,f
  4164  0FB8  0CA1               	rrf	??___fladd+1,f
  4165  0FB9  0CA0               	rrf	??___fladd,f
  4166  0FBA                     u2270:
  4167  0FBA  0BA4               	decfsz	??___fladd+4,f
  4168  0FBB  2FB5               	goto	u2275
  4169  0FBC  0823               	movf	??___fladd+3,w
  4170  0FBD  00F3               	movwf	___fladd@b+3
  4171  0FBE  0822               	movf	??___fladd+2,w
  4172  0FBF  00F2               	movwf	___fladd@b+2
  4173  0FC0  0821               	movf	??___fladd+1,w
  4174  0FC1  00F1               	movwf	___fladd@b+1
  4175  0FC2  0820               	movf	??___fladd,w
  4176  0FC3  00F0               	movwf	___fladd@b
  4177  0FC4  0A7A               	incf	___fladd@bexp,w
  4178  0FC5  1903               	btfsc	3,2
  4179  0FC6  2FC8               	goto	u2281
  4180  0FC7  2FC9               	goto	u2280
  4181  0FC8                     u2281:
  4182  0FC8  2FCD               	goto	l707
  4183  0FC9                     u2280:
  4184  0FC9                     l2178:
  4185  0FC9  3001               	movlw	1
  4186  0FCA  00A0               	movwf	??___fladd
  4187  0FCB  0820               	movf	??___fladd,w
  4188  0FCC  07FA               	addwf	___fladd@bexp,f
  4189  0FCD                     l707:
  4190  0FCD  0A7A               	incf	___fladd@bexp,w
  4191  0FCE  1903               	btfsc	3,2
  4192  0FCF  2FD1               	goto	u2291
  4193  0FD0  2FD2               	goto	u2290
  4194  0FD1                     u2291:
  4195  0FD1  2FD7               	goto	l2182
  4196  0FD2                     u2290:
  4197  0FD2                     l2180:
  4198  0FD2  087A               	movf	___fladd@bexp,w
  4199  0FD3  1D03               	btfss	3,2
  4200  0FD4  2FD6               	goto	u2301
  4201  0FD5  2FD7               	goto	u2300
  4202  0FD6                     u2301:
  4203  0FD6  2FE5               	goto	l2188
  4204  0FD7                     u2300:
  4205  0FD7                     l2182:
  4206  0FD7  3000               	movlw	0
  4207  0FD8  00F3               	movwf	___fladd@b+3
  4208  0FD9  3000               	movlw	0
  4209  0FDA  00F2               	movwf	___fladd@b+2
  4210  0FDB  3000               	movlw	0
  4211  0FDC  00F1               	movwf	___fladd@b+1
  4212  0FDD  3000               	movlw	0
  4213  0FDE  00F0               	movwf	___fladd@b
  4214  0FDF                     l2184:
  4215  0FDF  087A               	movf	___fladd@bexp,w
  4216  0FE0  1D03               	btfss	3,2
  4217  0FE1  2FE3               	goto	u2311
  4218  0FE2  2FE4               	goto	u2310
  4219  0FE3                     u2311:
  4220  0FE3  2FE5               	goto	l2188
  4221  0FE4                     u2310:
  4222  0FE4                     l2186:
  4223  0FE4  01F8               	clrf	___fladd@signs
  4224  0FE5                     l2188:
  4225  0FE5  1C7A               	btfss	___fladd@bexp,0
  4226  0FE6  2FE8               	goto	u2321
  4227  0FE7  2FE9               	goto	u2320
  4228  0FE8                     u2321:
  4229  0FE8  2FEB               	goto	l2192
  4230  0FE9                     u2320:
  4231  0FE9                     l2190:
  4232  0FE9  17F2               	bsf	___fladd@b+2,7
  4233  0FEA  2FF1               	goto	l715
  4234  0FEB                     l2192:
  4235  0FEB  307F               	movlw	127
  4236  0FEC  1283               	bcf	3,5	;RP0=0, select bank0
  4237  0FED  1303               	bcf	3,6	;RP1=0, select bank0
  4238  0FEE  00A0               	movwf	??___fladd
  4239  0FEF  0820               	movf	??___fladd,w
  4240  0FF0  05F2               	andwf	___fladd@b+2,f
  4241  0FF1                     l715:
  4242  0FF1  087A               	movf	___fladd@bexp,w
  4243  0FF2  1283               	bcf	3,5	;RP0=0, select bank0
  4244  0FF3  1303               	bcf	3,6	;RP1=0, select bank0
  4245  0FF4  00A0               	movwf	??___fladd
  4246  0FF5  1003               	clrc
  4247  0FF6  0C20               	rrf	??___fladd,w
  4248  0FF7  00A1               	movwf	??___fladd+1
  4249  0FF8  0821               	movf	??___fladd+1,w
  4250  0FF9  00F3               	movwf	___fladd@b+3
  4251  0FFA                     l2194:
  4252  0FFA  1FF8               	btfss	___fladd@signs,7
  4253  0FFB  2FFD               	goto	u2331
  4254  0FFC  2FFE               	goto	u2330
  4255  0FFD                     u2331:
  4256  0FFD  2FFF               	goto	l716
  4257  0FFE                     u2330:
  4258  0FFE                     l2196:
  4259  0FFE  17F3               	bsf	___fladd@b+3,7
  4260  0FFF                     l716:
  4261  0FFF                     l686:
  4262  0FFF  0008               	return
  4263  1000                     __end_of___fladd:
  4264                           
  4265                           	psect	text10
  4266  009A                     __ptext10:	
  4267 ;; *************** function ___flmul *****************
  4268 ;; Defined at:
  4269 ;;		line 8 in file "C:\Program Files\Microchip\xc8\v2.32\pic\sources\c90\common\sprcmul.c"
  4270 ;; Parameters:    Size  Location     Type
  4271 ;;  b               4   44[BANK0 ] unsigned char 
  4272 ;;  a               4   48[BANK0 ] unsigned char 
  4273 ;; Auto vars:     Size  Location     Type
  4274 ;;  prod            4   64[BANK0 ] struct .
  4275 ;;  grs             4   58[BANK0 ] unsigned long 
  4276 ;;  temp            2   68[BANK0 ] struct .
  4277 ;;  bexp            1   63[BANK0 ] unsigned char 
  4278 ;;  aexp            1   62[BANK0 ] unsigned char 
  4279 ;;  sign            1   57[BANK0 ] unsigned char 
  4280 ;; Return value:  Size  Location     Type
  4281 ;;                  4   44[BANK0 ] unsigned char 
  4282 ;; Registers used:
  4283 ;;		wreg, status,2, status,0, btemp+1, pclath, cstack
  4284 ;; Tracked objects:
  4285 ;;		On entry : 0/0
  4286 ;;		On exit  : 0/0
  4287 ;;		Unchanged: 0/0
  4288 ;; Data sizes:     COMMON   BANK0   BANK1   BANK3   BANK2
  4289 ;;      Params:         0       8       0       0       0
  4290 ;;      Locals:         0      13       0       0       0
  4291 ;;      Temps:          0       5       0       0       0
  4292 ;;      Totals:         0      26       0       0       0
  4293 ;;Total ram usage:       26 bytes
  4294 ;; Hardware stack levels used: 1
  4295 ;; Hardware stack levels required when called: 1
  4296 ;; This function calls:
  4297 ;;		__Umul8_16
  4298 ;; This function is called by:
  4299 ;;		_main
  4300 ;;		_convert
  4301 ;; This function uses a non-reentrant model
  4302 ;;
  4303                           
  4304                           
  4305                           ;psect for function ___flmul
  4306  009A                     ___flmul:
  4307  009A                     l2534:	
  4308                           ;incstack = 0
  4309                           ; Regs used in ___flmul: [wreg+status,2+status,0+btemp+1+pclath+cstack]
  4310                           
  4311  009A  1283               	bcf	3,5	;RP0=0, select bank0
  4312  009B  1303               	bcf	3,6	;RP1=0, select bank0
  4313  009C  084F               	movf	___flmul@b+3,w
  4314  009D  3980               	andlw	128
  4315  009E  00D4               	movwf	??___flmul
  4316  009F  0854               	movf	??___flmul,w
  4317  00A0  00D9               	movwf	___flmul@sign
  4318  00A1                     l2536:
  4319  00A1  084F               	movf	___flmul@b+3,w
  4320  00A2  00D4               	movwf	??___flmul
  4321  00A3  0754               	addwf	??___flmul,w
  4322  00A4  00D5               	movwf	??___flmul+1
  4323  00A5  0855               	movf	??___flmul+1,w
  4324  00A6  00DF               	movwf	___flmul@bexp
  4325  00A7                     l2538:
  4326  00A7  1FCE               	btfss	___flmul@b+2,7
  4327  00A8  28AA               	goto	u3011
  4328  00A9  28AB               	goto	u3010
  4329  00AA                     u3011:
  4330  00AA  28AC               	goto	l2542
  4331  00AB                     u3010:
  4332  00AB                     l2540:
  4333  00AB  145F               	bsf	___flmul@bexp,0
  4334  00AC                     l2542:
  4335  00AC  085F               	movf	___flmul@bexp,w
  4336  00AD  1903               	btfsc	3,2
  4337  00AE  28B0               	goto	u3021
  4338  00AF  28B1               	goto	u3020
  4339  00B0                     u3021:
  4340  00B0  28C0               	goto	l2550
  4341  00B1                     u3020:
  4342  00B1                     l2544:
  4343  00B1  0A5F               	incf	___flmul@bexp,w
  4344  00B2  1D03               	btfss	3,2
  4345  00B3  28B5               	goto	u3031
  4346  00B4  28B6               	goto	u3030
  4347  00B5                     u3031:
  4348  00B5  28BE               	goto	l2548
  4349  00B6                     u3030:
  4350  00B6                     l2546:
  4351  00B6  3000               	movlw	0
  4352  00B7  00CF               	movwf	___flmul@b+3
  4353  00B8  3000               	movlw	0
  4354  00B9  00CE               	movwf	___flmul@b+2
  4355  00BA  3000               	movlw	0
  4356  00BB  00CD               	movwf	___flmul@b+1
  4357  00BC  3000               	movlw	0
  4358  00BD  00CC               	movwf	___flmul@b
  4359  00BE                     l2548:
  4360  00BE  17CE               	bsf	___flmul@b+2,7
  4361  00BF  28C8               	goto	l2552
  4362  00C0                     l2550:
  4363  00C0  3000               	movlw	0
  4364  00C1  00CF               	movwf	___flmul@b+3
  4365  00C2  3000               	movlw	0
  4366  00C3  00CE               	movwf	___flmul@b+2
  4367  00C4  3000               	movlw	0
  4368  00C5  00CD               	movwf	___flmul@b+1
  4369  00C6  3000               	movlw	0
  4370  00C7  00CC               	movwf	___flmul@b
  4371  00C8                     l2552:
  4372  00C8  0853               	movf	___flmul@a+3,w
  4373  00C9  3980               	andlw	128
  4374  00CA  00D4               	movwf	??___flmul
  4375  00CB  0854               	movf	??___flmul,w
  4376  00CC  06D9               	xorwf	___flmul@sign,f
  4377  00CD                     l2554:
  4378  00CD  0853               	movf	___flmul@a+3,w
  4379  00CE  00D4               	movwf	??___flmul
  4380  00CF  0754               	addwf	??___flmul,w
  4381  00D0  00D5               	movwf	??___flmul+1
  4382  00D1  0855               	movf	??___flmul+1,w
  4383  00D2  00DE               	movwf	___flmul@aexp
  4384  00D3                     l2556:
  4385  00D3  1FD2               	btfss	___flmul@a+2,7
  4386  00D4  28D6               	goto	u3041
  4387  00D5  28D7               	goto	u3040
  4388  00D6                     u3041:
  4389  00D6  28D8               	goto	l2560
  4390  00D7                     u3040:
  4391  00D7                     l2558:
  4392  00D7  145E               	bsf	___flmul@aexp,0
  4393  00D8                     l2560:
  4394  00D8  085E               	movf	___flmul@aexp,w
  4395  00D9  1903               	btfsc	3,2
  4396  00DA  28DC               	goto	u3051
  4397  00DB  28DD               	goto	u3050
  4398  00DC                     u3051:
  4399  00DC  28EC               	goto	l2568
  4400  00DD                     u3050:
  4401  00DD                     l2562:
  4402  00DD  0A5E               	incf	___flmul@aexp,w
  4403  00DE  1D03               	btfss	3,2
  4404  00DF  28E1               	goto	u3061
  4405  00E0  28E2               	goto	u3060
  4406  00E1                     u3061:
  4407  00E1  28EA               	goto	l2566
  4408  00E2                     u3060:
  4409  00E2                     l2564:
  4410  00E2  3000               	movlw	0
  4411  00E3  00D3               	movwf	___flmul@a+3
  4412  00E4  3000               	movlw	0
  4413  00E5  00D2               	movwf	___flmul@a+2
  4414  00E6  3000               	movlw	0
  4415  00E7  00D1               	movwf	___flmul@a+1
  4416  00E8  3000               	movlw	0
  4417  00E9  00D0               	movwf	___flmul@a
  4418  00EA                     l2566:
  4419  00EA  17D2               	bsf	___flmul@a+2,7
  4420  00EB  28F4               	goto	l2570
  4421  00EC                     l2568:
  4422  00EC  3000               	movlw	0
  4423  00ED  00D3               	movwf	___flmul@a+3
  4424  00EE  3000               	movlw	0
  4425  00EF  00D2               	movwf	___flmul@a+2
  4426  00F0  3000               	movlw	0
  4427  00F1  00D1               	movwf	___flmul@a+1
  4428  00F2  3000               	movlw	0
  4429  00F3  00D0               	movwf	___flmul@a
  4430  00F4                     l2570:
  4431  00F4  085E               	movf	___flmul@aexp,w
  4432  00F5  1903               	btfsc	3,2
  4433  00F6  28F8               	goto	u3071
  4434  00F7  28F9               	goto	u3070
  4435  00F8                     u3071:
  4436  00F8  28FE               	goto	l2574
  4437  00F9                     u3070:
  4438  00F9                     l2572:
  4439  00F9  085F               	movf	___flmul@bexp,w
  4440  00FA  1D03               	btfss	3,2
  4441  00FB  28FD               	goto	u3081
  4442  00FC  28FE               	goto	u3080
  4443  00FD                     u3081:
  4444  00FD  2907               	goto	l2578
  4445  00FE                     u3080:
  4446  00FE                     l2574:
  4447  00FE  3000               	movlw	0
  4448  00FF  00CF               	movwf	?___flmul+3
  4449  0100  3000               	movlw	0
  4450  0101  00CE               	movwf	?___flmul+2
  4451  0102  3000               	movlw	0
  4452  0103  00CD               	movwf	?___flmul+1
  4453  0104  3000               	movlw	0
  4454  0105  00CC               	movwf	?___flmul
  4455  0106  2BFA               	goto	l769
  4456  0107                     l2578:
  4457  0107  084C               	movf	___flmul@b,w
  4458  0108  00D4               	movwf	??___flmul
  4459  0109  0854               	movf	??___flmul,w
  4460  010A  00F0               	movwf	__Umul8_16@multiplicand
  4461  010B  0852               	movf	___flmul@a+2,w
  4462  010C  160A  118A  2673  120A  118A  	fcall	__Umul8_16
  4463  0111  0871               	movf	?__Umul8_16+1,w
  4464  0112  1283               	bcf	3,5	;RP0=0, select bank0
  4465  0113  1303               	bcf	3,6	;RP1=0, select bank0
  4466  0114  00E5               	movwf	___flmul@temp+1
  4467  0115  0870               	movf	?__Umul8_16,w
  4468  0116  00E4               	movwf	___flmul@temp
  4469  0117                     l2580:
  4470  0117  0864               	movf	___flmul@temp,w
  4471  0118  00D4               	movwf	??___flmul
  4472  0119  01D5               	clrf	??___flmul+1
  4473  011A  01D6               	clrf	??___flmul+2
  4474  011B  01D7               	clrf	??___flmul+3
  4475  011C  0857               	movf	??___flmul+3,w
  4476  011D  00DD               	movwf	___flmul@grs+3
  4477  011E  0856               	movf	??___flmul+2,w
  4478  011F  00DC               	movwf	___flmul@grs+2
  4479  0120  0855               	movf	??___flmul+1,w
  4480  0121  00DB               	movwf	___flmul@grs+1
  4481  0122  0854               	movf	??___flmul,w
  4482  0123  00DA               	movwf	___flmul@grs
  4483  0124                     l2582:
  4484  0124  0865               	movf	___flmul@temp+1,w
  4485  0125  00D4               	movwf	??___flmul
  4486  0126  01D5               	clrf	??___flmul+1
  4487  0127  01D6               	clrf	??___flmul+2
  4488  0128  01D7               	clrf	??___flmul+3
  4489  0129  0857               	movf	??___flmul+3,w
  4490  012A  00E3               	movwf	___flmul@prod+3
  4491  012B  0856               	movf	??___flmul+2,w
  4492  012C  00E2               	movwf	___flmul@prod+2
  4493  012D  0855               	movf	??___flmul+1,w
  4494  012E  00E1               	movwf	___flmul@prod+1
  4495  012F  0854               	movf	??___flmul,w
  4496  0130  00E0               	movwf	___flmul@prod
  4497  0131  084D               	movf	___flmul@b+1,w
  4498  0132  00D4               	movwf	??___flmul
  4499  0133  0854               	movf	??___flmul,w
  4500  0134  00F0               	movwf	__Umul8_16@multiplicand
  4501  0135  0851               	movf	___flmul@a+1,w
  4502  0136  160A  118A  2673  120A  118A  	fcall	__Umul8_16
  4503  013B  0871               	movf	?__Umul8_16+1,w
  4504  013C  1283               	bcf	3,5	;RP0=0, select bank0
  4505  013D  1303               	bcf	3,6	;RP1=0, select bank0
  4506  013E  00E5               	movwf	___flmul@temp+1
  4507  013F  0870               	movf	?__Umul8_16,w
  4508  0140  00E4               	movwf	___flmul@temp
  4509  0141                     l2584:
  4510  0141  0864               	movf	___flmul@temp,w
  4511  0142  00D4               	movwf	??___flmul
  4512  0143  01D5               	clrf	??___flmul+1
  4513  0144  01D6               	clrf	??___flmul+2
  4514  0145  01D7               	clrf	??___flmul+3
  4515  0146  0854               	movf	??___flmul,w
  4516  0147  07DA               	addwf	___flmul@grs,f
  4517  0148  0855               	movf	??___flmul+1,w
  4518  0149  1103               	clrz
  4519  014A  1803               	skipnc
  4520  014B  3E01               	addlw	1
  4521  014C  1903               	skipnz
  4522  014D  294F               	goto	u3091
  4523  014E  07DB               	addwf	___flmul@grs+1,f
  4524  014F                     u3091:
  4525  014F  0856               	movf	??___flmul+2,w
  4526  0150  1103               	clrz
  4527  0151  1803               	skipnc
  4528  0152  3E01               	addlw	1
  4529  0153  1903               	skipnz
  4530  0154  2956               	goto	u3092
  4531  0155  07DC               	addwf	___flmul@grs+2,f
  4532  0156                     u3092:
  4533  0156  0857               	movf	??___flmul+3,w
  4534  0157  1103               	clrz
  4535  0158  1803               	skipnc
  4536  0159  3E01               	addlw	1
  4537  015A  1903               	skipnz
  4538  015B  295D               	goto	u3093
  4539  015C  07DD               	addwf	___flmul@grs+3,f
  4540  015D                     u3093:
  4541  015D                     l2586:
  4542  015D  0865               	movf	___flmul@temp+1,w
  4543  015E  00D4               	movwf	??___flmul
  4544  015F  01D5               	clrf	??___flmul+1
  4545  0160  01D6               	clrf	??___flmul+2
  4546  0161  01D7               	clrf	??___flmul+3
  4547  0162  0854               	movf	??___flmul,w
  4548  0163  07E0               	addwf	___flmul@prod,f
  4549  0164  0855               	movf	??___flmul+1,w
  4550  0165  1103               	clrz
  4551  0166  1803               	skipnc
  4552  0167  3E01               	addlw	1
  4553  0168  1903               	skipnz
  4554  0169  296B               	goto	u3101
  4555  016A  07E1               	addwf	___flmul@prod+1,f
  4556  016B                     u3101:
  4557  016B  0856               	movf	??___flmul+2,w
  4558  016C  1103               	clrz
  4559  016D  1803               	skipnc
  4560  016E  3E01               	addlw	1
  4561  016F  1903               	skipnz
  4562  0170  2972               	goto	u3102
  4563  0171  07E2               	addwf	___flmul@prod+2,f
  4564  0172                     u3102:
  4565  0172  0857               	movf	??___flmul+3,w
  4566  0173  1103               	clrz
  4567  0174  1803               	skipnc
  4568  0175  3E01               	addlw	1
  4569  0176  1903               	skipnz
  4570  0177  2979               	goto	u3103
  4571  0178  07E3               	addwf	___flmul@prod+3,f
  4572  0179                     u3103:
  4573  0179  084E               	movf	___flmul@b+2,w
  4574  017A  00D4               	movwf	??___flmul
  4575  017B  0854               	movf	??___flmul,w
  4576  017C  00F0               	movwf	__Umul8_16@multiplicand
  4577  017D  0850               	movf	___flmul@a,w
  4578  017E  160A  118A  2673  120A  118A  	fcall	__Umul8_16
  4579  0183  0871               	movf	?__Umul8_16+1,w
  4580  0184  1283               	bcf	3,5	;RP0=0, select bank0
  4581  0185  1303               	bcf	3,6	;RP1=0, select bank0
  4582  0186  00E5               	movwf	___flmul@temp+1
  4583  0187  0870               	movf	?__Umul8_16,w
  4584  0188  00E4               	movwf	___flmul@temp
  4585  0189                     l2588:
  4586  0189  0864               	movf	___flmul@temp,w
  4587  018A  00D4               	movwf	??___flmul
  4588  018B  01D5               	clrf	??___flmul+1
  4589  018C  01D6               	clrf	??___flmul+2
  4590  018D  01D7               	clrf	??___flmul+3
  4591  018E  0854               	movf	??___flmul,w
  4592  018F  07DA               	addwf	___flmul@grs,f
  4593  0190  0855               	movf	??___flmul+1,w
  4594  0191  1103               	clrz
  4595  0192  1803               	skipnc
  4596  0193  3E01               	addlw	1
  4597  0194  1903               	skipnz
  4598  0195  2997               	goto	u3111
  4599  0196  07DB               	addwf	___flmul@grs+1,f
  4600  0197                     u3111:
  4601  0197  0856               	movf	??___flmul+2,w
  4602  0198  1103               	clrz
  4603  0199  1803               	skipnc
  4604  019A  3E01               	addlw	1
  4605  019B  1903               	skipnz
  4606  019C  299E               	goto	u3112
  4607  019D  07DC               	addwf	___flmul@grs+2,f
  4608  019E                     u3112:
  4609  019E  0857               	movf	??___flmul+3,w
  4610  019F  1103               	clrz
  4611  01A0  1803               	skipnc
  4612  01A1  3E01               	addlw	1
  4613  01A2  1903               	skipnz
  4614  01A3  29A5               	goto	u3113
  4615  01A4  07DD               	addwf	___flmul@grs+3,f
  4616  01A5                     u3113:
  4617  01A5                     l2590:
  4618  01A5  0865               	movf	___flmul@temp+1,w
  4619  01A6  00D4               	movwf	??___flmul
  4620  01A7  01D5               	clrf	??___flmul+1
  4621  01A8  01D6               	clrf	??___flmul+2
  4622  01A9  01D7               	clrf	??___flmul+3
  4623  01AA  0854               	movf	??___flmul,w
  4624  01AB  07E0               	addwf	___flmul@prod,f
  4625  01AC  0855               	movf	??___flmul+1,w
  4626  01AD  1103               	clrz
  4627  01AE  1803               	skipnc
  4628  01AF  3E01               	addlw	1
  4629  01B0  1903               	skipnz
  4630  01B1  29B3               	goto	u3121
  4631  01B2  07E1               	addwf	___flmul@prod+1,f
  4632  01B3                     u3121:
  4633  01B3  0856               	movf	??___flmul+2,w
  4634  01B4  1103               	clrz
  4635  01B5  1803               	skipnc
  4636  01B6  3E01               	addlw	1
  4637  01B7  1903               	skipnz
  4638  01B8  29BA               	goto	u3122
  4639  01B9  07E2               	addwf	___flmul@prod+2,f
  4640  01BA                     u3122:
  4641  01BA  0857               	movf	??___flmul+3,w
  4642  01BB  1103               	clrz
  4643  01BC  1803               	skipnc
  4644  01BD  3E01               	addlw	1
  4645  01BE  1903               	skipnz
  4646  01BF  29C1               	goto	u3123
  4647  01C0  07E3               	addwf	___flmul@prod+3,f
  4648  01C1                     u3123:
  4649  01C1                     l2592:
  4650  01C1  3008               	movlw	8
  4651  01C2  00D4               	movwf	??___flmul
  4652  01C3                     u3135:
  4653  01C3  1003               	clrc
  4654  01C4  0DDA               	rlf	___flmul@grs,f
  4655  01C5  0DDB               	rlf	___flmul@grs+1,f
  4656  01C6  0DDC               	rlf	___flmul@grs+2,f
  4657  01C7  0DDD               	rlf	___flmul@grs+3,f
  4658  01C8  0BD4               	decfsz	??___flmul,f
  4659  01C9  29C3               	goto	u3135
  4660  01CA                     l2594:
  4661  01CA  084D               	movf	___flmul@b+1,w
  4662  01CB  00D4               	movwf	??___flmul
  4663  01CC  0854               	movf	??___flmul,w
  4664  01CD  00F0               	movwf	__Umul8_16@multiplicand
  4665  01CE  0850               	movf	___flmul@a,w
  4666  01CF  160A  118A  2673  120A  118A  	fcall	__Umul8_16
  4667  01D4  0871               	movf	?__Umul8_16+1,w
  4668  01D5  1283               	bcf	3,5	;RP0=0, select bank0
  4669  01D6  1303               	bcf	3,6	;RP1=0, select bank0
  4670  01D7  00E5               	movwf	___flmul@temp+1
  4671  01D8  0870               	movf	?__Umul8_16,w
  4672  01D9  00E4               	movwf	___flmul@temp
  4673  01DA                     l2596:
  4674  01DA  0864               	movf	___flmul@temp,w
  4675  01DB  00D4               	movwf	??___flmul
  4676  01DC  0865               	movf	___flmul@temp+1,w
  4677  01DD  00D5               	movwf	??___flmul+1
  4678  01DE  01D6               	clrf	??___flmul+2
  4679  01DF  01D7               	clrf	??___flmul+3
  4680  01E0  0854               	movf	??___flmul,w
  4681  01E1  07DA               	addwf	___flmul@grs,f
  4682  01E2  0855               	movf	??___flmul+1,w
  4683  01E3  1103               	clrz
  4684  01E4  1803               	skipnc
  4685  01E5  3E01               	addlw	1
  4686  01E6  1903               	skipnz
  4687  01E7  29E9               	goto	u3141
  4688  01E8  07DB               	addwf	___flmul@grs+1,f
  4689  01E9                     u3141:
  4690  01E9  0856               	movf	??___flmul+2,w
  4691  01EA  1103               	clrz
  4692  01EB  1803               	skipnc
  4693  01EC  3E01               	addlw	1
  4694  01ED  1903               	skipnz
  4695  01EE  29F0               	goto	u3142
  4696  01EF  07DC               	addwf	___flmul@grs+2,f
  4697  01F0                     u3142:
  4698  01F0  0857               	movf	??___flmul+3,w
  4699  01F1  1103               	clrz
  4700  01F2  1803               	skipnc
  4701  01F3  3E01               	addlw	1
  4702  01F4  1903               	skipnz
  4703  01F5  29F7               	goto	u3143
  4704  01F6  07DD               	addwf	___flmul@grs+3,f
  4705  01F7                     u3143:
  4706  01F7                     l2598:
  4707  01F7  084C               	movf	___flmul@b,w
  4708  01F8  00D4               	movwf	??___flmul
  4709  01F9  0854               	movf	??___flmul,w
  4710  01FA  00F0               	movwf	__Umul8_16@multiplicand
  4711  01FB  0851               	movf	___flmul@a+1,w
  4712  01FC  160A  118A  2673  120A  118A  	fcall	__Umul8_16
  4713  0201  0871               	movf	?__Umul8_16+1,w
  4714  0202  1283               	bcf	3,5	;RP0=0, select bank0
  4715  0203  1303               	bcf	3,6	;RP1=0, select bank0
  4716  0204  00E5               	movwf	___flmul@temp+1
  4717  0205  0870               	movf	?__Umul8_16,w
  4718  0206  00E4               	movwf	___flmul@temp
  4719  0207                     l2600:
  4720  0207  0864               	movf	___flmul@temp,w
  4721  0208  00D4               	movwf	??___flmul
  4722  0209  0865               	movf	___flmul@temp+1,w
  4723  020A  00D5               	movwf	??___flmul+1
  4724  020B  01D6               	clrf	??___flmul+2
  4725  020C  01D7               	clrf	??___flmul+3
  4726  020D  0854               	movf	??___flmul,w
  4727  020E  07DA               	addwf	___flmul@grs,f
  4728  020F  0855               	movf	??___flmul+1,w
  4729  0210  1103               	clrz
  4730  0211  1803               	skipnc
  4731  0212  3E01               	addlw	1
  4732  0213  1903               	skipnz
  4733  0214  2A16               	goto	u3151
  4734  0215  07DB               	addwf	___flmul@grs+1,f
  4735  0216                     u3151:
  4736  0216  0856               	movf	??___flmul+2,w
  4737  0217  1103               	clrz
  4738  0218  1803               	skipnc
  4739  0219  3E01               	addlw	1
  4740  021A  1903               	skipnz
  4741  021B  2A1D               	goto	u3152
  4742  021C  07DC               	addwf	___flmul@grs+2,f
  4743  021D                     u3152:
  4744  021D  0857               	movf	??___flmul+3,w
  4745  021E  1103               	clrz
  4746  021F  1803               	skipnc
  4747  0220  3E01               	addlw	1
  4748  0221  1903               	skipnz
  4749  0222  2A24               	goto	u3153
  4750  0223  07DD               	addwf	___flmul@grs+3,f
  4751  0224                     u3153:
  4752  0224                     l2602:
  4753  0224  3008               	movlw	8
  4754  0225  00D4               	movwf	??___flmul
  4755  0226                     u3165:
  4756  0226  1003               	clrc
  4757  0227  0DDA               	rlf	___flmul@grs,f
  4758  0228  0DDB               	rlf	___flmul@grs+1,f
  4759  0229  0DDC               	rlf	___flmul@grs+2,f
  4760  022A  0DDD               	rlf	___flmul@grs+3,f
  4761  022B  0BD4               	decfsz	??___flmul,f
  4762  022C  2A26               	goto	u3165
  4763  022D  084C               	movf	___flmul@b,w
  4764  022E  00D4               	movwf	??___flmul
  4765  022F  0854               	movf	??___flmul,w
  4766  0230  00F0               	movwf	__Umul8_16@multiplicand
  4767  0231  0850               	movf	___flmul@a,w
  4768  0232  160A  118A  2673  120A  118A  	fcall	__Umul8_16
  4769  0237  0871               	movf	?__Umul8_16+1,w
  4770  0238  1283               	bcf	3,5	;RP0=0, select bank0
  4771  0239  1303               	bcf	3,6	;RP1=0, select bank0
  4772  023A  00E5               	movwf	___flmul@temp+1
  4773  023B  0870               	movf	?__Umul8_16,w
  4774  023C  00E4               	movwf	___flmul@temp
  4775  023D                     l2604:
  4776  023D  0864               	movf	___flmul@temp,w
  4777  023E  00D4               	movwf	??___flmul
  4778  023F  0865               	movf	___flmul@temp+1,w
  4779  0240  00D5               	movwf	??___flmul+1
  4780  0241  01D6               	clrf	??___flmul+2
  4781  0242  01D7               	clrf	??___flmul+3
  4782  0243  0854               	movf	??___flmul,w
  4783  0244  07DA               	addwf	___flmul@grs,f
  4784  0245  0855               	movf	??___flmul+1,w
  4785  0246  1103               	clrz
  4786  0247  1803               	skipnc
  4787  0248  3E01               	addlw	1
  4788  0249  1903               	skipnz
  4789  024A  2A4C               	goto	u3171
  4790  024B  07DB               	addwf	___flmul@grs+1,f
  4791  024C                     u3171:
  4792  024C  0856               	movf	??___flmul+2,w
  4793  024D  1103               	clrz
  4794  024E  1803               	skipnc
  4795  024F  3E01               	addlw	1
  4796  0250  1903               	skipnz
  4797  0251  2A53               	goto	u3172
  4798  0252  07DC               	addwf	___flmul@grs+2,f
  4799  0253                     u3172:
  4800  0253  0857               	movf	??___flmul+3,w
  4801  0254  1103               	clrz
  4802  0255  1803               	skipnc
  4803  0256  3E01               	addlw	1
  4804  0257  1903               	skipnz
  4805  0258  2A5A               	goto	u3173
  4806  0259  07DD               	addwf	___flmul@grs+3,f
  4807  025A                     u3173:
  4808  025A                     l2606:
  4809  025A  084D               	movf	___flmul@b+1,w
  4810  025B  00D4               	movwf	??___flmul
  4811  025C  0854               	movf	??___flmul,w
  4812  025D  00F0               	movwf	__Umul8_16@multiplicand
  4813  025E  0852               	movf	___flmul@a+2,w
  4814  025F  160A  118A  2673  120A  118A  	fcall	__Umul8_16
  4815  0264  0871               	movf	?__Umul8_16+1,w
  4816  0265  1283               	bcf	3,5	;RP0=0, select bank0
  4817  0266  1303               	bcf	3,6	;RP1=0, select bank0
  4818  0267  00E5               	movwf	___flmul@temp+1
  4819  0268  0870               	movf	?__Umul8_16,w
  4820  0269  00E4               	movwf	___flmul@temp
  4821  026A  0864               	movf	___flmul@temp,w
  4822  026B  00D4               	movwf	??___flmul
  4823  026C  0865               	movf	___flmul@temp+1,w
  4824  026D  00D5               	movwf	??___flmul+1
  4825  026E  01D6               	clrf	??___flmul+2
  4826  026F  01D7               	clrf	??___flmul+3
  4827  0270  0854               	movf	??___flmul,w
  4828  0271  07E0               	addwf	___flmul@prod,f
  4829  0272  0855               	movf	??___flmul+1,w
  4830  0273  1103               	clrz
  4831  0274  1803               	skipnc
  4832  0275  3E01               	addlw	1
  4833  0276  1903               	skipnz
  4834  0277  2A79               	goto	u3181
  4835  0278  07E1               	addwf	___flmul@prod+1,f
  4836  0279                     u3181:
  4837  0279  0856               	movf	??___flmul+2,w
  4838  027A  1103               	clrz
  4839  027B  1803               	skipnc
  4840  027C  3E01               	addlw	1
  4841  027D  1903               	skipnz
  4842  027E  2A80               	goto	u3182
  4843  027F  07E2               	addwf	___flmul@prod+2,f
  4844  0280                     u3182:
  4845  0280  0857               	movf	??___flmul+3,w
  4846  0281  1103               	clrz
  4847  0282  1803               	skipnc
  4848  0283  3E01               	addlw	1
  4849  0284  1903               	skipnz
  4850  0285  2A87               	goto	u3183
  4851  0286  07E3               	addwf	___flmul@prod+3,f
  4852  0287                     u3183:
  4853  0287                     l2608:
  4854  0287  084E               	movf	___flmul@b+2,w
  4855  0288  00D4               	movwf	??___flmul
  4856  0289  0854               	movf	??___flmul,w
  4857  028A  00F0               	movwf	__Umul8_16@multiplicand
  4858  028B  0851               	movf	___flmul@a+1,w
  4859  028C  160A  118A  2673  120A  118A  	fcall	__Umul8_16
  4860  0291  0871               	movf	?__Umul8_16+1,w
  4861  0292  1283               	bcf	3,5	;RP0=0, select bank0
  4862  0293  1303               	bcf	3,6	;RP1=0, select bank0
  4863  0294  00E5               	movwf	___flmul@temp+1
  4864  0295  0870               	movf	?__Umul8_16,w
  4865  0296  00E4               	movwf	___flmul@temp
  4866  0297                     l2610:
  4867  0297  0864               	movf	___flmul@temp,w
  4868  0298  00D4               	movwf	??___flmul
  4869  0299  0865               	movf	___flmul@temp+1,w
  4870  029A  00D5               	movwf	??___flmul+1
  4871  029B  01D6               	clrf	??___flmul+2
  4872  029C  01D7               	clrf	??___flmul+3
  4873  029D  0854               	movf	??___flmul,w
  4874  029E  07E0               	addwf	___flmul@prod,f
  4875  029F  0855               	movf	??___flmul+1,w
  4876  02A0  1103               	clrz
  4877  02A1  1803               	skipnc
  4878  02A2  3E01               	addlw	1
  4879  02A3  1903               	skipnz
  4880  02A4  2AA6               	goto	u3191
  4881  02A5  07E1               	addwf	___flmul@prod+1,f
  4882  02A6                     u3191:
  4883  02A6  0856               	movf	??___flmul+2,w
  4884  02A7  1103               	clrz
  4885  02A8  1803               	skipnc
  4886  02A9  3E01               	addlw	1
  4887  02AA  1903               	skipnz
  4888  02AB  2AAD               	goto	u3192
  4889  02AC  07E2               	addwf	___flmul@prod+2,f
  4890  02AD                     u3192:
  4891  02AD  0857               	movf	??___flmul+3,w
  4892  02AE  1103               	clrz
  4893  02AF  1803               	skipnc
  4894  02B0  3E01               	addlw	1
  4895  02B1  1903               	skipnz
  4896  02B2  2AB4               	goto	u3193
  4897  02B3  07E3               	addwf	___flmul@prod+3,f
  4898  02B4                     u3193:
  4899  02B4  084E               	movf	___flmul@b+2,w
  4900  02B5  00D4               	movwf	??___flmul
  4901  02B6  0854               	movf	??___flmul,w
  4902  02B7  00F0               	movwf	__Umul8_16@multiplicand
  4903  02B8  0852               	movf	___flmul@a+2,w
  4904  02B9  160A  118A  2673  120A  118A  	fcall	__Umul8_16
  4905  02BE  0871               	movf	?__Umul8_16+1,w
  4906  02BF  1283               	bcf	3,5	;RP0=0, select bank0
  4907  02C0  1303               	bcf	3,6	;RP1=0, select bank0
  4908  02C1  00E5               	movwf	___flmul@temp+1
  4909  02C2  0870               	movf	?__Umul8_16,w
  4910  02C3  00E4               	movwf	___flmul@temp
  4911  02C4                     l2612:
  4912  02C4  0864               	movf	___flmul@temp,w
  4913  02C5  00D4               	movwf	??___flmul
  4914  02C6  0865               	movf	___flmul@temp+1,w
  4915  02C7  00D5               	movwf	??___flmul+1
  4916  02C8  01D6               	clrf	??___flmul+2
  4917  02C9  01D7               	clrf	??___flmul+3
  4918  02CA  3008               	movlw	8
  4919  02CB                     u3205:
  4920  02CB  1003               	clrc
  4921  02CC  0DD4               	rlf	??___flmul,f
  4922  02CD  0DD5               	rlf	??___flmul+1,f
  4923  02CE  0DD6               	rlf	??___flmul+2,f
  4924  02CF  0DD7               	rlf	??___flmul+3,f
  4925  02D0                     u3200:
  4926  02D0  3EFF               	addlw	-1
  4927  02D1  1D03               	skipz
  4928  02D2  2ACB               	goto	u3205
  4929  02D3  0854               	movf	??___flmul,w
  4930  02D4  07E0               	addwf	___flmul@prod,f
  4931  02D5  0855               	movf	??___flmul+1,w
  4932  02D6  1103               	clrz
  4933  02D7  1803               	skipnc
  4934  02D8  3E01               	addlw	1
  4935  02D9  1903               	skipnz
  4936  02DA  2ADC               	goto	u3211
  4937  02DB  07E1               	addwf	___flmul@prod+1,f
  4938  02DC                     u3211:
  4939  02DC  0856               	movf	??___flmul+2,w
  4940  02DD  1103               	clrz
  4941  02DE  1803               	skipnc
  4942  02DF  3E01               	addlw	1
  4943  02E0  1903               	skipnz
  4944  02E1  2AE3               	goto	u3212
  4945  02E2  07E2               	addwf	___flmul@prod+2,f
  4946  02E3                     u3212:
  4947  02E3  0857               	movf	??___flmul+3,w
  4948  02E4  1103               	clrz
  4949  02E5  1803               	skipnc
  4950  02E6  3E01               	addlw	1
  4951  02E7  1903               	skipnz
  4952  02E8  2AEA               	goto	u3213
  4953  02E9  07E3               	addwf	___flmul@prod+3,f
  4954  02EA                     u3213:
  4955  02EA                     l2614:
  4956  02EA  085A               	movf	___flmul@grs,w
  4957  02EB  00D4               	movwf	??___flmul
  4958  02EC  085B               	movf	___flmul@grs+1,w
  4959  02ED  00D5               	movwf	??___flmul+1
  4960  02EE  085C               	movf	___flmul@grs+2,w
  4961  02EF  00D6               	movwf	??___flmul+2
  4962  02F0  085D               	movf	___flmul@grs+3,w
  4963  02F1  00D7               	movwf	??___flmul+3
  4964  02F2  3018               	movlw	24
  4965  02F3                     u3225:
  4966  02F3  1003               	clrc
  4967  02F4  0CD7               	rrf	??___flmul+3,f
  4968  02F5  0CD6               	rrf	??___flmul+2,f
  4969  02F6  0CD5               	rrf	??___flmul+1,f
  4970  02F7  0CD4               	rrf	??___flmul,f
  4971  02F8                     u3220:
  4972  02F8  3EFF               	addlw	-1
  4973  02F9  1D03               	skipz
  4974  02FA  2AF3               	goto	u3225
  4975  02FB  0854               	movf	??___flmul,w
  4976  02FC  07E0               	addwf	___flmul@prod,f
  4977  02FD  0855               	movf	??___flmul+1,w
  4978  02FE  1103               	clrz
  4979  02FF  1803               	skipnc
  4980  0300  3E01               	addlw	1
  4981  0301  1903               	skipnz
  4982  0302  2B04               	goto	u3231
  4983  0303  07E1               	addwf	___flmul@prod+1,f
  4984  0304                     u3231:
  4985  0304  0856               	movf	??___flmul+2,w
  4986  0305  1103               	clrz
  4987  0306  1803               	skipnc
  4988  0307  3E01               	addlw	1
  4989  0308  1903               	skipnz
  4990  0309  2B0B               	goto	u3232
  4991  030A  07E2               	addwf	___flmul@prod+2,f
  4992  030B                     u3232:
  4993  030B  0857               	movf	??___flmul+3,w
  4994  030C  1103               	clrz
  4995  030D  1803               	skipnc
  4996  030E  3E01               	addlw	1
  4997  030F  1903               	skipnz
  4998  0310  2B12               	goto	u3233
  4999  0311  07E3               	addwf	___flmul@prod+3,f
  5000  0312                     u3233:
  5001  0312                     l2616:
  5002  0312  3008               	movlw	8
  5003  0313  00D4               	movwf	??___flmul
  5004  0314                     u3245:
  5005  0314  1003               	clrc
  5006  0315  0DDA               	rlf	___flmul@grs,f
  5007  0316  0DDB               	rlf	___flmul@grs+1,f
  5008  0317  0DDC               	rlf	___flmul@grs+2,f
  5009  0318  0DDD               	rlf	___flmul@grs+3,f
  5010  0319  0BD4               	decfsz	??___flmul,f
  5011  031A  2B14               	goto	u3245
  5012  031B                     l2618:
  5013  031B  085F               	movf	___flmul@bexp,w
  5014  031C  075E               	addwf	___flmul@aexp,w
  5015  031D  00D4               	movwf	??___flmul
  5016  031E  01D5               	clrf	??___flmul+1
  5017  031F  0DD5               	rlf	??___flmul+1,f
  5018  0320  0854               	movf	??___flmul,w
  5019  0321  3E82               	addlw	130
  5020  0322  00E4               	movwf	___flmul@temp
  5021  0323  0855               	movf	??___flmul+1,w
  5022  0324  1803               	skipnc
  5023  0325  3E01               	addlw	1
  5024  0326  3EFF               	addlw	255
  5025  0327  00E5               	movwf	___flmul@temp+1
  5026  0328  2B46               	goto	l2630
  5027  0329                     l2620:
  5028  0329  3001               	movlw	1
  5029  032A  00D4               	movwf	??___flmul
  5030  032B                     u3255:
  5031  032B  1003               	clrc
  5032  032C  0DE0               	rlf	___flmul@prod,f
  5033  032D  0DE1               	rlf	___flmul@prod+1,f
  5034  032E  0DE2               	rlf	___flmul@prod+2,f
  5035  032F  0DE3               	rlf	___flmul@prod+3,f
  5036  0330  0BD4               	decfsz	??___flmul,f
  5037  0331  2B2B               	goto	u3255
  5038  0332                     l2622:
  5039  0332  1FDD               	btfss	___flmul@grs+3,7
  5040  0333  2B35               	goto	u3261
  5041  0334  2B36               	goto	u3260
  5042  0335                     u3261:
  5043  0335  2B37               	goto	l2626
  5044  0336                     u3260:
  5045  0336                     l2624:
  5046  0336  1460               	bsf	___flmul@prod,0
  5047  0337                     l2626:
  5048  0337  3001               	movlw	1
  5049  0338  00D4               	movwf	??___flmul
  5050  0339                     u3275:
  5051  0339  1003               	clrc
  5052  033A  0DDA               	rlf	___flmul@grs,f
  5053  033B  0DDB               	rlf	___flmul@grs+1,f
  5054  033C  0DDC               	rlf	___flmul@grs+2,f
  5055  033D  0DDD               	rlf	___flmul@grs+3,f
  5056  033E  0BD4               	decfsz	??___flmul,f
  5057  033F  2B39               	goto	u3275
  5058  0340                     l2628:
  5059  0340  30FF               	movlw	255
  5060  0341  07E4               	addwf	___flmul@temp,f
  5061  0342  1803               	skipnc
  5062  0343  0AE5               	incf	___flmul@temp+1,f
  5063  0344  30FF               	movlw	255
  5064  0345  07E5               	addwf	___flmul@temp+1,f
  5065  0346                     l2630:
  5066  0346  1FE2               	btfss	___flmul@prod+2,7
  5067  0347  2B49               	goto	u3281
  5068  0348  2B4A               	goto	u3280
  5069  0349                     u3281:
  5070  0349  2B29               	goto	l2620
  5071  034A                     u3280:
  5072  034A                     l2632:
  5073  034A  01DE               	clrf	___flmul@aexp
  5074  034B                     l2634:
  5075  034B  1FDD               	btfss	___flmul@grs+3,7
  5076  034C  2B4E               	goto	u3291
  5077  034D  2B4F               	goto	u3290
  5078  034E                     u3291:
  5079  034E  2B6B               	goto	l2642
  5080  034F                     u3290:
  5081  034F                     l2636:
  5082  034F  30FF               	movlw	255
  5083  0350  055A               	andwf	___flmul@grs,w
  5084  0351  00D4               	movwf	??___flmul
  5085  0352  30FF               	movlw	255
  5086  0353  055B               	andwf	___flmul@grs+1,w
  5087  0354  00D5               	movwf	??___flmul+1
  5088  0355  30FF               	movlw	255
  5089  0356  055C               	andwf	___flmul@grs+2,w
  5090  0357  00D6               	movwf	??___flmul+2
  5091  0358  307F               	movlw	127
  5092  0359  055D               	andwf	___flmul@grs+3,w
  5093  035A  00D7               	movwf	??___flmul+3
  5094  035B  0857               	movf	??___flmul+3,w
  5095  035C  0456               	iorwf	??___flmul+2,w
  5096  035D  0455               	iorwf	??___flmul+1,w
  5097  035E  0454               	iorwf	??___flmul,w
  5098  035F  1903               	skipnz
  5099  0360  2B62               	goto	u3301
  5100  0361  2B63               	goto	u3300
  5101  0362                     u3301:
  5102  0362  2B66               	goto	l775
  5103  0363                     u3300:
  5104  0363                     l2638:
  5105  0363  01DE               	clrf	___flmul@aexp
  5106  0364  0ADE               	incf	___flmul@aexp,f
  5107  0365  2B6B               	goto	l2642
  5108  0366                     l775:
  5109  0366  1C60               	btfss	___flmul@prod,0
  5110  0367  2B69               	goto	u3311
  5111  0368  2B6A               	goto	u3310
  5112  0369                     u3311:
  5113  0369  2B6B               	goto	l2642
  5114  036A                     u3310:
  5115  036A  2B63               	goto	l2638
  5116  036B                     l2642:
  5117  036B  085E               	movf	___flmul@aexp,w
  5118  036C  1903               	btfsc	3,2
  5119  036D  2B6F               	goto	u3321
  5120  036E  2B70               	goto	u3320
  5121  036F                     u3321:
  5122  036F  2BA1               	goto	l2652
  5123  0370                     u3320:
  5124  0370                     l2644:
  5125  0370  3001               	movlw	1
  5126  0371  07E0               	addwf	___flmul@prod,f
  5127  0372  3000               	movlw	0
  5128  0373  1803               	skipnc
  5129  0374  3001               	movlw	1
  5130  0375  07E1               	addwf	___flmul@prod+1,f
  5131  0376  3000               	movlw	0
  5132  0377  1803               	skipnc
  5133  0378  3001               	movlw	1
  5134  0379  07E2               	addwf	___flmul@prod+2,f
  5135  037A  3000               	movlw	0
  5136  037B  1803               	skipnc
  5137  037C  3001               	movlw	1
  5138  037D  07E3               	addwf	___flmul@prod+3,f
  5139  037E                     l2646:
  5140  037E  1C63               	btfss	___flmul@prod+3,0
  5141  037F  2B81               	goto	u3331
  5142  0380  2B82               	goto	u3330
  5143  0381                     u3331:
  5144  0381  2BA1               	goto	l2652
  5145  0382                     u3330:
  5146  0382                     l2648:
  5147  0382  0860               	movf	___flmul@prod,w
  5148  0383  00D4               	movwf	??___flmul
  5149  0384  0861               	movf	___flmul@prod+1,w
  5150  0385  00D5               	movwf	??___flmul+1
  5151  0386  0862               	movf	___flmul@prod+2,w
  5152  0387  00D6               	movwf	??___flmul+2
  5153  0388  0863               	movf	___flmul@prod+3,w
  5154  0389  00D7               	movwf	??___flmul+3
  5155  038A  3001               	movlw	1
  5156  038B  00D8               	movwf	??___flmul+4
  5157  038C                     u3345:
  5158  038C  0D57               	rlf	??___flmul+3,w
  5159  038D  0CD7               	rrf	??___flmul+3,f
  5160  038E  0CD6               	rrf	??___flmul+2,f
  5161  038F  0CD5               	rrf	??___flmul+1,f
  5162  0390  0CD4               	rrf	??___flmul,f
  5163  0391                     u3340:
  5164  0391  0BD8               	decfsz	??___flmul+4,f
  5165  0392  2B8C               	goto	u3345
  5166  0393  0857               	movf	??___flmul+3,w
  5167  0394  00E3               	movwf	___flmul@prod+3
  5168  0395  0856               	movf	??___flmul+2,w
  5169  0396  00E2               	movwf	___flmul@prod+2
  5170  0397  0855               	movf	??___flmul+1,w
  5171  0398  00E1               	movwf	___flmul@prod+1
  5172  0399  0854               	movf	??___flmul,w
  5173  039A  00E0               	movwf	___flmul@prod
  5174  039B                     l2650:
  5175  039B  3001               	movlw	1
  5176  039C  07E4               	addwf	___flmul@temp,f
  5177  039D  1803               	skipnc
  5178  039E  0AE5               	incf	___flmul@temp+1,f
  5179  039F  3000               	movlw	0
  5180  03A0  07E5               	addwf	___flmul@temp+1,f
  5181  03A1                     l2652:
  5182  03A1  0865               	movf	___flmul@temp+1,w
  5183  03A2  3A80               	xorlw	128
  5184  03A3  00FF               	movwf	btemp+1
  5185  03A4  3080               	movlw	128
  5186  03A5  027F               	subwf	btemp+1,w
  5187  03A6  1D03               	skipz
  5188  03A7  2BAA               	goto	u3355
  5189  03A8  30FF               	movlw	255
  5190  03A9  0264               	subwf	___flmul@temp,w
  5191  03AA                     u3355:
  5192  03AA  1C03               	skipc
  5193  03AB  2BAD               	goto	u3351
  5194  03AC  2BAE               	goto	u3350
  5195  03AD                     u3351:
  5196  03AD  2BB9               	goto	l2656
  5197  03AE                     u3350:
  5198  03AE                     l2654:
  5199  03AE  307F               	movlw	127
  5200  03AF  1283               	bcf	3,5	;RP0=0, select bank0
  5201  03B0  1303               	bcf	3,6	;RP1=0, select bank0
  5202  03B1  00E3               	movwf	___flmul@prod+3
  5203  03B2  3080               	movlw	128
  5204  03B3  00E2               	movwf	___flmul@prod+2
  5205  03B4  3000               	movlw	0
  5206  03B5  00E1               	movwf	___flmul@prod+1
  5207  03B6  3000               	movlw	0
  5208  03B7  00E0               	movwf	___flmul@prod
  5209  03B8  2BEE               	goto	l781
  5210  03B9                     l2656:
  5211  03B9  1283               	bcf	3,5	;RP0=0, select bank0
  5212  03BA  1303               	bcf	3,6	;RP1=0, select bank0
  5213  03BB  0865               	movf	___flmul@temp+1,w
  5214  03BC  3A80               	xorlw	128
  5215  03BD  00FF               	movwf	btemp+1
  5216  03BE  3080               	movlw	128
  5217  03BF  027F               	subwf	btemp+1,w
  5218  03C0  1D03               	skipz
  5219  03C1  2BC4               	goto	u3365
  5220  03C2  3001               	movlw	1
  5221  03C3  0264               	subwf	___flmul@temp,w
  5222  03C4                     u3365:
  5223  03C4  1803               	skipnc
  5224  03C5  2BC7               	goto	u3361
  5225  03C6  2BC8               	goto	u3360
  5226  03C7                     u3361:
  5227  03C7  2BD4               	goto	l2662
  5228  03C8                     u3360:
  5229  03C8                     l2658:
  5230  03C8  3000               	movlw	0
  5231  03C9  1283               	bcf	3,5	;RP0=0, select bank0
  5232  03CA  1303               	bcf	3,6	;RP1=0, select bank0
  5233  03CB  00E3               	movwf	___flmul@prod+3
  5234  03CC  3000               	movlw	0
  5235  03CD  00E2               	movwf	___flmul@prod+2
  5236  03CE  3000               	movlw	0
  5237  03CF  00E1               	movwf	___flmul@prod+1
  5238  03D0  3000               	movlw	0
  5239  03D1  00E0               	movwf	___flmul@prod
  5240  03D2                     l2660:
  5241  03D2  01D9               	clrf	___flmul@sign
  5242  03D3  2BEE               	goto	l781
  5243  03D4                     l2662:
  5244  03D4  1283               	bcf	3,5	;RP0=0, select bank0
  5245  03D5  1303               	bcf	3,6	;RP1=0, select bank0
  5246  03D6  0864               	movf	___flmul@temp,w
  5247  03D7  00D4               	movwf	??___flmul
  5248  03D8  0854               	movf	??___flmul,w
  5249  03D9  00DF               	movwf	___flmul@bexp
  5250  03DA  30FF               	movlw	255
  5251  03DB  05E0               	andwf	___flmul@prod,f
  5252  03DC  30FF               	movlw	255
  5253  03DD  05E1               	andwf	___flmul@prod+1,f
  5254  03DE  307F               	movlw	127
  5255  03DF  05E2               	andwf	___flmul@prod+2,f
  5256  03E0  3000               	movlw	0
  5257  03E1  05E3               	andwf	___flmul@prod+3,f
  5258  03E2                     l2664:
  5259  03E2  1C5F               	btfss	___flmul@bexp,0
  5260  03E3  2BE5               	goto	u3371
  5261  03E4  2BE6               	goto	u3370
  5262  03E5                     u3371:
  5263  03E5  2BE7               	goto	l2668
  5264  03E6                     u3370:
  5265  03E6                     l2666:
  5266  03E6  17E2               	bsf	___flmul@prod+2,7
  5267  03E7                     l2668:
  5268  03E7  085F               	movf	___flmul@bexp,w
  5269  03E8  00D4               	movwf	??___flmul
  5270  03E9  1003               	clrc
  5271  03EA  0C54               	rrf	??___flmul,w
  5272  03EB  00D5               	movwf	??___flmul+1
  5273  03EC  0855               	movf	??___flmul+1,w
  5274  03ED  00E3               	movwf	___flmul@prod+3
  5275  03EE                     l781:
  5276  03EE  0859               	movf	___flmul@sign,w
  5277  03EF  00D4               	movwf	??___flmul
  5278  03F0  0854               	movf	??___flmul,w
  5279  03F1  04E3               	iorwf	___flmul@prod+3,f
  5280  03F2                     l2670:
  5281  03F2  0863               	movf	___flmul@prod+3,w
  5282  03F3  00CF               	movwf	?___flmul+3
  5283  03F4  0862               	movf	___flmul@prod+2,w
  5284  03F5  00CE               	movwf	?___flmul+2
  5285  03F6  0861               	movf	___flmul@prod+1,w
  5286  03F7  00CD               	movwf	?___flmul+1
  5287  03F8  0860               	movf	___flmul@prod,w
  5288  03F9  00CC               	movwf	?___flmul
  5289  03FA                     l769:
  5290  03FA  0008               	return
  5291  03FB                     __end_of___flmul:
  5292                           
  5293                           	psect	text11
  5294  1673                     __ptext11:	
  5295 ;; *************** function __Umul8_16 *****************
  5296 ;; Defined at:
  5297 ;;		line 4 in file "C:\Program Files\Microchip\xc8\v2.32\pic\sources\c90\common\Umul8_16.c"
  5298 ;; Parameters:    Size  Location     Type
  5299 ;;  multiplier      1    wreg     unsigned char 
  5300 ;;  multiplicand    1    0[COMMON] unsigned char 
  5301 ;; Auto vars:     Size  Location     Type
  5302 ;;  multiplier      1    8[COMMON] unsigned char 
  5303 ;;  word_mpld       2    6[COMMON] unsigned int 
  5304 ;;  product         2    4[COMMON] unsigned int 
  5305 ;; Return value:  Size  Location     Type
  5306 ;;                  2    0[COMMON] unsigned int 
  5307 ;; Registers used:
  5308 ;;		wreg, status,2, status,0
  5309 ;; Tracked objects:
  5310 ;;		On entry : 0/0
  5311 ;;		On exit  : 0/0
  5312 ;;		Unchanged: 0/0
  5313 ;; Data sizes:     COMMON   BANK0   BANK1   BANK3   BANK2
  5314 ;;      Params:         2       0       0       0       0
  5315 ;;      Locals:         5       0       0       0       0
  5316 ;;      Temps:          2       0       0       0       0
  5317 ;;      Totals:         9       0       0       0       0
  5318 ;;Total ram usage:        9 bytes
  5319 ;; Hardware stack levels used: 1
  5320 ;; This function calls:
  5321 ;;		Nothing
  5322 ;; This function is called by:
  5323 ;;		___flmul
  5324 ;; This function uses a non-reentrant model
  5325 ;;
  5326                           
  5327                           
  5328                           ;psect for function __Umul8_16
  5329  1673                     __Umul8_16:
  5330                           
  5331                           ;incstack = 0
  5332                           ; Regs used in __Umul8_16: [wreg+status,2+status,0]
  5333                           ;__Umul8_16@multiplier stored from wreg
  5334  1673  00F8               	movwf	__Umul8_16@multiplier
  5335  1674                     l2198:
  5336  1674  01F4               	clrf	__Umul8_16@product
  5337  1675  01F5               	clrf	__Umul8_16@product+1
  5338  1676                     l2200:
  5339  1676  0870               	movf	__Umul8_16@multiplicand,w
  5340  1677  00F2               	movwf	??__Umul8_16
  5341  1678  01F3               	clrf	??__Umul8_16+1
  5342  1679  0872               	movf	??__Umul8_16,w
  5343  167A  00F6               	movwf	__Umul8_16@word_mpld
  5344  167B  0873               	movf	??__Umul8_16+1,w
  5345  167C  00F7               	movwf	__Umul8_16@word_mpld+1
  5346  167D                     l2202:
  5347  167D  1C78               	btfss	__Umul8_16@multiplier,0
  5348  167E  2E80               	goto	u2341
  5349  167F  2E81               	goto	u2340
  5350  1680                     u2341:
  5351  1680  2E87               	goto	l788
  5352  1681                     u2340:
  5353  1681                     l2204:
  5354  1681  0876               	movf	__Umul8_16@word_mpld,w
  5355  1682  07F4               	addwf	__Umul8_16@product,f
  5356  1683  1803               	skipnc
  5357  1684  0AF5               	incf	__Umul8_16@product+1,f
  5358  1685  0877               	movf	__Umul8_16@word_mpld+1,w
  5359  1686  07F5               	addwf	__Umul8_16@product+1,f
  5360  1687                     l788:
  5361  1687  3001               	movlw	1
  5362  1688                     u2355:
  5363  1688  1003               	clrc
  5364  1689  0DF6               	rlf	__Umul8_16@word_mpld,f
  5365  168A  0DF7               	rlf	__Umul8_16@word_mpld+1,f
  5366  168B  3EFF               	addlw	-1
  5367  168C  1D03               	skipz
  5368  168D  2E88               	goto	u2355
  5369  168E  1003               	clrc
  5370  168F  0CF8               	rrf	__Umul8_16@multiplier,f
  5371  1690                     l2206:
  5372  1690  0878               	movf	__Umul8_16@multiplier,w
  5373  1691  1D03               	btfss	3,2
  5374  1692  2E94               	goto	u2361
  5375  1693  2E95               	goto	u2360
  5376  1694                     u2361:
  5377  1694  2E7D               	goto	l2202
  5378  1695                     u2360:
  5379  1695                     l2208:
  5380  1695  0875               	movf	__Umul8_16@product+1,w
  5381  1696  00F1               	movwf	?__Umul8_16+1
  5382  1697  0874               	movf	__Umul8_16@product,w
  5383  1698  00F0               	movwf	?__Umul8_16
  5384  1699                     l790:
  5385  1699  0008               	return
  5386  169A                     __end_of__Umul8_16:
  5387                           
  5388                           	psect	text12
  5389  089F                     __ptext12:	
  5390 ;; *************** function ___flge *****************
  5391 ;; Defined at:
  5392 ;;		line 4 in file "C:\Program Files\Microchip\xc8\v2.32\pic\sources\c90\common\flge.c"
  5393 ;; Parameters:    Size  Location     Type
  5394 ;;  ff1             4    0[COMMON] unsigned int 
  5395 ;;  ff2             4    4[COMMON] unsigned int 
  5396 ;; Auto vars:     Size  Location     Type
  5397 ;;		None
  5398 ;; Return value:  Size  Location     Type
  5399 ;;		None               void
  5400 ;; Registers used:
  5401 ;;		wreg, status,2, status,0
  5402 ;; Tracked objects:
  5403 ;;		On entry : 0/0
  5404 ;;		On exit  : 0/0
  5405 ;;		Unchanged: 0/0
  5406 ;; Data sizes:     COMMON   BANK0   BANK1   BANK3   BANK2
  5407 ;;      Params:         8       0       0       0       0
  5408 ;;      Locals:         0       0       0       0       0
  5409 ;;      Temps:          4       0       0       0       0
  5410 ;;      Totals:        12       0       0       0       0
  5411 ;;Total ram usage:       12 bytes
  5412 ;; Hardware stack levels used: 1
  5413 ;; This function calls:
  5414 ;;		Nothing
  5415 ;; This function is called by:
  5416 ;;		_convert
  5417 ;; This function uses a non-reentrant model
  5418 ;;
  5419                           
  5420                           
  5421                           ;psect for function ___flge
  5422  089F                     ___flge:
  5423  089F                     l2330:	
  5424                           ;incstack = 0
  5425                           ; Regs used in ___flge: [wreg+status,2+status,0]
  5426                           
  5427  089F  3000               	movlw	0
  5428  08A0  0570               	andwf	___flge@ff1,w
  5429  08A1  00F8               	movwf	??___flge
  5430  08A2  3000               	movlw	0
  5431  08A3  0571               	andwf	___flge@ff1+1,w
  5432  08A4  00F9               	movwf	??___flge+1
  5433  08A5  3080               	movlw	128
  5434  08A6  0572               	andwf	___flge@ff1+2,w
  5435  08A7  00FA               	movwf	??___flge+2
  5436  08A8  307F               	movlw	127
  5437  08A9  0573               	andwf	___flge@ff1+3,w
  5438  08AA  00FB               	movwf	??___flge+3
  5439  08AB  087B               	movf	??___flge+3,w
  5440  08AC  047A               	iorwf	??___flge+2,w
  5441  08AD  0479               	iorwf	??___flge+1,w
  5442  08AE  0478               	iorwf	??___flge,w
  5443  08AF  1D03               	skipz
  5444  08B0  28B2               	goto	u2551
  5445  08B1  28B3               	goto	u2550
  5446  08B2                     u2551:
  5447  08B2  28BB               	goto	l554
  5448  08B3                     u2550:
  5449  08B3                     l2332:
  5450  08B3  3000               	movlw	0
  5451  08B4  00F3               	movwf	___flge@ff1+3
  5452  08B5  3000               	movlw	0
  5453  08B6  00F2               	movwf	___flge@ff1+2
  5454  08B7  3000               	movlw	0
  5455  08B8  00F1               	movwf	___flge@ff1+1
  5456  08B9  3000               	movlw	0
  5457  08BA  00F0               	movwf	___flge@ff1
  5458  08BB                     l554:
  5459  08BB  3000               	movlw	0
  5460  08BC  0574               	andwf	___flge@ff2,w
  5461  08BD  00F8               	movwf	??___flge
  5462  08BE  3000               	movlw	0
  5463  08BF  0575               	andwf	___flge@ff2+1,w
  5464  08C0  00F9               	movwf	??___flge+1
  5465  08C1  3080               	movlw	128
  5466  08C2  0576               	andwf	___flge@ff2+2,w
  5467  08C3  00FA               	movwf	??___flge+2
  5468  08C4  307F               	movlw	127
  5469  08C5  0577               	andwf	___flge@ff2+3,w
  5470  08C6  00FB               	movwf	??___flge+3
  5471  08C7  087B               	movf	??___flge+3,w
  5472  08C8  047A               	iorwf	??___flge+2,w
  5473  08C9  0479               	iorwf	??___flge+1,w
  5474  08CA  0478               	iorwf	??___flge,w
  5475  08CB  1D03               	skipz
  5476  08CC  28CE               	goto	u2561
  5477  08CD  28CF               	goto	u2560
  5478  08CE                     u2561:
  5479  08CE  28D7               	goto	l2336
  5480  08CF                     u2560:
  5481  08CF                     l2334:
  5482  08CF  3000               	movlw	0
  5483  08D0  00F7               	movwf	___flge@ff2+3
  5484  08D1  3000               	movlw	0
  5485  08D2  00F6               	movwf	___flge@ff2+2
  5486  08D3  3000               	movlw	0
  5487  08D4  00F5               	movwf	___flge@ff2+1
  5488  08D5  3000               	movlw	0
  5489  08D6  00F4               	movwf	___flge@ff2
  5490  08D7                     l2336:
  5491  08D7  1FF3               	btfss	___flge@ff1+3,7
  5492  08D8  28DA               	goto	u2571
  5493  08D9  28DB               	goto	u2570
  5494  08DA                     u2571:
  5495  08DA  28FF               	goto	l2340
  5496  08DB                     u2570:
  5497  08DB                     l2338:
  5498  08DB  3000               	movlw	0
  5499  08DC  00F8               	movwf	??___flge
  5500  08DD  3000               	movlw	0
  5501  08DE  00F9               	movwf	??___flge+1
  5502  08DF  3000               	movlw	0
  5503  08E0  00FA               	movwf	??___flge+2
  5504  08E1  3080               	movlw	128
  5505  08E2  00FB               	movwf	??___flge+3
  5506  08E3  0870               	movf	___flge@ff1,w
  5507  08E4  02F8               	subwf	??___flge,f
  5508  08E5  0871               	movf	___flge@ff1+1,w
  5509  08E6  1C03               	skipc
  5510  08E7  0F71               	incfsz	___flge@ff1+1,w
  5511  08E8  28EA               	goto	u2581
  5512  08E9  28EB               	goto	u2582
  5513  08EA                     u2581:
  5514  08EA  02F9               	subwf	??___flge+1,f
  5515  08EB                     u2582:
  5516  08EB  0872               	movf	___flge@ff1+2,w
  5517  08EC  1C03               	skipc
  5518  08ED  0F72               	incfsz	___flge@ff1+2,w
  5519  08EE  28F0               	goto	u2583
  5520  08EF  28F1               	goto	u2584
  5521  08F0                     u2583:
  5522  08F0  02FA               	subwf	??___flge+2,f
  5523  08F1                     u2584:
  5524  08F1  0873               	movf	___flge@ff1+3,w
  5525  08F2  1C03               	skipc
  5526  08F3  0F73               	incfsz	___flge@ff1+3,w
  5527  08F4  28F6               	goto	u2585
  5528  08F5  28F7               	goto	u2586
  5529  08F6                     u2585:
  5530  08F6  02FB               	subwf	??___flge+3,f
  5531  08F7                     u2586:
  5532  08F7  087B               	movf	??___flge+3,w
  5533  08F8  00F3               	movwf	___flge@ff1+3
  5534  08F9  087A               	movf	??___flge+2,w
  5535  08FA  00F2               	movwf	___flge@ff1+2
  5536  08FB  0879               	movf	??___flge+1,w
  5537  08FC  00F1               	movwf	___flge@ff1+1
  5538  08FD  0878               	movf	??___flge,w
  5539  08FE  00F0               	movwf	___flge@ff1
  5540  08FF                     l2340:
  5541  08FF  1FF7               	btfss	___flge@ff2+3,7
  5542  0900  2902               	goto	u2591
  5543  0901  2903               	goto	u2590
  5544  0902                     u2591:
  5545  0902  2927               	goto	l557
  5546  0903                     u2590:
  5547  0903                     l2342:
  5548  0903  3000               	movlw	0
  5549  0904  00F8               	movwf	??___flge
  5550  0905  3000               	movlw	0
  5551  0906  00F9               	movwf	??___flge+1
  5552  0907  3000               	movlw	0
  5553  0908  00FA               	movwf	??___flge+2
  5554  0909  3080               	movlw	128
  5555  090A  00FB               	movwf	??___flge+3
  5556  090B  0874               	movf	___flge@ff2,w
  5557  090C  02F8               	subwf	??___flge,f
  5558  090D  0875               	movf	___flge@ff2+1,w
  5559  090E  1C03               	skipc
  5560  090F  0F75               	incfsz	___flge@ff2+1,w
  5561  0910  2912               	goto	u2601
  5562  0911  2913               	goto	u2602
  5563  0912                     u2601:
  5564  0912  02F9               	subwf	??___flge+1,f
  5565  0913                     u2602:
  5566  0913  0876               	movf	___flge@ff2+2,w
  5567  0914  1C03               	skipc
  5568  0915  0F76               	incfsz	___flge@ff2+2,w
  5569  0916  2918               	goto	u2603
  5570  0917  2919               	goto	u2604
  5571  0918                     u2603:
  5572  0918  02FA               	subwf	??___flge+2,f
  5573  0919                     u2604:
  5574  0919  0877               	movf	___flge@ff2+3,w
  5575  091A  1C03               	skipc
  5576  091B  0F77               	incfsz	___flge@ff2+3,w
  5577  091C  291E               	goto	u2605
  5578  091D  291F               	goto	u2606
  5579  091E                     u2605:
  5580  091E  02FB               	subwf	??___flge+3,f
  5581  091F                     u2606:
  5582  091F  087B               	movf	??___flge+3,w
  5583  0920  00F7               	movwf	___flge@ff2+3
  5584  0921  087A               	movf	??___flge+2,w
  5585  0922  00F6               	movwf	___flge@ff2+2
  5586  0923  0879               	movf	??___flge+1,w
  5587  0924  00F5               	movwf	___flge@ff2+1
  5588  0925  0878               	movf	??___flge,w
  5589  0926  00F4               	movwf	___flge@ff2
  5590  0927                     l557:
  5591  0927  3080               	movlw	128
  5592  0928  06F3               	xorwf	___flge@ff1+3,f
  5593  0929  3080               	movlw	128
  5594  092A  06F7               	xorwf	___flge@ff2+3,f
  5595  092B  0877               	movf	___flge@ff2+3,w
  5596  092C  0273               	subwf	___flge@ff1+3,w
  5597  092D  1D03               	skipz
  5598  092E  2939               	goto	u2615
  5599  092F  0876               	movf	___flge@ff2+2,w
  5600  0930  0272               	subwf	___flge@ff1+2,w
  5601  0931  1D03               	skipz
  5602  0932  2939               	goto	u2615
  5603  0933  0875               	movf	___flge@ff2+1,w
  5604  0934  0271               	subwf	___flge@ff1+1,w
  5605  0935  1D03               	skipz
  5606  0936  2939               	goto	u2615
  5607  0937  0874               	movf	___flge@ff2,w
  5608  0938  0270               	subwf	___flge@ff1,w
  5609  0939                     u2615:
  5610  0939  1803               	skipnc
  5611  093A  293C               	goto	u2611
  5612  093B  293D               	goto	u2610
  5613  093C                     u2611:
  5614  093C  293F               	goto	l2346
  5615  093D                     u2610:
  5616  093D                     l2344:
  5617  093D  1003               	clrc
  5618  093E  2940               	goto	l558
  5619  093F                     l2346:
  5620  093F  1403               	setc
  5621  0940                     l558:
  5622  0940  0008               	return
  5623  0941                     __end_of___flge:
  5624                           
  5625                           	psect	text13
  5626  0B8B                     __ptext13:	
  5627 ;; *************** function ___fldiv *****************
  5628 ;; Defined at:
  5629 ;;		line 8 in file "C:\Program Files\Microchip\xc8\v2.32\pic\sources\c90\common\sprcdiv.c"
  5630 ;; Parameters:    Size  Location     Type
  5631 ;;  a               4   18[BANK0 ] unsigned int 
  5632 ;;  b               4   22[BANK0 ] unsigned int 
  5633 ;; Auto vars:     Size  Location     Type
  5634 ;;  grs             4   38[BANK0 ] unsigned long 
  5635 ;;  rem             4   31[BANK0 ] unsigned long 
  5636 ;;  new_exp         2   36[BANK0 ] int 
  5637 ;;  aexp            1   43[BANK0 ] unsigned char 
  5638 ;;  bexp            1   42[BANK0 ] unsigned char 
  5639 ;;  sign            1   35[BANK0 ] unsigned char 
  5640 ;; Return value:  Size  Location     Type
  5641 ;;                  4   18[BANK0 ] unsigned char 
  5642 ;; Registers used:
  5643 ;;		wreg, status,2, status,0, btemp+1
  5644 ;; Tracked objects:
  5645 ;;		On entry : 0/0
  5646 ;;		On exit  : 0/0
  5647 ;;		Unchanged: 0/0
  5648 ;; Data sizes:     COMMON   BANK0   BANK1   BANK3   BANK2
  5649 ;;      Params:         0       8       0       0       0
  5650 ;;      Locals:         0      13       0       0       0
  5651 ;;      Temps:          0       5       0       0       0
  5652 ;;      Totals:         0      26       0       0       0
  5653 ;;Total ram usage:       26 bytes
  5654 ;; Hardware stack levels used: 1
  5655 ;; This function calls:
  5656 ;;		Nothing
  5657 ;; This function is called by:
  5658 ;;		_main
  5659 ;;		_convert
  5660 ;; This function uses a non-reentrant model
  5661 ;;
  5662                           
  5663                           
  5664                           ;psect for function ___fldiv
  5665  0B8B                     ___fldiv:
  5666  0B8B                     l2392:	
  5667                           ;incstack = 0
  5668                           ; Regs used in ___fldiv: [wreg+status,2+status,0+btemp+1]
  5669                           
  5670  0B8B  1283               	bcf	3,5	;RP0=0, select bank0
  5671  0B8C  1303               	bcf	3,6	;RP1=0, select bank0
  5672  0B8D  0839               	movf	___fldiv@b+3,w
  5673  0B8E  3980               	andlw	128
  5674  0B8F  00BA               	movwf	??___fldiv
  5675  0B90  083A               	movf	??___fldiv,w
  5676  0B91  00C3               	movwf	___fldiv@sign
  5677  0B92                     l2394:
  5678  0B92  0839               	movf	___fldiv@b+3,w
  5679  0B93  00BA               	movwf	??___fldiv
  5680  0B94  073A               	addwf	??___fldiv,w
  5681  0B95  00BB               	movwf	??___fldiv+1
  5682  0B96  083B               	movf	??___fldiv+1,w
  5683  0B97  00CA               	movwf	___fldiv@bexp
  5684  0B98                     l2396:
  5685  0B98  1FB8               	btfss	___fldiv@b+2,7
  5686  0B99  2B9B               	goto	u2721
  5687  0B9A  2B9C               	goto	u2720
  5688  0B9B                     u2721:
  5689  0B9B  2B9D               	goto	l2400
  5690  0B9C                     u2720:
  5691  0B9C                     l2398:
  5692  0B9C  144A               	bsf	___fldiv@bexp,0
  5693  0B9D                     l2400:
  5694  0B9D  084A               	movf	___fldiv@bexp,w
  5695  0B9E  1903               	btfsc	3,2
  5696  0B9F  2BA1               	goto	u2731
  5697  0BA0  2BA2               	goto	u2730
  5698  0BA1                     u2731:
  5699  0BA1  2BB2               	goto	l2410
  5700  0BA2                     u2730:
  5701  0BA2                     l2402:
  5702  0BA2  0A4A               	incf	___fldiv@bexp,w
  5703  0BA3  1D03               	btfss	3,2
  5704  0BA4  2BA6               	goto	u2741
  5705  0BA5  2BA7               	goto	u2740
  5706  0BA6                     u2741:
  5707  0BA6  2BAF               	goto	l2406
  5708  0BA7                     u2740:
  5709  0BA7                     l2404:
  5710  0BA7  3000               	movlw	0
  5711  0BA8  00B9               	movwf	___fldiv@b+3
  5712  0BA9  3000               	movlw	0
  5713  0BAA  00B8               	movwf	___fldiv@b+2
  5714  0BAB  3000               	movlw	0
  5715  0BAC  00B7               	movwf	___fldiv@b+1
  5716  0BAD  3000               	movlw	0
  5717  0BAE  00B6               	movwf	___fldiv@b
  5718  0BAF                     l2406:
  5719  0BAF  17B8               	bsf	___fldiv@b+2,7
  5720  0BB0                     l2408:
  5721  0BB0  01B9               	clrf	___fldiv@b+3
  5722  0BB1  2BBA               	goto	l2412
  5723  0BB2                     l2410:
  5724  0BB2  3000               	movlw	0
  5725  0BB3  00B9               	movwf	___fldiv@b+3
  5726  0BB4  3000               	movlw	0
  5727  0BB5  00B8               	movwf	___fldiv@b+2
  5728  0BB6  3000               	movlw	0
  5729  0BB7  00B7               	movwf	___fldiv@b+1
  5730  0BB8  3000               	movlw	0
  5731  0BB9  00B6               	movwf	___fldiv@b
  5732  0BBA                     l2412:
  5733  0BBA  0835               	movf	___fldiv@a+3,w
  5734  0BBB  3980               	andlw	128
  5735  0BBC  00BA               	movwf	??___fldiv
  5736  0BBD  083A               	movf	??___fldiv,w
  5737  0BBE  06C3               	xorwf	___fldiv@sign,f
  5738  0BBF                     l2414:
  5739  0BBF  0835               	movf	___fldiv@a+3,w
  5740  0BC0  00BA               	movwf	??___fldiv
  5741  0BC1  073A               	addwf	??___fldiv,w
  5742  0BC2  00BB               	movwf	??___fldiv+1
  5743  0BC3  083B               	movf	??___fldiv+1,w
  5744  0BC4  00CB               	movwf	___fldiv@aexp
  5745  0BC5                     l2416:
  5746  0BC5  1FB4               	btfss	___fldiv@a+2,7
  5747  0BC6  2BC8               	goto	u2751
  5748  0BC7  2BC9               	goto	u2750
  5749  0BC8                     u2751:
  5750  0BC8  2BCA               	goto	l2420
  5751  0BC9                     u2750:
  5752  0BC9                     l2418:
  5753  0BC9  144B               	bsf	___fldiv@aexp,0
  5754  0BCA                     l2420:
  5755  0BCA  084B               	movf	___fldiv@aexp,w
  5756  0BCB  1903               	btfsc	3,2
  5757  0BCC  2BCE               	goto	u2761
  5758  0BCD  2BCF               	goto	u2760
  5759  0BCE                     u2761:
  5760  0BCE  2BDF               	goto	l2430
  5761  0BCF                     u2760:
  5762  0BCF                     l2422:
  5763  0BCF  0A4B               	incf	___fldiv@aexp,w
  5764  0BD0  1D03               	btfss	3,2
  5765  0BD1  2BD3               	goto	u2771
  5766  0BD2  2BD4               	goto	u2770
  5767  0BD3                     u2771:
  5768  0BD3  2BDC               	goto	l2426
  5769  0BD4                     u2770:
  5770  0BD4                     l2424:
  5771  0BD4  3000               	movlw	0
  5772  0BD5  00B5               	movwf	___fldiv@a+3
  5773  0BD6  3000               	movlw	0
  5774  0BD7  00B4               	movwf	___fldiv@a+2
  5775  0BD8  3000               	movlw	0
  5776  0BD9  00B3               	movwf	___fldiv@a+1
  5777  0BDA  3000               	movlw	0
  5778  0BDB  00B2               	movwf	___fldiv@a
  5779  0BDC                     l2426:
  5780  0BDC  17B4               	bsf	___fldiv@a+2,7
  5781  0BDD                     l2428:
  5782  0BDD  01B5               	clrf	___fldiv@a+3
  5783  0BDE  2BE7               	goto	l729
  5784  0BDF                     l2430:
  5785  0BDF  3000               	movlw	0
  5786  0BE0  00B5               	movwf	___fldiv@a+3
  5787  0BE1  3000               	movlw	0
  5788  0BE2  00B4               	movwf	___fldiv@a+2
  5789  0BE3  3000               	movlw	0
  5790  0BE4  00B3               	movwf	___fldiv@a+1
  5791  0BE5  3000               	movlw	0
  5792  0BE6  00B2               	movwf	___fldiv@a
  5793  0BE7                     l729:
  5794  0BE7  0835               	movf	___fldiv@a+3,w
  5795  0BE8  0434               	iorwf	___fldiv@a+2,w
  5796  0BE9  0433               	iorwf	___fldiv@a+1,w
  5797  0BEA  0432               	iorwf	___fldiv@a,w
  5798  0BEB  1D03               	skipz
  5799  0BEC  2BEE               	goto	u2781
  5800  0BED  2BEF               	goto	u2780
  5801  0BEE                     u2781:
  5802  0BEE  2C08               	goto	l2440
  5803  0BEF                     u2780:
  5804  0BEF                     l2432:
  5805  0BEF  3000               	movlw	0
  5806  0BF0  00B9               	movwf	___fldiv@b+3
  5807  0BF1  3000               	movlw	0
  5808  0BF2  00B8               	movwf	___fldiv@b+2
  5809  0BF3  3000               	movlw	0
  5810  0BF4  00B7               	movwf	___fldiv@b+1
  5811  0BF5  3000               	movlw	0
  5812  0BF6  00B6               	movwf	___fldiv@b
  5813  0BF7  3080               	movlw	128
  5814  0BF8  04B8               	iorwf	___fldiv@b+2,f
  5815  0BF9  307F               	movlw	127
  5816  0BFA  04B9               	iorwf	___fldiv@b+3,f
  5817  0BFB                     l2434:
  5818  0BFB  0843               	movf	___fldiv@sign,w
  5819  0BFC  00BA               	movwf	??___fldiv
  5820  0BFD  083A               	movf	??___fldiv,w
  5821  0BFE  04B9               	iorwf	___fldiv@b+3,f
  5822  0BFF                     l2436:
  5823  0BFF  0839               	movf	___fldiv@b+3,w
  5824  0C00  00B5               	movwf	?___fldiv+3
  5825  0C01  0838               	movf	___fldiv@b+2,w
  5826  0C02  00B4               	movwf	?___fldiv+2
  5827  0C03  0837               	movf	___fldiv@b+1,w
  5828  0C04  00B3               	movwf	?___fldiv+1
  5829  0C05  0836               	movf	___fldiv@b,w
  5830  0C06  00B2               	movwf	?___fldiv
  5831  0C07  2D67               	goto	l731
  5832  0C08                     l2440:
  5833  0C08  084A               	movf	___fldiv@bexp,w
  5834  0C09  1D03               	btfss	3,2
  5835  0C0A  2C0C               	goto	u2791
  5836  0C0B  2C0D               	goto	u2790
  5837  0C0C                     u2791:
  5838  0C0C  2C16               	goto	l2446
  5839  0C0D                     u2790:
  5840  0C0D                     l2442:
  5841  0C0D  3000               	movlw	0
  5842  0C0E  00B5               	movwf	?___fldiv+3
  5843  0C0F  3000               	movlw	0
  5844  0C10  00B4               	movwf	?___fldiv+2
  5845  0C11  3000               	movlw	0
  5846  0C12  00B3               	movwf	?___fldiv+1
  5847  0C13  3000               	movlw	0
  5848  0C14  00B2               	movwf	?___fldiv
  5849  0C15  2D67               	goto	l731
  5850  0C16                     l2446:
  5851  0C16  084A               	movf	___fldiv@bexp,w
  5852  0C17  00BA               	movwf	??___fldiv
  5853  0C18  01BB               	clrf	??___fldiv+1
  5854  0C19  083B               	movf	??___fldiv+1,w
  5855  0C1A  00BD               	movwf	??___fldiv+3
  5856  0C1B  084B               	movf	___fldiv@aexp,w
  5857  0C1C  023A               	subwf	??___fldiv,w
  5858  0C1D  00BC               	movwf	??___fldiv+2
  5859  0C1E  1C03               	skipc
  5860  0C1F  03BD               	decf	??___fldiv+3,f
  5861  0C20  083C               	movf	??___fldiv+2,w
  5862  0C21  3E7F               	addlw	127
  5863  0C22  00C4               	movwf	___fldiv@new_exp
  5864  0C23  083D               	movf	??___fldiv+3,w
  5865  0C24  1803               	skipnc
  5866  0C25  3E01               	addlw	1
  5867  0C26  3E00               	addlw	0
  5868  0C27  00C5               	movwf	___fldiv@new_exp+1
  5869  0C28                     l2448:
  5870  0C28  0839               	movf	___fldiv@b+3,w
  5871  0C29  00C2               	movwf	___fldiv@rem+3
  5872  0C2A  0838               	movf	___fldiv@b+2,w
  5873  0C2B  00C1               	movwf	___fldiv@rem+2
  5874  0C2C  0837               	movf	___fldiv@b+1,w
  5875  0C2D  00C0               	movwf	___fldiv@rem+1
  5876  0C2E  0836               	movf	___fldiv@b,w
  5877  0C2F  00BF               	movwf	___fldiv@rem
  5878  0C30                     l2450:
  5879  0C30  3000               	movlw	0
  5880  0C31  00B9               	movwf	___fldiv@b+3
  5881  0C32  3000               	movlw	0
  5882  0C33  00B8               	movwf	___fldiv@b+2
  5883  0C34  3000               	movlw	0
  5884  0C35  00B7               	movwf	___fldiv@b+1
  5885  0C36  3000               	movlw	0
  5886  0C37  00B6               	movwf	___fldiv@b
  5887  0C38                     l2452:
  5888  0C38  3000               	movlw	0
  5889  0C39  00C9               	movwf	___fldiv@grs+3
  5890  0C3A  3000               	movlw	0
  5891  0C3B  00C8               	movwf	___fldiv@grs+2
  5892  0C3C  3000               	movlw	0
  5893  0C3D  00C7               	movwf	___fldiv@grs+1
  5894  0C3E  3000               	movlw	0
  5895  0C3F  00C6               	movwf	___fldiv@grs
  5896  0C40                     l2454:
  5897  0C40  01CB               	clrf	___fldiv@aexp
  5898  0C41  2C8C               	goto	l2474
  5899  0C42                     l2456:
  5900  0C42  084B               	movf	___fldiv@aexp,w
  5901  0C43  1903               	btfsc	3,2
  5902  0C44  2C46               	goto	u2801
  5903  0C45  2C47               	goto	u2800
  5904  0C46                     u2801:
  5905  0C46  2C67               	goto	l2466
  5906  0C47                     u2800:
  5907  0C47                     l2458:
  5908  0C47  3001               	movlw	1
  5909  0C48  00BA               	movwf	??___fldiv
  5910  0C49                     u2815:
  5911  0C49  1003               	clrc
  5912  0C4A  0DBF               	rlf	___fldiv@rem,f
  5913  0C4B  0DC0               	rlf	___fldiv@rem+1,f
  5914  0C4C  0DC1               	rlf	___fldiv@rem+2,f
  5915  0C4D  0DC2               	rlf	___fldiv@rem+3,f
  5916  0C4E  0BBA               	decfsz	??___fldiv,f
  5917  0C4F  2C49               	goto	u2815
  5918  0C50  3001               	movlw	1
  5919  0C51  00BA               	movwf	??___fldiv
  5920  0C52                     u2825:
  5921  0C52  1003               	clrc
  5922  0C53  0DB6               	rlf	___fldiv@b,f
  5923  0C54  0DB7               	rlf	___fldiv@b+1,f
  5924  0C55  0DB8               	rlf	___fldiv@b+2,f
  5925  0C56  0DB9               	rlf	___fldiv@b+3,f
  5926  0C57  0BBA               	decfsz	??___fldiv,f
  5927  0C58  2C52               	goto	u2825
  5928  0C59                     l2460:
  5929  0C59  1FC9               	btfss	___fldiv@grs+3,7
  5930  0C5A  2C5C               	goto	u2831
  5931  0C5B  2C5D               	goto	u2830
  5932  0C5C                     u2831:
  5933  0C5C  2C5E               	goto	l2464
  5934  0C5D                     u2830:
  5935  0C5D                     l2462:
  5936  0C5D  1436               	bsf	___fldiv@b,0
  5937  0C5E                     l2464:
  5938  0C5E  3001               	movlw	1
  5939  0C5F  00BA               	movwf	??___fldiv
  5940  0C60                     u2845:
  5941  0C60  1003               	clrc
  5942  0C61  0DC6               	rlf	___fldiv@grs,f
  5943  0C62  0DC7               	rlf	___fldiv@grs+1,f
  5944  0C63  0DC8               	rlf	___fldiv@grs+2,f
  5945  0C64  0DC9               	rlf	___fldiv@grs+3,f
  5946  0C65  0BBA               	decfsz	??___fldiv,f
  5947  0C66  2C60               	goto	u2845
  5948  0C67                     l2466:
  5949  0C67  0835               	movf	___fldiv@a+3,w
  5950  0C68  0242               	subwf	___fldiv@rem+3,w
  5951  0C69  1D03               	skipz
  5952  0C6A  2C75               	goto	u2855
  5953  0C6B  0834               	movf	___fldiv@a+2,w
  5954  0C6C  0241               	subwf	___fldiv@rem+2,w
  5955  0C6D  1D03               	skipz
  5956  0C6E  2C75               	goto	u2855
  5957  0C6F  0833               	movf	___fldiv@a+1,w
  5958  0C70  0240               	subwf	___fldiv@rem+1,w
  5959  0C71  1D03               	skipz
  5960  0C72  2C75               	goto	u2855
  5961  0C73  0832               	movf	___fldiv@a,w
  5962  0C74  023F               	subwf	___fldiv@rem,w
  5963  0C75                     u2855:
  5964  0C75  1C03               	skipc
  5965  0C76  2C78               	goto	u2851
  5966  0C77  2C79               	goto	u2850
  5967  0C78                     u2851:
  5968  0C78  2C88               	goto	l2472
  5969  0C79                     u2850:
  5970  0C79                     l2468:
  5971  0C79  1749               	bsf	___fldiv@grs+3,6
  5972  0C7A                     l2470:
  5973  0C7A  0832               	movf	___fldiv@a,w
  5974  0C7B  02BF               	subwf	___fldiv@rem,f
  5975  0C7C  0833               	movf	___fldiv@a+1,w
  5976  0C7D  1C03               	skipc
  5977  0C7E  0F33               	incfsz	___fldiv@a+1,w
  5978  0C7F  02C0               	subwf	___fldiv@rem+1,f
  5979  0C80  0834               	movf	___fldiv@a+2,w
  5980  0C81  1C03               	skipc
  5981  0C82  0F34               	incfsz	___fldiv@a+2,w
  5982  0C83  02C1               	subwf	___fldiv@rem+2,f
  5983  0C84  0835               	movf	___fldiv@a+3,w
  5984  0C85  1C03               	skipc
  5985  0C86  0F35               	incfsz	___fldiv@a+3,w
  5986  0C87  02C2               	subwf	___fldiv@rem+3,f
  5987  0C88                     l2472:
  5988  0C88  3001               	movlw	1
  5989  0C89  00BA               	movwf	??___fldiv
  5990  0C8A  083A               	movf	??___fldiv,w
  5991  0C8B  07CB               	addwf	___fldiv@aexp,f
  5992  0C8C                     l2474:
  5993  0C8C  301A               	movlw	26
  5994  0C8D  024B               	subwf	___fldiv@aexp,w
  5995  0C8E  1C03               	skipc
  5996  0C8F  2C91               	goto	u2861
  5997  0C90  2C92               	goto	u2860
  5998  0C91                     u2861:
  5999  0C91  2C42               	goto	l2456
  6000  0C92                     u2860:
  6001  0C92                     l2476:
  6002  0C92  0842               	movf	___fldiv@rem+3,w
  6003  0C93  0441               	iorwf	___fldiv@rem+2,w
  6004  0C94  0440               	iorwf	___fldiv@rem+1,w
  6005  0C95  043F               	iorwf	___fldiv@rem,w
  6006  0C96  1903               	skipnz
  6007  0C97  2C99               	goto	u2871
  6008  0C98  2C9A               	goto	u2870
  6009  0C99                     u2871:
  6010  0C99  2CB9               	goto	l2490
  6011  0C9A                     u2870:
  6012  0C9A                     l2478:
  6013  0C9A  1446               	bsf	___fldiv@grs,0
  6014  0C9B  2CB9               	goto	l2490
  6015  0C9C                     l2480:
  6016  0C9C  3001               	movlw	1
  6017  0C9D  00BA               	movwf	??___fldiv
  6018  0C9E                     u2885:
  6019  0C9E  1003               	clrc
  6020  0C9F  0DB6               	rlf	___fldiv@b,f
  6021  0CA0  0DB7               	rlf	___fldiv@b+1,f
  6022  0CA1  0DB8               	rlf	___fldiv@b+2,f
  6023  0CA2  0DB9               	rlf	___fldiv@b+3,f
  6024  0CA3  0BBA               	decfsz	??___fldiv,f
  6025  0CA4  2C9E               	goto	u2885
  6026  0CA5                     l2482:
  6027  0CA5  1FC9               	btfss	___fldiv@grs+3,7
  6028  0CA6  2CA8               	goto	u2891
  6029  0CA7  2CA9               	goto	u2890
  6030  0CA8                     u2891:
  6031  0CA8  2CAA               	goto	l2486
  6032  0CA9                     u2890:
  6033  0CA9                     l2484:
  6034  0CA9  1436               	bsf	___fldiv@b,0
  6035  0CAA                     l2486:
  6036  0CAA  3001               	movlw	1
  6037  0CAB  00BA               	movwf	??___fldiv
  6038  0CAC                     u2905:
  6039  0CAC  1003               	clrc
  6040  0CAD  0DC6               	rlf	___fldiv@grs,f
  6041  0CAE  0DC7               	rlf	___fldiv@grs+1,f
  6042  0CAF  0DC8               	rlf	___fldiv@grs+2,f
  6043  0CB0  0DC9               	rlf	___fldiv@grs+3,f
  6044  0CB1  0BBA               	decfsz	??___fldiv,f
  6045  0CB2  2CAC               	goto	u2905
  6046  0CB3                     l2488:
  6047  0CB3  30FF               	movlw	255
  6048  0CB4  07C4               	addwf	___fldiv@new_exp,f
  6049  0CB5  1803               	skipnc
  6050  0CB6  0AC5               	incf	___fldiv@new_exp+1,f
  6051  0CB7  30FF               	movlw	255
  6052  0CB8  07C5               	addwf	___fldiv@new_exp+1,f
  6053  0CB9                     l2490:
  6054  0CB9  1FB8               	btfss	___fldiv@b+2,7
  6055  0CBA  2CBC               	goto	u2911
  6056  0CBB  2CBD               	goto	u2910
  6057  0CBC                     u2911:
  6058  0CBC  2C9C               	goto	l2480
  6059  0CBD                     u2910:
  6060  0CBD                     l2492:
  6061  0CBD  01CB               	clrf	___fldiv@aexp
  6062  0CBE                     l2494:
  6063  0CBE  1FC9               	btfss	___fldiv@grs+3,7
  6064  0CBF  2CC1               	goto	u2921
  6065  0CC0  2CC2               	goto	u2920
  6066  0CC1                     u2921:
  6067  0CC1  2CDE               	goto	l2502
  6068  0CC2                     u2920:
  6069  0CC2                     l2496:
  6070  0CC2  30FF               	movlw	255
  6071  0CC3  0546               	andwf	___fldiv@grs,w
  6072  0CC4  00BA               	movwf	??___fldiv
  6073  0CC5  30FF               	movlw	255
  6074  0CC6  0547               	andwf	___fldiv@grs+1,w
  6075  0CC7  00BB               	movwf	??___fldiv+1
  6076  0CC8  30FF               	movlw	255
  6077  0CC9  0548               	andwf	___fldiv@grs+2,w
  6078  0CCA  00BC               	movwf	??___fldiv+2
  6079  0CCB  307F               	movlw	127
  6080  0CCC  0549               	andwf	___fldiv@grs+3,w
  6081  0CCD  00BD               	movwf	??___fldiv+3
  6082  0CCE  083D               	movf	??___fldiv+3,w
  6083  0CCF  043C               	iorwf	??___fldiv+2,w
  6084  0CD0  043B               	iorwf	??___fldiv+1,w
  6085  0CD1  043A               	iorwf	??___fldiv,w
  6086  0CD2  1903               	skipnz
  6087  0CD3  2CD5               	goto	u2931
  6088  0CD4  2CD6               	goto	u2930
  6089  0CD5                     u2931:
  6090  0CD5  2CD9               	goto	l745
  6091  0CD6                     u2930:
  6092  0CD6                     l2498:
  6093  0CD6  01CB               	clrf	___fldiv@aexp
  6094  0CD7  0ACB               	incf	___fldiv@aexp,f
  6095  0CD8  2CDE               	goto	l2502
  6096  0CD9                     l745:
  6097  0CD9  1C36               	btfss	___fldiv@b,0
  6098  0CDA  2CDC               	goto	u2941
  6099  0CDB  2CDD               	goto	u2940
  6100  0CDC                     u2941:
  6101  0CDC  2CDE               	goto	l2502
  6102  0CDD                     u2940:
  6103  0CDD  2CD6               	goto	l2498
  6104  0CDE                     l2502:
  6105  0CDE  084B               	movf	___fldiv@aexp,w
  6106  0CDF  1903               	btfsc	3,2
  6107  0CE0  2CE2               	goto	u2951
  6108  0CE1  2CE3               	goto	u2950
  6109  0CE2                     u2951:
  6110  0CE2  2D14               	goto	l2512
  6111  0CE3                     u2950:
  6112  0CE3                     l2504:
  6113  0CE3  3001               	movlw	1
  6114  0CE4  07B6               	addwf	___fldiv@b,f
  6115  0CE5  3000               	movlw	0
  6116  0CE6  1803               	skipnc
  6117  0CE7  3001               	movlw	1
  6118  0CE8  07B7               	addwf	___fldiv@b+1,f
  6119  0CE9  3000               	movlw	0
  6120  0CEA  1803               	skipnc
  6121  0CEB  3001               	movlw	1
  6122  0CEC  07B8               	addwf	___fldiv@b+2,f
  6123  0CED  3000               	movlw	0
  6124  0CEE  1803               	skipnc
  6125  0CEF  3001               	movlw	1
  6126  0CF0  07B9               	addwf	___fldiv@b+3,f
  6127  0CF1                     l2506:
  6128  0CF1  1C39               	btfss	___fldiv@b+3,0
  6129  0CF2  2CF4               	goto	u2961
  6130  0CF3  2CF5               	goto	u2960
  6131  0CF4                     u2961:
  6132  0CF4  2D14               	goto	l2512
  6133  0CF5                     u2960:
  6134  0CF5                     l2508:
  6135  0CF5  0836               	movf	___fldiv@b,w
  6136  0CF6  00BA               	movwf	??___fldiv
  6137  0CF7  0837               	movf	___fldiv@b+1,w
  6138  0CF8  00BB               	movwf	??___fldiv+1
  6139  0CF9  0838               	movf	___fldiv@b+2,w
  6140  0CFA  00BC               	movwf	??___fldiv+2
  6141  0CFB  0839               	movf	___fldiv@b+3,w
  6142  0CFC  00BD               	movwf	??___fldiv+3
  6143  0CFD  3001               	movlw	1
  6144  0CFE  00BE               	movwf	??___fldiv+4
  6145  0CFF                     u2975:
  6146  0CFF  0D3D               	rlf	??___fldiv+3,w
  6147  0D00  0CBD               	rrf	??___fldiv+3,f
  6148  0D01  0CBC               	rrf	??___fldiv+2,f
  6149  0D02  0CBB               	rrf	??___fldiv+1,f
  6150  0D03  0CBA               	rrf	??___fldiv,f
  6151  0D04                     u2970:
  6152  0D04  0BBE               	decfsz	??___fldiv+4,f
  6153  0D05  2CFF               	goto	u2975
  6154  0D06  083D               	movf	??___fldiv+3,w
  6155  0D07  00B9               	movwf	___fldiv@b+3
  6156  0D08  083C               	movf	??___fldiv+2,w
  6157  0D09  00B8               	movwf	___fldiv@b+2
  6158  0D0A  083B               	movf	??___fldiv+1,w
  6159  0D0B  00B7               	movwf	___fldiv@b+1
  6160  0D0C  083A               	movf	??___fldiv,w
  6161  0D0D  00B6               	movwf	___fldiv@b
  6162  0D0E                     l2510:
  6163  0D0E  3001               	movlw	1
  6164  0D0F  07C4               	addwf	___fldiv@new_exp,f
  6165  0D10  1803               	skipnc
  6166  0D11  0AC5               	incf	___fldiv@new_exp+1,f
  6167  0D12  3000               	movlw	0
  6168  0D13  07C5               	addwf	___fldiv@new_exp+1,f
  6169  0D14                     l2512:
  6170  0D14  0845               	movf	___fldiv@new_exp+1,w
  6171  0D15  3A80               	xorlw	128
  6172  0D16  00FF               	movwf	btemp+1
  6173  0D17  3080               	movlw	128
  6174  0D18  027F               	subwf	btemp+1,w
  6175  0D19  1D03               	skipz
  6176  0D1A  2D1D               	goto	u2985
  6177  0D1B  30FF               	movlw	255
  6178  0D1C  0244               	subwf	___fldiv@new_exp,w
  6179  0D1D                     u2985:
  6180  0D1D  1C03               	skipc
  6181  0D1E  2D20               	goto	u2981
  6182  0D1F  2D21               	goto	u2980
  6183  0D20                     u2981:
  6184  0D20  2D2F               	goto	l2516
  6185  0D21                     u2980:
  6186  0D21                     l2514:
  6187  0D21  30FF               	movlw	255
  6188  0D22  1283               	bcf	3,5	;RP0=0, select bank0
  6189  0D23  1303               	bcf	3,6	;RP1=0, select bank0
  6190  0D24  00C4               	movwf	___fldiv@new_exp
  6191  0D25  3000               	movlw	0
  6192  0D26  00C5               	movwf	___fldiv@new_exp+1
  6193  0D27  3000               	movlw	0
  6194  0D28  00B9               	movwf	___fldiv@b+3
  6195  0D29  3000               	movlw	0
  6196  0D2A  00B8               	movwf	___fldiv@b+2
  6197  0D2B  3000               	movlw	0
  6198  0D2C  00B7               	movwf	___fldiv@b+1
  6199  0D2D  3000               	movlw	0
  6200  0D2E  00B6               	movwf	___fldiv@b
  6201  0D2F                     l2516:
  6202  0D2F  1283               	bcf	3,5	;RP0=0, select bank0
  6203  0D30  1303               	bcf	3,6	;RP1=0, select bank0
  6204  0D31  0845               	movf	___fldiv@new_exp+1,w
  6205  0D32  3A80               	xorlw	128
  6206  0D33  00FF               	movwf	btemp+1
  6207  0D34  3080               	movlw	128
  6208  0D35  027F               	subwf	btemp+1,w
  6209  0D36  1D03               	skipz
  6210  0D37  2D3A               	goto	u2995
  6211  0D38  3001               	movlw	1
  6212  0D39  0244               	subwf	___fldiv@new_exp,w
  6213  0D3A                     u2995:
  6214  0D3A  1803               	skipnc
  6215  0D3B  2D3D               	goto	u2991
  6216  0D3C  2D3E               	goto	u2990
  6217  0D3D                     u2991:
  6218  0D3D  2D4B               	goto	l751
  6219  0D3E                     u2990:
  6220  0D3E                     l2518:
  6221  0D3E  1283               	bcf	3,5	;RP0=0, select bank0
  6222  0D3F  1303               	bcf	3,6	;RP1=0, select bank0
  6223  0D40  01C4               	clrf	___fldiv@new_exp
  6224  0D41  01C5               	clrf	___fldiv@new_exp+1
  6225  0D42                     l2520:
  6226  0D42  3000               	movlw	0
  6227  0D43  00B9               	movwf	___fldiv@b+3
  6228  0D44  3000               	movlw	0
  6229  0D45  00B8               	movwf	___fldiv@b+2
  6230  0D46  3000               	movlw	0
  6231  0D47  00B7               	movwf	___fldiv@b+1
  6232  0D48  3000               	movlw	0
  6233  0D49  00B6               	movwf	___fldiv@b
  6234  0D4A                     l2522:
  6235  0D4A  01C3               	clrf	___fldiv@sign
  6236  0D4B                     l751:
  6237  0D4B  1283               	bcf	3,5	;RP0=0, select bank0
  6238  0D4C  1303               	bcf	3,6	;RP1=0, select bank0
  6239  0D4D  0844               	movf	___fldiv@new_exp,w
  6240  0D4E  00BA               	movwf	??___fldiv
  6241  0D4F  083A               	movf	??___fldiv,w
  6242  0D50  00CA               	movwf	___fldiv@bexp
  6243  0D51                     l2524:
  6244  0D51  1C4A               	btfss	___fldiv@bexp,0
  6245  0D52  2D54               	goto	u3001
  6246  0D53  2D55               	goto	u3000
  6247  0D54                     u3001:
  6248  0D54  2D57               	goto	l2528
  6249  0D55                     u3000:
  6250  0D55                     l2526:
  6251  0D55  17B8               	bsf	___fldiv@b+2,7
  6252  0D56  2D5B               	goto	l753
  6253  0D57                     l2528:
  6254  0D57  307F               	movlw	127
  6255  0D58  00BA               	movwf	??___fldiv
  6256  0D59  083A               	movf	??___fldiv,w
  6257  0D5A  05B8               	andwf	___fldiv@b+2,f
  6258  0D5B                     l753:
  6259  0D5B  084A               	movf	___fldiv@bexp,w
  6260  0D5C  00BA               	movwf	??___fldiv
  6261  0D5D  1003               	clrc
  6262  0D5E  0C3A               	rrf	??___fldiv,w
  6263  0D5F  00BB               	movwf	??___fldiv+1
  6264  0D60  083B               	movf	??___fldiv+1,w
  6265  0D61  00B9               	movwf	___fldiv@b+3
  6266  0D62  0843               	movf	___fldiv@sign,w
  6267  0D63  00BA               	movwf	??___fldiv
  6268  0D64  083A               	movf	??___fldiv,w
  6269  0D65  04B9               	iorwf	___fldiv@b+3,f
  6270  0D66  2BFF               	goto	l2436
  6271  0D67                     l731:
  6272  0D67  0008               	return
  6273  0D68                     __end_of___fldiv:
  6274                           
  6275                           	psect	text14
  6276  1799                     __ptext14:	
  6277 ;; *************** function ___awdiv *****************
  6278 ;; Defined at:
  6279 ;;		line 5 in file "C:\Program Files\Microchip\xc8\v2.32\pic\sources\c90\common\awdiv.c"
  6280 ;; Parameters:    Size  Location     Type
  6281 ;;  divisor         2    0[COMMON] int 
  6282 ;;  dividend        2    2[COMMON] int 
  6283 ;; Auto vars:     Size  Location     Type
  6284 ;;  quotient        2    7[COMMON] int 
  6285 ;;  sign            1    6[COMMON] unsigned char 
  6286 ;;  counter         1    5[COMMON] unsigned char 
  6287 ;; Return value:  Size  Location     Type
  6288 ;;                  2    0[COMMON] int 
  6289 ;; Registers used:
  6290 ;;		wreg, status,2, status,0
  6291 ;; Tracked objects:
  6292 ;;		On entry : 0/0
  6293 ;;		On exit  : 0/0
  6294 ;;		Unchanged: 0/0
  6295 ;; Data sizes:     COMMON   BANK0   BANK1   BANK3   BANK2
  6296 ;;      Params:         4       0       0       0       0
  6297 ;;      Locals:         4       0       0       0       0
  6298 ;;      Temps:          1       0       0       0       0
  6299 ;;      Totals:         9       0       0       0       0
  6300 ;;Total ram usage:        9 bytes
  6301 ;; Hardware stack levels used: 1
  6302 ;; This function calls:
  6303 ;;		Nothing
  6304 ;; This function is called by:
  6305 ;;		_convert
  6306 ;; This function uses a non-reentrant model
  6307 ;;
  6308                           
  6309                           
  6310                           ;psect for function ___awdiv
  6311  1799                     ___awdiv:
  6312  1799                     l2286:	
  6313                           ;incstack = 0
  6314                           ; Regs used in ___awdiv: [wreg+status,2+status,0]
  6315                           
  6316  1799  01F6               	clrf	___awdiv@sign
  6317  179A                     l2288:
  6318  179A  1FF1               	btfss	___awdiv@divisor+1,7
  6319  179B  2F9D               	goto	u2451
  6320  179C  2F9E               	goto	u2450
  6321  179D                     u2451:
  6322  179D  2FA5               	goto	l2294
  6323  179E                     u2450:
  6324  179E                     l2290:
  6325  179E  09F0               	comf	___awdiv@divisor,f
  6326  179F  09F1               	comf	___awdiv@divisor+1,f
  6327  17A0  0AF0               	incf	___awdiv@divisor,f
  6328  17A1  1903               	skipnz
  6329  17A2  0AF1               	incf	___awdiv@divisor+1,f
  6330  17A3                     l2292:
  6331  17A3  01F6               	clrf	___awdiv@sign
  6332  17A4  0AF6               	incf	___awdiv@sign,f
  6333  17A5                     l2294:
  6334  17A5  1FF3               	btfss	___awdiv@dividend+1,7
  6335  17A6  2FA8               	goto	u2461
  6336  17A7  2FA9               	goto	u2460
  6337  17A8                     u2461:
  6338  17A8  2FB2               	goto	l2300
  6339  17A9                     u2460:
  6340  17A9                     l2296:
  6341  17A9  09F2               	comf	___awdiv@dividend,f
  6342  17AA  09F3               	comf	___awdiv@dividend+1,f
  6343  17AB  0AF2               	incf	___awdiv@dividend,f
  6344  17AC  1903               	skipnz
  6345  17AD  0AF3               	incf	___awdiv@dividend+1,f
  6346  17AE                     l2298:
  6347  17AE  3001               	movlw	1
  6348  17AF  00F4               	movwf	??___awdiv
  6349  17B0  0874               	movf	??___awdiv,w
  6350  17B1  06F6               	xorwf	___awdiv@sign,f
  6351  17B2                     l2300:
  6352  17B2  01F7               	clrf	___awdiv@quotient
  6353  17B3  01F8               	clrf	___awdiv@quotient+1
  6354  17B4                     l2302:
  6355  17B4  0870               	movf	___awdiv@divisor,w
  6356  17B5  0471               	iorwf	___awdiv@divisor+1,w
  6357  17B6  1903               	btfsc	3,2
  6358  17B7  2FB9               	goto	u2471
  6359  17B8  2FBA               	goto	u2470
  6360  17B9                     u2471:
  6361  17B9  2FF1               	goto	l2322
  6362  17BA                     u2470:
  6363  17BA                     l2304:
  6364  17BA  01F5               	clrf	___awdiv@counter
  6365  17BB  0AF5               	incf	___awdiv@counter,f
  6366  17BC  2FC8               	goto	l2310
  6367  17BD                     l2306:
  6368  17BD  3001               	movlw	1
  6369  17BE                     u2485:
  6370  17BE  1003               	clrc
  6371  17BF  0DF0               	rlf	___awdiv@divisor,f
  6372  17C0  0DF1               	rlf	___awdiv@divisor+1,f
  6373  17C1  3EFF               	addlw	-1
  6374  17C2  1D03               	skipz
  6375  17C3  2FBE               	goto	u2485
  6376  17C4                     l2308:
  6377  17C4  3001               	movlw	1
  6378  17C5  00F4               	movwf	??___awdiv
  6379  17C6  0874               	movf	??___awdiv,w
  6380  17C7  07F5               	addwf	___awdiv@counter,f
  6381  17C8                     l2310:
  6382  17C8  1FF1               	btfss	___awdiv@divisor+1,7
  6383  17C9  2FCB               	goto	u2491
  6384  17CA  2FCC               	goto	u2490
  6385  17CB                     u2491:
  6386  17CB  2FBD               	goto	l2306
  6387  17CC                     u2490:
  6388  17CC                     l2312:
  6389  17CC  3001               	movlw	1
  6390  17CD                     u2505:
  6391  17CD  1003               	clrc
  6392  17CE  0DF7               	rlf	___awdiv@quotient,f
  6393  17CF  0DF8               	rlf	___awdiv@quotient+1,f
  6394  17D0  3EFF               	addlw	-1
  6395  17D1  1D03               	skipz
  6396  17D2  2FCD               	goto	u2505
  6397  17D3  0871               	movf	___awdiv@divisor+1,w
  6398  17D4  0273               	subwf	___awdiv@dividend+1,w
  6399  17D5  1D03               	skipz
  6400  17D6  2FD9               	goto	u2515
  6401  17D7  0870               	movf	___awdiv@divisor,w
  6402  17D8  0272               	subwf	___awdiv@dividend,w
  6403  17D9                     u2515:
  6404  17D9  1C03               	skipc
  6405  17DA  2FDC               	goto	u2511
  6406  17DB  2FDD               	goto	u2510
  6407  17DC                     u2511:
  6408  17DC  2FE4               	goto	l2318
  6409  17DD                     u2510:
  6410  17DD                     l2314:
  6411  17DD  0870               	movf	___awdiv@divisor,w
  6412  17DE  02F2               	subwf	___awdiv@dividend,f
  6413  17DF  0871               	movf	___awdiv@divisor+1,w
  6414  17E0  1C03               	skipc
  6415  17E1  03F3               	decf	___awdiv@dividend+1,f
  6416  17E2  02F3               	subwf	___awdiv@dividend+1,f
  6417  17E3                     l2316:
  6418  17E3  1477               	bsf	___awdiv@quotient,0
  6419  17E4                     l2318:
  6420  17E4  3001               	movlw	1
  6421  17E5                     u2525:
  6422  17E5  1003               	clrc
  6423  17E6  0CF1               	rrf	___awdiv@divisor+1,f
  6424  17E7  0CF0               	rrf	___awdiv@divisor,f
  6425  17E8  3EFF               	addlw	-1
  6426  17E9  1D03               	skipz
  6427  17EA  2FE5               	goto	u2525
  6428  17EB                     l2320:
  6429  17EB  3001               	movlw	1
  6430  17EC  02F5               	subwf	___awdiv@counter,f
  6431  17ED  1D03               	btfss	3,2
  6432  17EE  2FF0               	goto	u2531
  6433  17EF  2FF1               	goto	u2530
  6434  17F0                     u2531:
  6435  17F0  2FCC               	goto	l2312
  6436  17F1                     u2530:
  6437  17F1                     l2322:
  6438  17F1  0876               	movf	___awdiv@sign,w
  6439  17F2  1903               	btfsc	3,2
  6440  17F3  2FF5               	goto	u2541
  6441  17F4  2FF6               	goto	u2540
  6442  17F5                     u2541:
  6443  17F5  2FFB               	goto	l2326
  6444  17F6                     u2540:
  6445  17F6                     l2324:
  6446  17F6  09F7               	comf	___awdiv@quotient,f
  6447  17F7  09F8               	comf	___awdiv@quotient+1,f
  6448  17F8  0AF7               	incf	___awdiv@quotient,f
  6449  17F9  1903               	skipnz
  6450  17FA  0AF8               	incf	___awdiv@quotient+1,f
  6451  17FB                     l2326:
  6452  17FB  0878               	movf	___awdiv@quotient+1,w
  6453  17FC  00F1               	movwf	?___awdiv+1
  6454  17FD  0877               	movf	___awdiv@quotient,w
  6455  17FE  00F0               	movwf	?___awdiv
  6456  17FF                     l533:
  6457  17FF  0008               	return
  6458  1800                     __end_of___awdiv:
  6459                           
  6460                           	psect	text15
  6461  16C1                     __ptext15:	
  6462 ;; *************** function _config *****************
  6463 ;; Defined at:
  6464 ;;		line 112 in file "Maestro.c"
  6465 ;; Parameters:    Size  Location     Type
  6466 ;;		None
  6467 ;; Auto vars:     Size  Location     Type
  6468 ;;		None
  6469 ;; Return value:  Size  Location     Type
  6470 ;;                  1    wreg      void 
  6471 ;; Registers used:
  6472 ;;		wreg, fsr0l, fsr0h, status,2, status,0, pclath, cstack
  6473 ;; Tracked objects:
  6474 ;;		On entry : 0/0
  6475 ;;		On exit  : 0/0
  6476 ;;		Unchanged: 0/0
  6477 ;; Data sizes:     COMMON   BANK0   BANK1   BANK3   BANK2
  6478 ;;      Params:         0       0       0       0       0
  6479 ;;      Locals:         0       0       0       0       0
  6480 ;;      Temps:          0       0       0       0       0
  6481 ;;      Totals:         0       0       0       0       0
  6482 ;;Total ram usage:        0 bytes
  6483 ;; Hardware stack levels used: 1
  6484 ;; Hardware stack levels required when called: 1
  6485 ;; This function calls:
  6486 ;;		_config_osc
  6487 ;;		_spiInit
  6488 ;; This function is called by:
  6489 ;;		_main
  6490 ;; This function uses a non-reentrant model
  6491 ;;
  6492                           
  6493                           
  6494                           ;psect for function _config
  6495  16C1                     _config:
  6496  16C1                     l2718:	
  6497                           ;incstack = 0
  6498                           ; Regs used in _config: [wreg-fsr0h+status,2+status,0+pclath+cstack]
  6499                           
  6500                           
  6501                           ;Maestro.c: 113:     ANSEL = 0X00;
  6502  16C1  1683               	bsf	3,5	;RP0=1, select bank3
  6503  16C2  1703               	bsf	3,6	;RP1=1, select bank3
  6504  16C3  0188               	clrf	8	;volatile
  6505                           
  6506                           ;Maestro.c: 114:     ANSELH = 0X00;
  6507  16C4  0189               	clrf	9	;volatile
  6508                           
  6509                           ;Maestro.c: 118:     TRISB = 0X00;
  6510  16C5  1683               	bsf	3,5	;RP0=1, select bank1
  6511  16C6  1303               	bcf	3,6	;RP1=0, select bank1
  6512  16C7  0186               	clrf	6	;volatile
  6513                           
  6514                           ;Maestro.c: 119:     TRISD = 0x00;
  6515  16C8  0188               	clrf	8	;volatile
  6516                           
  6517                           ;Maestro.c: 122:     PORTB = 0X00;
  6518  16C9  1283               	bcf	3,5	;RP0=0, select bank0
  6519  16CA  1303               	bcf	3,6	;RP1=0, select bank0
  6520  16CB  0186               	clrf	6	;volatile
  6521                           
  6522                           ;Maestro.c: 123:     PORTD = 0X00;
  6523  16CC  0188               	clrf	8	;volatile
  6524  16CD                     l2720:
  6525                           
  6526                           ;Maestro.c: 125:     PORTCbits.RC2 = 1;
  6527  16CD  1507               	bsf	7,2	;volatile
  6528  16CE                     l2722:
  6529                           
  6530                           ;Maestro.c: 126:     spiInit(SPI_MASTER_OSC_DIV4, SPI_DATA_SAMPLE_MIDDLE, SPI_CLOCK_IDLE
      +                          _LOW, SPI_IDLE_2_ACTIVE);
  6531  16CE  01F0               	clrf	spiInit@sDataSample
  6532  16CF  01F1               	clrf	spiInit@sClockIdle
  6533  16D0  01F2               	clrf	spiInit@sTransmitEdge
  6534  16D1  3020               	movlw	32
  6535  16D2  160A  118A  265D  160A  118A  	fcall	_spiInit
  6536  16D7                     l2724:
  6537                           
  6538                           ;Maestro.c: 129:     config_osc(7);
  6539  16D7  3007               	movlw	7
  6540  16D8  160A  118A  2744  160A  118A  	fcall	_config_osc
  6541  16DD                     l2726:
  6542                           
  6543                           ;Maestro.c: 132:     TXSTAbits.SYNC = 0;
  6544  16DD  1683               	bsf	3,5	;RP0=1, select bank1
  6545  16DE  1303               	bcf	3,6	;RP1=0, select bank1
  6546  16DF  1218               	bcf	24,4	;volatile
  6547  16E0                     l2728:
  6548                           
  6549                           ;Maestro.c: 133:     TXSTAbits.BRGH = 1;
  6550  16E0  1518               	bsf	24,2	;volatile
  6551  16E1                     l2730:
  6552                           
  6553                           ;Maestro.c: 135:     BAUDCTLbits.BRG16 = 1;
  6554  16E1  1683               	bsf	3,5	;RP0=1, select bank3
  6555  16E2  1703               	bsf	3,6	;RP1=1, select bank3
  6556  16E3  1587               	bsf	7,3	;volatile
  6557  16E4                     l2732:
  6558                           
  6559                           ;Maestro.c: 137:     SPBRG = 207;
  6560  16E4  30CF               	movlw	207
  6561  16E5  1683               	bsf	3,5	;RP0=1, select bank1
  6562  16E6  1303               	bcf	3,6	;RP1=0, select bank1
  6563  16E7  0099               	movwf	25	;volatile
  6564  16E8                     l2734:
  6565                           
  6566                           ;Maestro.c: 138:     SPBRGH = 0;
  6567  16E8  019A               	clrf	26	;volatile
  6568  16E9                     l2736:
  6569                           
  6570                           ;Maestro.c: 140:     RCSTAbits.SPEN = 1;
  6571  16E9  1283               	bcf	3,5	;RP0=0, select bank0
  6572  16EA  1303               	bcf	3,6	;RP1=0, select bank0
  6573  16EB  1798               	bsf	24,7	;volatile
  6574  16EC                     l2738:
  6575                           
  6576                           ;Maestro.c: 141:     RCSTAbits.RX9 = 0;
  6577  16EC  1318               	bcf	24,6	;volatile
  6578  16ED                     l2740:
  6579                           
  6580                           ;Maestro.c: 142:     RCSTAbits.CREN = 1;
  6581  16ED  1618               	bsf	24,4	;volatile
  6582  16EE                     l2742:
  6583                           
  6584                           ;Maestro.c: 144:     TXSTAbits.TXEN = 1;
  6585  16EE  1683               	bsf	3,5	;RP0=1, select bank1
  6586  16EF  1303               	bcf	3,6	;RP1=0, select bank1
  6587  16F0  1698               	bsf	24,5	;volatile
  6588  16F1                     l69:
  6589  16F1  0008               	return
  6590  16F2                     __end_of_config:
  6591                           
  6592                           	psect	text16
  6593  165D                     __ptext16:	
  6594 ;; *************** function _spiInit *****************
  6595 ;; Defined at:
  6596 ;;		line 53 in file "LibreriasL3.c"
  6597 ;; Parameters:    Size  Location     Type
  6598 ;;  sType           1    wreg     enum E1475
  6599 ;;  sDataSample     1    0[COMMON] enum E1483
  6600 ;;  sClockIdle      1    1[COMMON] enum E1487
  6601 ;;  sTransmitEdg    1    2[COMMON] enum E1491
  6602 ;; Auto vars:     Size  Location     Type
  6603 ;;  sType           1    3[COMMON] enum E1475
  6604 ;; Return value:  Size  Location     Type
  6605 ;;                  1    wreg      void 
  6606 ;; Registers used:
  6607 ;;		wreg, status,2, status,0
  6608 ;; Tracked objects:
  6609 ;;		On entry : 0/0
  6610 ;;		On exit  : 0/0
  6611 ;;		Unchanged: 0/0
  6612 ;; Data sizes:     COMMON   BANK0   BANK1   BANK3   BANK2
  6613 ;;      Params:         3       0       0       0       0
  6614 ;;      Locals:         1       0       0       0       0
  6615 ;;      Temps:          0       0       0       0       0
  6616 ;;      Totals:         4       0       0       0       0
  6617 ;;Total ram usage:        4 bytes
  6618 ;; Hardware stack levels used: 1
  6619 ;; This function calls:
  6620 ;;		Nothing
  6621 ;; This function is called by:
  6622 ;;		_config
  6623 ;; This function uses a non-reentrant model
  6624 ;;
  6625                           
  6626                           
  6627                           ;psect for function _spiInit
  6628  165D                     _spiInit:
  6629                           
  6630                           ;incstack = 0
  6631                           ; Regs used in _spiInit: [wreg+status,2+status,0]
  6632                           ;spiInit@sType stored from wreg
  6633  165D  00F3               	movwf	spiInit@sType
  6634  165E                     l2212:
  6635                           
  6636                           ;LibreriasL3.c: 53: void spiInit(Spi_Type sType, Spi_Data_Sample sDataSample, Spi_Clock_
      +                          Idle sClockIdle, Spi_Transmit_Edge sTransmitEdge);LibreriasL3.c: 54: {;LibreriasL3.c: 55
      +                          :     TRISC5 = 0;
  6637  165E  1683               	bsf	3,5	;RP0=1, select bank1
  6638  165F  1303               	bcf	3,6	;RP1=0, select bank1
  6639  1660  1287               	bcf	7,5	;volatile
  6640                           
  6641                           ;LibreriasL3.c: 56:     if(sType & 0b00000100)
  6642  1661  1D73               	btfss	spiInit@sType,2
  6643  1662  2E64               	goto	u2371
  6644  1663  2E65               	goto	u2370
  6645  1664                     u2371:
  6646  1664  2E69               	goto	l2218
  6647  1665                     u2370:
  6648  1665                     l2214:
  6649                           
  6650                           ;LibreriasL3.c: 57:     {;LibreriasL3.c: 58:         SSPSTAT = sTransmitEdge;
  6651  1665  0872               	movf	spiInit@sTransmitEdge,w
  6652  1666  0094               	movwf	20	;volatile
  6653  1667                     l2216:
  6654                           
  6655                           ;LibreriasL3.c: 59:         TRISC3 = 1;
  6656  1667  1587               	bsf	7,3	;volatile
  6657                           
  6658                           ;LibreriasL3.c: 60:     }
  6659  1668  2E6D               	goto	l260
  6660  1669                     l2218:
  6661                           
  6662                           ;LibreriasL3.c: 62:     {;LibreriasL3.c: 63:         SSPSTAT = sDataSample | sTransmitEd
      +                          ge;
  6663  1669  0870               	movf	spiInit@sDataSample,w
  6664  166A  0472               	iorwf	spiInit@sTransmitEdge,w
  6665  166B  0094               	movwf	20	;volatile
  6666  166C                     l2220:
  6667                           
  6668                           ;LibreriasL3.c: 64:         TRISC3 = 0;
  6669  166C  1187               	bcf	7,3	;volatile
  6670  166D                     l260:	
  6671                           ;LibreriasL3.c: 65:     }
  6672                           
  6673                           
  6674                           ;LibreriasL3.c: 67:     SSPCON = sType | sClockIdle;
  6675  166D  0873               	movf	spiInit@sType,w
  6676  166E  0471               	iorwf	spiInit@sClockIdle,w
  6677  166F  1283               	bcf	3,5	;RP0=0, select bank0
  6678  1670  1303               	bcf	3,6	;RP1=0, select bank0
  6679  1671  0094               	movwf	20	;volatile
  6680  1672                     l261:
  6681  1672  0008               	return
  6682  1673                     __end_of_spiInit:
  6683                           
  6684                           	psect	text17
  6685  1744                     __ptext17:	
  6686 ;; *************** function _config_osc *****************
  6687 ;; Defined at:
  6688 ;;		line 23 in file "LibreriasL3.c"
  6689 ;; Parameters:    Size  Location     Type
  6690 ;;  frec            1    wreg     unsigned char 
  6691 ;; Auto vars:     Size  Location     Type
  6692 ;;  frec            1    2[COMMON] unsigned char 
  6693 ;; Return value:  Size  Location     Type
  6694 ;;                  1    wreg      void 
  6695 ;; Registers used:
  6696 ;;		wreg, fsr0l, fsr0h, status,2, status,0
  6697 ;; Tracked objects:
  6698 ;;		On entry : 0/0
  6699 ;;		On exit  : 0/0
  6700 ;;		Unchanged: 0/0
  6701 ;; Data sizes:     COMMON   BANK0   BANK1   BANK3   BANK2
  6702 ;;      Params:         0       0       0       0       0
  6703 ;;      Locals:         1       0       0       0       0
  6704 ;;      Temps:          2       0       0       0       0
  6705 ;;      Totals:         3       0       0       0       0
  6706 ;;Total ram usage:        3 bytes
  6707 ;; Hardware stack levels used: 1
  6708 ;; This function calls:
  6709 ;;		Nothing
  6710 ;; This function is called by:
  6711 ;;		_config
  6712 ;; This function uses a non-reentrant model
  6713 ;;
  6714                           
  6715                           
  6716                           ;psect for function _config_osc
  6717  1744                     _config_osc:
  6718                           
  6719                           ;incstack = 0
  6720                           ; Regs used in _config_osc: [wreg-fsr0h+status,2+status,0]
  6721                           ;config_osc@frec stored from wreg
  6722  1744  00F2               	movwf	config_osc@frec
  6723  1745                     l2222:
  6724                           
  6725                           ;LibreriasL3.c: 24:         switch(frec){
  6726  1745  2F78               	goto	l2242
  6727  1746                     l2224:
  6728                           
  6729                           ;LibreriasL3.c: 26:                 OSCCONbits.IRCF = 000;
  6730  1746  308F               	movlw	-113
  6731  1747  1683               	bsf	3,5	;RP0=1, select bank1
  6732  1748  1303               	bcf	3,6	;RP1=0, select bank1
  6733  1749  058F               	andwf	15,f	;volatile
  6734                           
  6735                           ;LibreriasL3.c: 27:                 break;
  6736  174A  2F97               	goto	l248
  6737  174B                     l2226:
  6738                           
  6739                           ;LibreriasL3.c: 29:                 OSCCONbits.IRCF = 001;
  6740  174B  1683               	bsf	3,5	;RP0=1, select bank1
  6741  174C  1303               	bcf	3,6	;RP1=0, select bank1
  6742  174D  080F               	movf	15,w	;volatile
  6743  174E  398F               	andlw	-113
  6744  174F  3810               	iorlw	16
  6745  1750  008F               	movwf	15	;volatile
  6746                           
  6747                           ;LibreriasL3.c: 30:                 break;
  6748  1751  2F97               	goto	l248
  6749  1752                     l2228:
  6750                           
  6751                           ;LibreriasL3.c: 32:                 OSCCONbits.IRCF = 010;
  6752  1752  308F               	movlw	-113
  6753  1753  1683               	bsf	3,5	;RP0=1, select bank1
  6754  1754  1303               	bcf	3,6	;RP1=0, select bank1
  6755  1755  058F               	andwf	15,f	;volatile
  6756                           
  6757                           ;LibreriasL3.c: 33:                 break;
  6758  1756  2F97               	goto	l248
  6759  1757                     l2230:
  6760                           
  6761                           ;LibreriasL3.c: 35:                 OSCCONbits.IRCF = 011;
  6762  1757  1683               	bsf	3,5	;RP0=1, select bank1
  6763  1758  1303               	bcf	3,6	;RP1=0, select bank1
  6764  1759  080F               	movf	15,w	;volatile
  6765  175A  398F               	andlw	-113
  6766  175B  3810               	iorlw	16
  6767  175C  008F               	movwf	15	;volatile
  6768                           
  6769                           ;LibreriasL3.c: 36:                 break;
  6770  175D  2F97               	goto	l248
  6771  175E                     l2232:
  6772                           
  6773                           ;LibreriasL3.c: 38:                 OSCCONbits.IRCF = 100;
  6774  175E  1683               	bsf	3,5	;RP0=1, select bank1
  6775  175F  1303               	bcf	3,6	;RP1=0, select bank1
  6776  1760  080F               	movf	15,w	;volatile
  6777  1761  398F               	andlw	-113
  6778  1762  3840               	iorlw	64
  6779  1763  008F               	movwf	15	;volatile
  6780                           
  6781                           ;LibreriasL3.c: 39:                 break;
  6782  1764  2F97               	goto	l248
  6783  1765                     l2234:
  6784                           
  6785                           ;LibreriasL3.c: 41:                 OSCCONbits.IRCF = 101;
  6786  1765  1683               	bsf	3,5	;RP0=1, select bank1
  6787  1766  1303               	bcf	3,6	;RP1=0, select bank1
  6788  1767  080F               	movf	15,w	;volatile
  6789  1768  398F               	andlw	-113
  6790  1769  3850               	iorlw	80
  6791  176A  008F               	movwf	15	;volatile
  6792                           
  6793                           ;LibreriasL3.c: 42:                 break;
  6794  176B  2F97               	goto	l248
  6795  176C                     l2236:
  6796                           
  6797                           ;LibreriasL3.c: 44:                 OSCCONbits.IRCF = 111;
  6798  176C  3070               	movlw	112
  6799  176D  1683               	bsf	3,5	;RP0=1, select bank1
  6800  176E  1303               	bcf	3,6	;RP1=0, select bank1
  6801  176F  048F               	iorwf	15,f	;volatile
  6802                           
  6803                           ;LibreriasL3.c: 45:                 break;
  6804  1770  2F97               	goto	l248
  6805  1771                     l2238:
  6806                           
  6807                           ;LibreriasL3.c: 47:                 OSCCONbits.IRCF = 110;
  6808  1771  1683               	bsf	3,5	;RP0=1, select bank1
  6809  1772  1303               	bcf	3,6	;RP1=0, select bank1
  6810  1773  080F               	movf	15,w	;volatile
  6811  1774  398F               	andlw	-113
  6812  1775  3860               	iorlw	96
  6813  1776  008F               	movwf	15	;volatile
  6814                           
  6815                           ;LibreriasL3.c: 48:                 break;
  6816  1777  2F97               	goto	l248
  6817  1778                     l2242:
  6818  1778  0872               	movf	config_osc@frec,w
  6819  1779  00F0               	movwf	??_config_osc
  6820  177A  01F1               	clrf	??_config_osc+1
  6821                           
  6822                           ; Switch on 2 bytes has been partitioned into a top level switch of size 1, and 1 sub-sw
      +                          itches
  6823                           ; Switch size 1, requested type "simple"
  6824                           ; Number of cases is 1, Range of values is 0 to 0
  6825                           ; switch strategies available:
  6826                           ; Name         Instructions Cycles
  6827                           ; simple_byte            4     3 (average)
  6828                           ; direct_byte           11     8 (fixed)
  6829                           ; jumptable            260     6 (fixed)
  6830                           ;	Chosen strategy is simple_byte
  6831  177B  0871               	movf	??_config_osc+1,w
  6832  177C  3A00               	xorlw	0	; case 0
  6833  177D  1903               	skipnz
  6834  177E  2F80               	goto	l2966
  6835  177F  2F71               	goto	l2238
  6836  1780                     l2966:
  6837                           
  6838                           ; Switch size 1, requested type "simple"
  6839                           ; Number of cases is 7, Range of values is 0 to 7
  6840                           ; switch strategies available:
  6841                           ; Name         Instructions Cycles
  6842                           ; simple_byte           22    12 (average)
  6843                           ; direct_byte           32     8 (fixed)
  6844                           ; jumptable            260     6 (fixed)
  6845                           ;	Chosen strategy is simple_byte
  6846  1780  0870               	movf	??_config_osc,w
  6847  1781  3A00               	xorlw	0	; case 0
  6848  1782  1903               	skipnz
  6849  1783  2F46               	goto	l2224
  6850  1784  3A01               	xorlw	1	; case 1
  6851  1785  1903               	skipnz
  6852  1786  2F4B               	goto	l2226
  6853  1787  3A03               	xorlw	3	; case 2
  6854  1788  1903               	skipnz
  6855  1789  2F52               	goto	l2228
  6856  178A  3A01               	xorlw	1	; case 3
  6857  178B  1903               	skipnz
  6858  178C  2F57               	goto	l2230
  6859  178D  3A07               	xorlw	7	; case 4
  6860  178E  1903               	skipnz
  6861  178F  2F5E               	goto	l2232
  6862  1790  3A01               	xorlw	1	; case 5
  6863  1791  1903               	skipnz
  6864  1792  2F65               	goto	l2234
  6865  1793  3A02               	xorlw	2	; case 7
  6866  1794  1903               	skipnz
  6867  1795  2F6C               	goto	l2236
  6868  1796  2F71               	goto	l2238
  6869  1797                     l248:
  6870                           
  6871                           ;LibreriasL3.c: 50:         OSCCONbits.SCS = 1;
  6872  1797  140F               	bsf	15,0	;volatile
  6873  1798                     l256:
  6874  1798  0008               	return
  6875  1799                     __end_of_config_osc:
  6876                           
  6877                           	psect	text18
  6878  0015                     __ptext18:	
  6879 ;; *************** function _Eusart *****************
  6880 ;; Defined at:
  6881 ;;		line 153 in file "Maestro.c"
  6882 ;; Parameters:    Size  Location     Type
  6883 ;;		None
  6884 ;; Auto vars:     Size  Location     Type
  6885 ;;		None
  6886 ;; Return value:  Size  Location     Type
  6887 ;;                  1    wreg      void 
  6888 ;; Registers used:
  6889 ;;		wreg, fsr0l, fsr0h, status,2, status,0, btemp+1, pclath, cstack
  6890 ;; Tracked objects:
  6891 ;;		On entry : 0/0
  6892 ;;		On exit  : 0/0
  6893 ;;		Unchanged: 0/0
  6894 ;; Data sizes:     COMMON   BANK0   BANK1   BANK3   BANK2
  6895 ;;      Params:         0       0       0       0       0
  6896 ;;      Locals:         0       0       0       0       0
  6897 ;;      Temps:          3       0       0       0       0
  6898 ;;      Totals:         3       0       0       0       0
  6899 ;;Total ram usage:        3 bytes
  6900 ;; Hardware stack levels used: 1
  6901 ;; Hardware stack levels required when called: 2
  6902 ;; This function calls:
  6903 ;;		_printf
  6904 ;; This function is called by:
  6905 ;;		_main
  6906 ;; This function uses a non-reentrant model
  6907 ;;
  6908                           
  6909                           
  6910                           ;psect for function _Eusart
  6911  0015                     _Eusart:
  6912  0015                     l2746:	
  6913                           ;incstack = 0
  6914                           ; Regs used in _Eusart: [wreg-fsr0h+status,2+status,0+btemp+1+pclath+cstack]
  6915                           
  6916                           
  6917                           ;Maestro.c: 154:     _delay((unsigned long)((100)*(8000000/4000.0)));
  6918  0015  3002               	movlw	2
  6919  0016  00FB               	movwf	??_Eusart+2
  6920  0017  3004               	movlw	4
  6921  0018  00FA               	movwf	??_Eusart+1
  6922  0019  30BA               	movlw	186
  6923  001A  00F9               	movwf	??_Eusart
  6924  001B                     u3657:
  6925  001B  0BF9               	decfsz	??_Eusart,f
  6926  001C  281B               	goto	u3657
  6927  001D  0BFA               	decfsz	??_Eusart+1,f
  6928  001E  281B               	goto	u3657
  6929  001F  0BFB               	decfsz	??_Eusart+2,f
  6930  0020  281B               	goto	u3657
  6931  0021  0000               	nop
  6932  0022                     l2748:
  6933                           
  6934                           ;Maestro.c: 155:    printf("\rSensor 1: \r");
  6935  0022  3013               	movlw	(low ((STR_1-__stringbase)| (0+32768)))& (0+255)
  6936  0023  00F1               	movwf	printf@f
  6937  0024  3080               	movlw	128
  6938  0025  00F2               	movwf	printf@f+1
  6939  0026  160A  118A  26F2  120A  118A  	fcall	_printf
  6940  002B                     l2750:
  6941                           
  6942                           ;Maestro.c: 156:    _delay((unsigned long)((100)*(8000000/4000.0)));
  6943  002B  3002               	movlw	2
  6944  002C  00FB               	movwf	??_Eusart+2
  6945  002D  3004               	movlw	4
  6946  002E  00FA               	movwf	??_Eusart+1
  6947  002F  30BA               	movlw	186
  6948  0030  00F9               	movwf	??_Eusart
  6949  0031                     u3667:
  6950  0031  0BF9               	decfsz	??_Eusart,f
  6951  0032  2831               	goto	u3667
  6952  0033  0BFA               	decfsz	??_Eusart+1,f
  6953  0034  2831               	goto	u3667
  6954  0035  0BFB               	decfsz	??_Eusart+2,f
  6955  0036  2831               	goto	u3667
  6956  0037  0000               	nop
  6957                           
  6958                           ;Maestro.c: 157:      printf(adc0);
  6959  0038  30B2               	movlw	(low (_adc0| 0))& (0+255)
  6960  0039  00F1               	movwf	printf@f
  6961  003A  3000               	movlw	0
  6962  003B  00F2               	movwf	printf@f+1
  6963  003C  160A  118A  26F2  120A  118A  	fcall	_printf
  6964  0041                     l2752:
  6965                           
  6966                           ;Maestro.c: 158:    _delay((unsigned long)((100)*(8000000/4000.0)));
  6967  0041  3002               	movlw	2
  6968  0042  00FB               	movwf	??_Eusart+2
  6969  0043  3004               	movlw	4
  6970  0044  00FA               	movwf	??_Eusart+1
  6971  0045  30BA               	movlw	186
  6972  0046  00F9               	movwf	??_Eusart
  6973  0047                     u3677:
  6974  0047  0BF9               	decfsz	??_Eusart,f
  6975  0048  2847               	goto	u3677
  6976  0049  0BFA               	decfsz	??_Eusart+1,f
  6977  004A  2847               	goto	u3677
  6978  004B  0BFB               	decfsz	??_Eusart+2,f
  6979  004C  2847               	goto	u3677
  6980  004D  0000               	nop
  6981  004E                     l2754:
  6982                           
  6983                           ;Maestro.c: 159:    printf("\r---------------\r");
  6984  004E  3001               	movlw	(low ((STR_2-__stringbase)| (0+32768)))& (0+255)
  6985  004F  00F1               	movwf	printf@f
  6986  0050  3080               	movlw	128
  6987  0051  00F2               	movwf	printf@f+1
  6988  0052  160A  118A  26F2  120A  118A  	fcall	_printf
  6989                           
  6990                           ;Maestro.c: 162:    _delay((unsigned long)((100)*(8000000/4000.0)));
  6991  0057  3002               	movlw	2
  6992  0058  00FB               	movwf	??_Eusart+2
  6993  0059  3004               	movlw	4
  6994  005A  00FA               	movwf	??_Eusart+1
  6995  005B  30BA               	movlw	186
  6996  005C  00F9               	movwf	??_Eusart
  6997  005D                     u3687:
  6998  005D  0BF9               	decfsz	??_Eusart,f
  6999  005E  285D               	goto	u3687
  7000  005F  0BFA               	decfsz	??_Eusart+1,f
  7001  0060  285D               	goto	u3687
  7002  0061  0BFB               	decfsz	??_Eusart+2,f
  7003  0062  285D               	goto	u3687
  7004  0063  0000               	nop
  7005  0064                     l2756:
  7006                           
  7007                           ;Maestro.c: 163:    printf("\rSensor 2: \r");
  7008  0064  3020               	movlw	(low ((STR_3-__stringbase)| (0+32768)))& (0+255)
  7009  0065  00F1               	movwf	printf@f
  7010  0066  3080               	movlw	128
  7011  0067  00F2               	movwf	printf@f+1
  7012  0068  160A  118A  26F2  120A  118A  	fcall	_printf
  7013  006D                     l2758:
  7014                           
  7015                           ;Maestro.c: 164:    _delay((unsigned long)((100)*(8000000/4000.0)));
  7016  006D  3002               	movlw	2
  7017  006E  00FB               	movwf	??_Eusart+2
  7018  006F  3004               	movlw	4
  7019  0070  00FA               	movwf	??_Eusart+1
  7020  0071  30BA               	movlw	186
  7021  0072  00F9               	movwf	??_Eusart
  7022  0073                     u3697:
  7023  0073  0BF9               	decfsz	??_Eusart,f
  7024  0074  2873               	goto	u3697
  7025  0075  0BFA               	decfsz	??_Eusart+1,f
  7026  0076  2873               	goto	u3697
  7027  0077  0BFB               	decfsz	??_Eusart+2,f
  7028  0078  2873               	goto	u3697
  7029  0079  0000               	nop
  7030                           
  7031                           ;Maestro.c: 165:    printf(adc1);
  7032  007A  30A8               	movlw	(low (_adc1| 0))& (0+255)
  7033  007B  00F1               	movwf	printf@f
  7034  007C  3000               	movlw	0
  7035  007D  00F2               	movwf	printf@f+1
  7036  007E  160A  118A  26F2  120A  118A  	fcall	_printf
  7037  0083                     l2760:
  7038                           
  7039                           ;Maestro.c: 166:    _delay((unsigned long)((100)*(8000000/4000.0)));
  7040  0083  3002               	movlw	2
  7041  0084  00FB               	movwf	??_Eusart+2
  7042  0085  3004               	movlw	4
  7043  0086  00FA               	movwf	??_Eusart+1
  7044  0087  30BA               	movlw	186
  7045  0088  00F9               	movwf	??_Eusart
  7046  0089                     u3707:
  7047  0089  0BF9               	decfsz	??_Eusart,f
  7048  008A  2889               	goto	u3707
  7049  008B  0BFA               	decfsz	??_Eusart+1,f
  7050  008C  2889               	goto	u3707
  7051  008D  0BFB               	decfsz	??_Eusart+2,f
  7052  008E  2889               	goto	u3707
  7053  008F  0000               	nop
  7054  0090                     l2762:
  7055                           
  7056                           ;Maestro.c: 167:    printf("\r---------------\r");
  7057  0090  3001               	movlw	(low ((STR_2-__stringbase)| (0+32768)))& (0+255)
  7058  0091  00F1               	movwf	printf@f
  7059  0092  3080               	movlw	128
  7060  0093  00F2               	movwf	printf@f+1
  7061  0094  160A  118A  26F2  120A  118A  	fcall	_printf
  7062  0099                     l78:
  7063  0099  0008               	return
  7064  009A                     __end_of_Eusart:
  7065                           
  7066                           	psect	text19
  7067  16F2                     __ptext19:	
  7068 ;; *************** function _printf *****************
  7069 ;; Defined at:
  7070 ;;		line 477 in file "C:\Program Files\Microchip\xc8\v2.32\pic\sources\c90\common\doprnt.c"
  7071 ;; Parameters:    Size  Location     Type
  7072 ;;  f               2    1[COMMON] PTR const unsigned char 
  7073 ;;		 -> STR_4(18), STR_3(13), STR_2(18), STR_1(13), 
  7074 ;;		 -> adc1(10), adc0(10), 
  7075 ;; Auto vars:     Size  Location     Type
  7076 ;;  tmpval          4    0        struct .
  7077 ;;  cp              2    0        PTR const unsigned char 
  7078 ;;  len             2    0        unsigned int 
  7079 ;;  val             2    0        unsigned int 
  7080 ;;  c               1    8[COMMON] unsigned char 
  7081 ;;  flag            1    0        unsigned char 
  7082 ;;  ap              1    7[COMMON] PTR void [1]
  7083 ;;		 -> ?_printf(2), 
  7084 ;;  prec            1    0        char 
  7085 ;; Return value:  Size  Location     Type
  7086 ;;                  2    1[COMMON] int 
  7087 ;; Registers used:
  7088 ;;		wreg, fsr0l, fsr0h, status,2, status,0, btemp+1, pclath, cstack
  7089 ;; Tracked objects:
  7090 ;;		On entry : 0/0
  7091 ;;		On exit  : 0/0
  7092 ;;		Unchanged: 0/0
  7093 ;; Data sizes:     COMMON   BANK0   BANK1   BANK3   BANK2
  7094 ;;      Params:         2       0       0       0       0
  7095 ;;      Locals:         2       0       0       0       0
  7096 ;;      Temps:          4       0       0       0       0
  7097 ;;      Totals:         8       0       0       0       0
  7098 ;;Total ram usage:        8 bytes
  7099 ;; Hardware stack levels used: 1
  7100 ;; Hardware stack levels required when called: 1
  7101 ;; This function calls:
  7102 ;;		_putch
  7103 ;; This function is called by:
  7104 ;;		_Eusart
  7105 ;; This function uses a non-reentrant model
  7106 ;;
  7107                           
  7108                           
  7109                           ;psect for function _printf
  7110  16F2                     _printf:
  7111  16F2                     l2248:	
  7112                           ;incstack = 0
  7113                           ; Regs used in _printf: [wreg-fsr0h+status,2+status,0+btemp+1+pclath+cstack]
  7114                           
  7115                           
  7116                           ;C:\Program Files\Microchip\xc8\v2.32\pic\sources\c90\common\doprnt.c: 477: printf(const
      +                           char * f, ...);C:\Program Files\Microchip\xc8\v2.32\pic\sources\c90\common\doprnt.c: 47
      +                          8: {;C:\Program Files\Microchip\xc8\v2.32\pic\sources\c90\common\doprnt.c: 479:  va_list
      +                           ap;;C:\Program Files\Microchip\xc8\v2.32\pic\sources\c90\common\doprnt.c: 512:  char c;
      +                          ;C:\Program Files\Microchip\xc8\v2.32\pic\sources\c90\common\doprnt.c: 521:  signed char
      +                           prec;;C:\Program Files\Microchip\xc8\v2.32\pic\sources\c90\common\doprnt.c: 525:  unsig
      +                          ned char flag;
  7117  16F2  3073               	movlw	(low ((?_printf| 0+2)))& (0+255)
  7118  16F3  00F3               	movwf	??_printf
  7119  16F4  0873               	movf	??_printf,w
  7120  16F5  00F7               	movwf	printf@ap
  7121                           
  7122                           ;C:\Program Files\Microchip\xc8\v2.32\pic\sources\c90\common\doprnt.c: 553:  while((c = 
      +                          *f++)) {
  7123  16F6  2F29               	goto	l2262
  7124  16F7                     l2250:
  7125                           
  7126                           ;C:\Program Files\Microchip\xc8\v2.32\pic\sources\c90\common\doprnt.c: 555:   if(c != '%
      +                          ')
  7127  16F7  3025               	movlw	37
  7128  16F8  0678               	xorwf	printf@c,w
  7129  16F9  1903               	btfsc	3,2
  7130  16FA  2EFC               	goto	u2381
  7131  16FB  2EFD               	goto	u2380
  7132  16FC                     u2381:
  7133  16FC  2F04               	goto	l2254
  7134  16FD                     u2380:
  7135  16FD                     l2252:
  7136                           
  7137                           ;C:\Program Files\Microchip\xc8\v2.32\pic\sources\c90\common\doprnt.c: 557:   {;C:\Progr
      +                          am Files\Microchip\xc8\v2.32\pic\sources\c90\common\doprnt.c: 558:    (putch(c) );
  7138  16FD  0878               	movf	printf@c,w
  7139  16FE  120A  118A  200B  160A  118A  	fcall	_putch
  7140                           
  7141                           ;C:\Program Files\Microchip\xc8\v2.32\pic\sources\c90\common\doprnt.c: 559:    continue;
  7142  1703  2F29               	goto	l2262
  7143  1704                     l2254:
  7144                           
  7145                           ;C:\Program Files\Microchip\xc8\v2.32\pic\sources\c90\common\doprnt.c: 661:   switch(c =
      +                           *f++) {
  7146  1704  2F0C               	goto	l2260
  7147  1705                     l2256:
  7148                           
  7149                           ;C:\Program Files\Microchip\xc8\v2.32\pic\sources\c90\common\doprnt.c: 835:    (putch(c)
      +                           );
  7150  1705  0878               	movf	printf@c,w
  7151  1706  120A  118A  200B  160A  118A  	fcall	_putch
  7152                           
  7153                           ;C:\Program Files\Microchip\xc8\v2.32\pic\sources\c90\common\doprnt.c: 836:    continue;
  7154  170B  2F29               	goto	l2262
  7155  170C                     l2260:
  7156  170C  0872               	movf	printf@f+1,w
  7157  170D  00F4               	movwf	??_printf+1
  7158  170E  0871               	movf	printf@f,w
  7159  170F  00F3               	movwf	??_printf
  7160  1710  0AF1               	incf	printf@f,f
  7161  1711  1903               	skipnz
  7162  1712  0AF2               	incf	printf@f+1,f
  7163  1713  0874               	movf	??_printf+1,w
  7164  1714  00FF               	movwf	btemp+1
  7165  1715  0873               	movf	??_printf,w
  7166  1716  0084               	movwf	4
  7167  1717  160A  118A  2000  160A  118A  	fcall	stringtab
  7168  171C  00F8               	movwf	printf@c
  7169  171D  00F5               	movwf	??_printf+2
  7170  171E  01F6               	clrf	??_printf+3
  7171                           
  7172                           ; Switch on 2 bytes has been partitioned into a top level switch of size 1, and 1 sub-sw
      +                          itches
  7173                           ; Switch size 1, requested type "simple"
  7174                           ; Number of cases is 1, Range of values is 0 to 0
  7175                           ; switch strategies available:
  7176                           ; Name         Instructions Cycles
  7177                           ; simple_byte            4     3 (average)
  7178                           ; direct_byte           11     8 (fixed)
  7179                           ; jumptable            260     6 (fixed)
  7180                           ;	Chosen strategy is simple_byte
  7181  171F  0876               	movf	??_printf+3,w
  7182  1720  3A00               	xorlw	0	; case 0
  7183  1721  1903               	skipnz
  7184  1722  2F24               	goto	l2968
  7185  1723  2F05               	goto	l2256
  7186  1724                     l2968:
  7187                           
  7188                           ; Switch size 1, requested type "simple"
  7189                           ; Number of cases is 1, Range of values is 0 to 0
  7190                           ; switch strategies available:
  7191                           ; Name         Instructions Cycles
  7192                           ; simple_byte            4     3 (average)
  7193                           ; direct_byte           11     8 (fixed)
  7194                           ; jumptable            260     6 (fixed)
  7195                           ;	Chosen strategy is simple_byte
  7196  1724  0875               	movf	??_printf+2,w
  7197  1725  3A00               	xorlw	0	; case 0
  7198  1726  1903               	skipnz
  7199  1727  2F43               	goto	l376
  7200  1728  2F05               	goto	l2256
  7201  1729                     l2262:
  7202                           
  7203                           ;C:\Program Files\Microchip\xc8\v2.32\pic\sources\c90\common\doprnt.c: 553:  while((c = 
      +                          *f++)) {
  7204  1729  0872               	movf	printf@f+1,w
  7205  172A  00F4               	movwf	??_printf+1
  7206  172B  0871               	movf	printf@f,w
  7207  172C  00F3               	movwf	??_printf
  7208  172D  0AF1               	incf	printf@f,f
  7209  172E  1903               	skipnz
  7210  172F  0AF2               	incf	printf@f+1,f
  7211  1730  0874               	movf	??_printf+1,w
  7212  1731  1283               	bcf	3,5	;RP0=0, select bank0
  7213  1732  1303               	bcf	3,6	;RP1=0, select bank0
  7214  1733  00FF               	movwf	btemp+1
  7215  1734  0873               	movf	??_printf,w
  7216  1735  0084               	movwf	4
  7217  1736  160A  118A  2000  160A  118A  	fcall	stringtab
  7218  173B  00F5               	movwf	??_printf+2
  7219  173C  0875               	movf	??_printf+2,w
  7220  173D  00F8               	movwf	printf@c
  7221  173E  0878               	movf	printf@c,w
  7222  173F  1D03               	btfss	3,2
  7223  1740  2F42               	goto	u2391
  7224  1741  2F43               	goto	u2390
  7225  1742                     u2391:
  7226  1742  2EF7               	goto	l2250
  7227  1743                     u2390:
  7228  1743                     l376:
  7229  1743  0008               	return
  7230  1744                     __end_of_printf:
  7231                           
  7232                           	psect	text20
  7233  000B                     __ptext20:	
  7234 ;; *************** function _putch *****************
  7235 ;; Defined at:
  7236 ;;		line 147 in file "Maestro.c"
  7237 ;; Parameters:    Size  Location     Type
  7238 ;;  data            1    wreg     unsigned char 
  7239 ;; Auto vars:     Size  Location     Type
  7240 ;;  data            1    0[COMMON] unsigned char 
  7241 ;; Return value:  Size  Location     Type
  7242 ;;                  1    wreg      void 
  7243 ;; Registers used:
  7244 ;;		wreg
  7245 ;; Tracked objects:
  7246 ;;		On entry : 0/0
  7247 ;;		On exit  : 0/0
  7248 ;;		Unchanged: 0/0
  7249 ;; Data sizes:     COMMON   BANK0   BANK1   BANK3   BANK2
  7250 ;;      Params:         0       0       0       0       0
  7251 ;;      Locals:         1       0       0       0       0
  7252 ;;      Temps:          0       0       0       0       0
  7253 ;;      Totals:         1       0       0       0       0
  7254 ;;Total ram usage:        1 bytes
  7255 ;; Hardware stack levels used: 1
  7256 ;; This function calls:
  7257 ;;		Nothing
  7258 ;; This function is called by:
  7259 ;;		_printf
  7260 ;; This function uses a non-reentrant model
  7261 ;;
  7262                           
  7263                           
  7264                           ;psect for function _putch
  7265  000B                     _putch:
  7266                           
  7267                           ;incstack = 0
  7268                           ; Regs used in _putch: [wreg]
  7269                           ;putch@data stored from wreg
  7270  000B  00F0               	movwf	putch@data
  7271  000C                     l1998:
  7272  000C                     l72:	
  7273                           ;Maestro.c: 148:     while (TXIF == 0);
  7274                           
  7275  000C  1283               	bcf	3,5	;RP0=0, select bank0
  7276  000D  1303               	bcf	3,6	;RP1=0, select bank0
  7277  000E  1E0C               	btfss	12,4	;volatile
  7278  000F  2811               	goto	u1871
  7279  0010  2812               	goto	u1870
  7280  0011                     u1871:
  7281  0011  280C               	goto	l72
  7282  0012                     u1870:
  7283  0012                     l2000:
  7284                           
  7285                           ;Maestro.c: 149:     TXREG = data;
  7286  0012  0870               	movf	putch@data,w
  7287  0013  0099               	movwf	25	;volatile
  7288  0014                     l75:
  7289  0014  0008               	return
  7290  0015                     __end_of_putch:
  7291  007E                     btemp	set	126	;btemp
  7292  007E                     wtemp0	set	126
  7293                           
  7294                           	psect	config
  7295                           
  7296                           ;Config register CONFIG1 @ 0x2007
  7297                           ;	Oscillator Selection bits
  7298                           ;	FOSC = INTRC_NOCLKOUT, INTOSCIO oscillator: I/O function on RA6/OSC2/CLKOUT pin, I/O f
      +                          unction on RA7/OSC1/CLKIN
  7299                           ;	Watchdog Timer Enable bit
  7300                           ;	WDTE = OFF, WDT disabled and can be enabled by SWDTEN bit of the WDTCON register
  7301                           ;	Power-up Timer Enable bit
  7302                           ;	PWRTE = ON, PWRT enabled
  7303                           ;	RE3/MCLR pin function select bit
  7304                           ;	MCLRE = OFF, RE3/MCLR pin function is digital input, MCLR internally tied to VDD
  7305                           ;	Code Protection bit
  7306                           ;	CP = OFF, Program memory code protection is disabled
  7307                           ;	Data Code Protection bit
  7308                           ;	CPD = OFF, Data memory code protection is disabled
  7309                           ;	Brown Out Reset Selection bits
  7310                           ;	BOREN = OFF, BOR disabled
  7311                           ;	Internal External Switchover bit
  7312                           ;	IESO = OFF, Internal/External Switchover mode is disabled
  7313                           ;	Fail-Safe Clock Monitor Enabled bit
  7314                           ;	FCMEN = OFF, Fail-Safe Clock Monitor is disabled
  7315                           ;	Low Voltage Programming Enable bit
  7316                           ;	LVP = OFF, RB3 pin has digital I/O, HV on MCLR must be used for programming
  7317                           ;	In-Circuit Debugger Mode bit
  7318                           ;	DEBUG = 0x1, unprogrammed default
  7319  2007                     	org	8199
  7320  2007  20C4               	dw	8388
  7321                           
  7322                           ;Config register CONFIG2 @ 0x2008
  7323                           ;	Brown-out Reset Selection bit
  7324                           ;	BOR4V = BOR40V, Brown-out Reset set to 4.0V
  7325                           ;	Flash Program Memory Self Write Enable bits
  7326                           ;	WRT = OFF, Write protection off
  7327  2008                     	org	8200
  7328  2008  3FFF               	dw	16383

Data Sizes:
    Strings     44
    Constant    0
    Data        0
    BSS         30
    Persistent  0
    Stack       0

Auto Spaces:
    Space          Size  Autos    Used
    COMMON           14     13      13
    BANK0            80     78      80
    BANK1            80     19      47
    BANK3            96      0       0
    BANK2            96      0       0

Pointer List with Targets:

    printf@f	PTR const unsigned char  size(2) Largest target is 18
		 -> STR_4(CODE[18]), STR_3(CODE[13]), STR_2(CODE[18]), STR_1(CODE[13]), 
		 -> adc1(BANK1[10]), adc0(BANK1[10]), 

    printf@ap	PTR void [1] size(1) Largest target is 2
		 -> ?_printf(COMMON[2]), 

    convert@data	PTR unsigned char  size(1) Largest target is 10
		 -> adc1(BANK1[10]), adc0(BANK1[10]), 


Critical Paths under _main in COMMON

    _convert->___wmul
    ___xxtofl->___wmul
    ___wmul->___fltol
    ___flsub->___wmul
    _config->_spiInit
    _Eusart->_printf
    _printf->_putch

Critical Paths under _main in BANK0

    _main->_convert
    _convert->___flmul
    ___xxtofl->___wmul
    ___flsub->___xxtofl
    ___flmul->___fldiv
    ___fldiv->___xxtofl

Critical Paths under _main in BANK1

    _main->_convert

Critical Paths under _main in BANK3

    None.

Critical Paths under _main in BANK2

    None.

Call Graph Tables:

 ---------------------------------------------------------------------------------
 (Depth) Function   	        Calls       Base Space   Used Autos Params    Refs
 ---------------------------------------------------------------------------------
 (0) _main                                                 4     4      0   18517
                                             15 BANK1      4     4      0
                             _Eusart
                            ___fldiv
                            ___flmul
                           ___xxtofl
                             _config
                            _convert
                            _spiRead
                           _spiWrite
 ---------------------------------------------------------------------------------
 (1) _spiWrite                                             1     1      0      22
                                              0 COMMON     1     1      0
 ---------------------------------------------------------------------------------
 (1) _spiRead                                              0     0      0       0
                     _spiReceiveWait
 ---------------------------------------------------------------------------------
 (2) _spiReceiveWait                                       0     0      0       0
 ---------------------------------------------------------------------------------
 (1) _convert                                             23    17      6   11989
                                             70 BANK0      8     2      6
                                              0 BANK1     15    15      0
                            ___awdiv
                            ___fldiv
                             ___flge
                            ___flmul
                            ___flsub
                            ___fltol
                             ___wmul
                           ___xxtofl
 ---------------------------------------------------------------------------------
 (2) ___xxtofl                                            14    10      4     930
                                              4 BANK0     14    10      4
                            ___fltol (ARG)
                             ___wmul (ARG)
 ---------------------------------------------------------------------------------
 (2) ___wmul                                               6     2      4     852
                                             11 COMMON     2     2      0
                                              0 BANK0      4     0      4
                            ___fltol (ARG)
 ---------------------------------------------------------------------------------
 (2) ___fltol                                             11     7      4     761
                                              0 COMMON    11     7      4
 ---------------------------------------------------------------------------------
 (2) ___flsub                                              8     0      8    2637
                                             18 BANK0      8     0      8
                            ___fladd
                            ___fltol (ARG)
                             ___wmul (ARG)
                           ___xxtofl (ARG)
 ---------------------------------------------------------------------------------
 (3) ___fladd                                             20    12      8    2136
                                              0 COMMON    12     4      8
                                              0 BANK0      8     8      0
 ---------------------------------------------------------------------------------
 (2) ___flmul                                             26    18      8    2873
                                             44 BANK0     26    18      8
                          __Umul8_16
                            ___fldiv (ARG)
                            ___flsub (ARG)
                            ___fltol (ARG)
                           ___xxtofl (ARG)
 ---------------------------------------------------------------------------------
 (3) __Umul8_16                                            9     7      2     799
                                              0 COMMON     9     7      2
 ---------------------------------------------------------------------------------
 (2) ___flge                                              12     4      8     334
                                              0 COMMON    12     4      8
 ---------------------------------------------------------------------------------
 (2) ___fldiv                                             26    18      8    1729
                                             18 BANK0     26    18      8
                           ___xxtofl (ARG)
 ---------------------------------------------------------------------------------
 (2) ___awdiv                                              9     5      4     452
                                              0 COMMON     9     5      4
 ---------------------------------------------------------------------------------
 (1) _config                                               0     0      0     382
                         _config_osc
                            _spiInit
 ---------------------------------------------------------------------------------
 (2) _spiInit                                              4     1      3     360
                                              0 COMMON     4     1      3
 ---------------------------------------------------------------------------------
 (2) _config_osc                                           3     3      0      22
                                              0 COMMON     3     3      0
 ---------------------------------------------------------------------------------
 (1) _Eusart                                               3     3      0     592
                                              9 COMMON     3     3      0
                             _printf
 ---------------------------------------------------------------------------------
 (2) _printf                                              20    18      2     592
                                              1 COMMON     8     6      2
                              _putch
 ---------------------------------------------------------------------------------
 (3) _putch                                                1     1      0      22
                                              0 COMMON     1     1      0
 ---------------------------------------------------------------------------------
 Estimated maximum stack depth 3
 ---------------------------------------------------------------------------------

 Call Graph Graphs:

 _main (ROOT)
   _Eusart
     _printf
       _putch
   ___fldiv
     ___xxtofl (ARG)
       ___fltol (ARG)
       ___wmul (ARG)
         ___fltol (ARG)
   ___flmul
     __Umul8_16
     ___fldiv (ARG)
     ___flsub (ARG)
       ___fladd
       ___fltol (ARG)
       ___wmul (ARG)
       ___xxtofl (ARG)
     ___fltol (ARG)
     ___xxtofl (ARG)
   ___xxtofl
   _config
     _config_osc
     _spiInit
   _convert
     ___awdiv
     ___fldiv
     ___flge
     ___flmul
     ___flsub
     ___fltol
     ___wmul
     ___xxtofl
   _spiRead
     _spiReceiveWait
   _spiWrite

 Address spaces:
Name               Size   Autos  Total    Cost      Usage
BITCOMMON            E      0       0       0        0.0%
EEDATA             100      0       0       0        0.0%
NULL                 0      0       0       0        0.0%
CODE                 0      0       0       0        0.0%
COMMON               E      D       D       1       92.9%
BITSFR0              0      0       0       1        0.0%
SFR0                 0      0       0       1        0.0%
BITSFR1              0      0       0       2        0.0%
SFR1                 0      0       0       2        0.0%
STACK                0      0       0       2        0.0%
ABS                  0      0      8C       3        0.0%
BITBANK0            50      0       0       4        0.0%
BITSFR3              0      0       0       4        0.0%
SFR3                 0      0       0       4        0.0%
BANK0               50     4E      50       5      100.0%
BITSFR2              0      0       0       5        0.0%
SFR2                 0      0       0       5        0.0%
BITBANK1            50      0       0       6        0.0%
BANK1               50     13      2F       7       58.8%
BITBANK3            60      0       0       8        0.0%
BANK3               60      0       0       9        0.0%
BITBANK2            60      0       0      10        0.0%
BANK2               60      0       0      11        0.0%
DATA                 0      0      8C      12        0.0%


Microchip Technology PIC Macro Assembler V2.32 build 20210201212658 
Symbol Table                                                                                   Mon Aug 02 21:15:06 2021

           ___fldiv@aexp 004B             ___fldiv@bexp 004A                        pc 0002  
           ___fldiv@sign 0043              _SSPSTATbits 0094                       l72 000C  
                     l75 0014                       l69 16F1                       l78 0099  
           ___awdiv@sign 0076                       fsr 0004      ___wmul@multiplicand 0022  
    __Umul8_16@word_mpld 0076                      l171 07EE                      l260 166D  
                    l261 1672                      l270 164C                      l256 1798  
                    l248 1797                      l264 164D                      l267 1653  
                    l380 16A8                      l533 17FF                      l382 16C0  
                    l278 165C                      l376 1743                      l704 0F8D  
                    l554 08BB                      l731 0D67                      l715 0FF1  
                    l707 0FCD                      l716 0FFF                      l557 0927  
                    l573 0889                      l813 0965                      l558 0940  
                    l566 089E                      l751 0D4B                      l719 0824  
                    l815 09FC                      l576 089E                      l753 0D5B  
                    l745 0CD9                      l729 0BE7                      l673 0DCB  
                    l826 09C6                      l827 09D2                      l819 09AA  
                    l781 03EE                      l677 0E74                      l790 1699  
                    l694 0F45                      l686 0FFF                      l775 0366  
                    l679 0E49                      l769 03FA                      l698 0F6B  
                    l788 1687                      fsr0 0004                      indf 0000  
           ___flmul@aexp 005E             ___flmul@bexp 005F             ___flmul@sign 0059  
           ___flmul@temp 0064             ___flmul@prod 0060             ___fltol@exp1 007A  
                   l2000 0012                     l2010 0D79                     l2100 0E6E  
                   l2020 0D8D                     l2012 0D7A                     l2004 0D68  
                   l2110 0E9D                     l2102 0E78                     l2030 0DA3  
                   l2014 0D7F                     l2022 0D8F                     l2006 0D6F  
                   l2200 1676                     l2120 0EB6                     l2112 0EA1  
                   l2104 0E7D                     l2040 0DB8                     l2032 0DA9  
                   l2024 0D97                     l2016 0D84                     l2008 0D75  
                   l2202 167D                     l2130 0F1D                     l2122 0EB7  
                   l2114 0EA5                     l2050 0DD5                     l2042 0DC0  
                   l2034 0DAD                     l2026 0D9C                     l2018 0D8C  
                   l2220 166C                     l2212 165E                     l2300 17B2  
                   l2204 1681                     l2140 0F52                     l2132 0F23  
                   l2124 0EC2                     l2116 0EB0                     l2108 0E86  
                   l2060 0DE9                     l2052 0DD9                     l2044 0DC1  
                   l2036 0DAE                     l2028 0DA2                     l2230 1757  
                   l2222 1745                     l2214 1665                     l2310 17C8  
                   l2302 17B4                     l2206 1690                     l2150 0F6F  
                   l2134 0F28                     l2118 0EB2                     l2126 0EC7  
                   l2070 0DFD                     l2062 0DED                     l2054 0DDD  
                   l2038 0DB3                     l2046 0DC3                     l2232 175E  
                   l2224 1746                     l2216 1667                     l2320 17EB  
                   l2312 17CC                     l2304 17BA                     l2400 0B9D  
                   l2208 1695                     l2152 0F72                     l2144 0F5B  
                   l2128 0EDD                     l2136 0F37                     l2160 0F7F  
                   l2080 0E11                     l2072 0E01                     l2064 0DF1  
                   l2056 0DE1                     l2048 0DD1                     l2250 16F7  
                   l2234 1765                     l2226 174B                     l2242 1778  
                   l2218 1669                     l2314 17DD                     l2306 17BD  
                   l2322 17F1                     l2402 0BA2                     l2410 0BB2  
                   l2330 089F                     l2170 0F92                     l2162 0F80  
                   l2154 0F74                     l2146 0F66                     l2138 0F4D  
                   l2090 0E58                     l2074 0E05                     l2066 0DF5  
                   l2058 0DE5                     l2082 0E15                     l2260 170C  
                   l2252 16FD                     l2236 176C                     l2228 1752  
                   l2324 17F6                     l2316 17E3                     l2308 17C4  
                   l2420 0BCA                     l2412 0BBA                     l2404 0BA7  
                   l2340 08FF                     l2332 08B3                     l2180 0FD2  
                   l2172 0F97                     l2164 0F84                     l2156 0F79  
                   l2148 0F6A                     l2092 0E5A                     l2084 0E16  
                   l2076 0E09                     l2068 0DF9                     l2254 1704  
                   l2262 1729                     l2238 1771                     l2326 17FB  
                   l2318 17E4                     l2510 0D0E                     l2502 0CDE  
                   l2422 0BCF                     l2430 0BDF                     l2414 0BBF  
                   l2406 0BAF                     l2342 0903                     l2334 08CF  
                   l2190 0FE9                     l2182 0FD7                     l2174 0FA5  
                   l2166 0F8A                     l2158 0F7B                     l2094 0E5E  
                   l2086 0E2D                     l2078 0E0D                     l2350 0825  
                   l2270 164D                     l2256 1705                     l2248 16F2  
                   l2520 0D42                     l2504 0CE3                     l2512 0D14  
                   l2432 0BEF                     l2440 0C08                     l2424 0BD4  
                   l2416 0BC5                     l2408 0BB0                     l2344 093D  
                   l2336 08D7                     l2600 0207                     l2192 0FEB  
                   l2184 0FDF                     l2176 0FA9                     l2096 0E5F  
                   l2088 0E4D                     l2360 084F                     l2352 0830  
                   l2280 16B6                     l2272 169A                     l2290 179E  
                   l2522 0D4A                     l2514 0D21                     l2506 0CF1  
                   l2450 0C30                     l2442 0C0D                     l2434 0BFB  
                   l2426 0BDC                     l2418 0BC9                     l2346 093F  
                   l2338 08DB                     l2610 0297                     l2602 0224  
                   l2194 0FFA                     l2186 0FE4                     l2178 0FC9  
                   l2098 0E6A                     l2362 0857                     l2282 16BC  
                   l2274 169C                     l2292 17A3                     l2524 0D51  
                   l2516 0D2F                     l2508 0CF5                     l2460 0C59  
                   l2452 0C38                     l2436 0BFF                     l2428 0BDD  
                   l2620 0329                     l2612 02C4                     l2604 023D  
                   l2540 00AB                     l2196 0FFE                     l2188 0FE5  
                   l2380 087E                     l2372 0865                     l2364 0859  
                   l2356 0839                     l2276 16A2                     l2700 09BC  
                   l2294 17A5                     l2286 1799                     l2526 0D55  
                   l2518 0D3E                     l2470 0C7A                     l2462 0C5D  
                   l2454 0C40                     l2446 0C16                     l2198 1674  
                   l2622 0332                     l2630 0346                     l2614 02EA  
                   l2606 025A                     l2550 00C0                     l2542 00AC  
                   l2534 009A                     l2382 088E                     l2366 085D  
                   l2374 0877                     l2358 084E                     l2278 16AF  
                   l2710 09EF                     l2702 09C0                     l2720 16CD  
                   l2296 17A9                     l2288 179A                     l2528 0D57  
                   l2480 0C9C                     l2472 0C88                     l2464 0C5E  
                   l2456 0C42                     l2448 0C28                     l2392 0B8B  
                   l2632 034A                     l2624 0336                     l2616 0312  
                   l2608 0287                     l2560 00D8                     l2552 00C8  
                   l2544 00B1                     l2536 00A1                     l2384 0893  
                   l2712 09F3                     l2704 09CA                     l2800 048D  
                   l2730 16E1                     l2722 16CE                     l2298 17AE  
                   l2482 0CA5                     l2490 0CB9                     l2458 0C47  
                   l2466 0C67                     l2474 0C8C                     l2394 0B92  
                   l2650 039B                     l2642 036B                     l2634 034B  
                   l2626 0337                     l2618 031B                     l2570 00F4  
                   l2562 00DD                     l2554 00CD                     l2546 00B6  
                   l2538 00A7                     l2386 0801                     l2714 09F4  
                   l2706 09D4                     l2810 04C4                     l2802 0493  
                   l2740 16ED                     l2732 16E4                     l2724 16D7  
                   l2492 0CBD                     l2484 0CA9                     l2476 0C92  
                   l2468 0C79                     l2396 0B98                     l2660 03D2  
                   l2644 0370                     l2652 03A1                     l2636 034F  
                   l2628 0340                     l2580 0117                     l2572 00F9  
                   l2564 00E2                     l2556 00D3                     l2548 00BE  
                   l2388 0805                     l2708 09EA                     l2820 05A4  
                   l2812 04DA                     l2804 0498                     l2900 0A50  
                   l2750 002B                     l2742 16EE                     l2734 16E8  
                   l2726 16DD                     l2718 16C1                     l2494 0CBE  
                   l2486 0CAA                     l2478 0C9A                     l2398 0B9C  
                   l2670 03F2                     l2662 03D4                     l2654 03AE  
                   l2646 037E                     l2638 0363                     l2590 01A5  
                   l2582 0124                     l2574 00FE                     l2566 00EA  
                   l2558 00D7                     l2830 05C6                     l2814 0576  
                   l2806 049D                     l2822 05A8                     l2910 0ADA  
                   l2902 0A5A                     l2760 0083                     l2752 0041  
                   l2736 16E9                     l2728 16E0                     l2496 0CC2  
                   l2488 0CB3                     l2664 03E2                     l2656 03B9  
                   l2648 0382                     l2592 01C1                     l2584 0141  
                   l2568 00EC                     l2680 095D                     l2840 0687  
                   l2832 05CB                     l2824 05AE                     l2816 0596  
                   l2808 04BE                     l2912 0B45                     l2904 0A5D  
                   l2762 0090                     l2754 004E                     l2746 0015  
                   l2738 16EC                     l2498 0CD6                     l2666 03E6  
                   l2658 03C8                     l2594 01CA                     l2586 015D  
                   l2578 0107                     l2690 0988                     l2682 096D  
                   l2674 0944                     l2850 06BD                     l2842 069D  
                   l2834 05EC                     l2826 05BE                     l2818 059E  
                   l2770 1659                     l2914 0B65                     l2906 0A67  
                   l2756 0064                     l2748 0022                     l2668 03E7  
                   l2596 01DA                     l2588 0189                     l2692 098F  
                   l2676 0949                     l2860 06F4                     l2852 06C3  
                   l2844 06AA                     l2836 05F2                     l2828 05C6  
                   l2780 0415                     l2908 0A6F                     l2758 006D  
                   l2598 01F7                     l2694 0993                     l2686 0976  
                   l2678 094D                     l2870 07D4                     l2862 070A  
                   l2854 06C8                     l2846 06AA                     l2838 060A  
                   l2790 0457                     l2782 0417                     l2774 03FE  
                   l2766 1648                     l2696 09A1                     l2688 097B  
                   l2864 07A6                     l2856 06CD                     l2872 07D8  
                   l2848 06B0                     l2792 0462                     l2784 041B  
                   l2776 0413                     l2768 1654                     l2880 0A07  
                   l2698 09B1                     l2874 07DE                     l2866 07C6  
                   l2858 06EE                     l2794 046B                     l2786 041B  
                   l2778 0413                     l2890 0A30                     l2882 0A0A  
                   l2868 07CE                     l2796 047E                     l2788 0436  
                   l2892 0A33                     l2884 0A14                     l2876 09FD  
                   l1998 000C                     l2966 1780                     l2798 0484  
                   l2894 0A34                     l2886 0A1A                     l2878 0A02  
                   l2968 1724                     l2896 0A3E                     l2888 0A26  
                   l2898 0A44                     STR_1 1022                     STR_2 1010  
                   STR_3 102F                     STR_4 1010                     u2000 0E4D  
                   u2001 0E4C                     u2010 0E5E                     u2011 0E5D  
                   u2110 0EDD                     u2030 0E74                     u2111 0EDC  
                   u2031 0E73                     u3000 0D55                     u2200 0F79  
                   u2040 0E78                     u3001 0D54                     u2201 0F78  
                   u2121 0EF6                     u2113 0ED9                     u2105 0EBB  
                   u2041 0E77                     u2025 0E63                     u3010 00AB  
                   u2210 0F7F                     u2130 0F0A                     u2122 0EF7  
                   u2050 0E7D                     u3011 00AA                     u2211 0F7E  
                   u2131 0F0B                     u2123 0EFC                     u2051 0E7C  
                   u3020 00B1                     u2300 0FD7                     u2220 0F84  
                   u2140 0F28                     u2132 0F10                     u2124 0EFD  
                   u3101 016B                     u3021 00B0                     u2301 0FD6  
                   u2221 0F83                     u2141 0F27                     u2133 0F11  
                   u2125 0F02                     u2061 0E8F                     u3102 0172  
                   u3030 00B6                     u2310 0FE4                     u2230 0F8A  
                   u2150 0F4D                     u2126 0F03                     u2070 0EA1  
                   u2062 0E96                     u3111 0197                     u3103 0179  
                   u3031 00B5                     u2311 0FE3                     u2231 0F89  
                   u2151 0F4C                     u2071 0EA0                     u2063 0E9D  
                   u3200 02D0                     u3112 019E                     u3040 00D7  
                   u2320 0FE9                     u2240 0F91                     u2160 0F52  
                   u2080 0EA5                     u2400 1653                     u3121 01B3  
                   u3113 01A5                     u3041 00D6                     u2321 0FE8  
                   u2241 0F90                     u2161 0F51                     u2081 0EA4  
                   u2401 1652                     u3122 01BA                     u3050 00DD  
                   u2330 0FFE                     u2250 0F97                     u2090 0EB6  
                   u2410 16A2                     u3211 02DC                     u3123 01C1  
                   u3051 00DC                     u2331 0FFD                     u2251 0F96  
                   u2091 0EB5                     u2411 16A1                     u2340 1681  
                   u3300 0363                     u3220 02F8                     u3212 02E3  
                   u3060 00E2                     u2260 0FA9                     u2180 0F6A  
                   u2341 1680                     u3301 0362                     u3213 02EA  
                   u3205 02CB                     u3141 01E9                     u3061 00E1  
                   u2261 0FA8                     u2181 0F69                     u2510 17DD  
                   u3310 036A                     u3142 01F0                     u3070 00F9  
                   u2270 0FBA                     u2190 0F6F                     u2511 17DC  
                   u3311 0369                     u3231 0304                     u3151 0216  
                   u3143 01F7                     u3135 01C3                     u3071 00F8  
                   u2191 0F6E                     u2175 0F5F                     u2360 1695  
                   u3320 0370                     u3232 030B                     u3152 021D  
                   u3080 00FE                     u2280 0FC9                     u2440 16BC  
                   u3400 096D                     u2505 17CD                     u2601 0912  
                   u2361 1694                     u3321 036F                     u3233 0312  
                   u3225 02F3                     u3153 0224                     u3081 00FD  
                   u2281 0FC8                     u2441 16BB                     u2425 16A9  
                   u3401 096C                     u2370 1665                     u2530 17F1  
                   u2450 179E                     u2610 093D                     u2602 0913  
                   u3330 0382                     u2290 0FD2                     u2371 1664  
                   u2531 17F0                     u2515 17D9                     u2451 179D  
                   u2611 093C                     u2603 0918                     u2355 1688  
                   u3331 0381                     u3171 024C                     u3091 014F  
                   u2291 0FD1                     u2275 0FB5                     u2435 16B0  
                   u2380 16FD                     u2540 17F6                     u2460 17A9  
                   u2604 0919                     u3340 0391                     u3260 0336  
                   u3172 0253                     u3092 0156                     u1900 0D84  
                   u2700 088E                     u2620 0830                     u3500 09EF  
                   u3420 098E                     u2381 16FC                     u2541 17F5  
                   u2525 17E5                     u2461 17A8                     u2605 091E  
                   u3261 0335                     u3245 0314                     u3181 0279  
                   u3173 025A                     u3165 0226                     u3093 015D  
                   u1901 0D83                     u2701 088D                     u2621 082F  
                   u3501 09EE                     u3421 098D                     u2390 1743  
                   u2470 17BA                     u2606 091F                     u2550 08B3  
                   u3350 03AE                     u3182 0280                     u1910 0DA2  
                   u2710 0893                     u2630 0847                     u3510 09F3  
                   u2391 1742                     u2471 17B9                     u2615 0939  
                   u2551 08B2                     u3351 03AD                     u3255 032B  
                   u3191 02A6                     u3183 0287                     u1911 0DA1  
                   u2711 0892                     u3511 09F2                     u3415 0980  
                   u2800 0C47                     u2720 0B9C                     u2560 08CF  
                   u3360 03C8                     u3280 034A                     u3192 02AD  
                   u1920 0DAD                     u2640 085D                     u3440 09B0  
                   u3600 07DE                     u3520 0436                     u2801 0C46  
                   u2721 0B9B                     u2561 08CE                     u3361 03C7  
                   u3345 038C                     u3281 0349                     u3193 02B4  
                   u1921 0DAC                     u2641 085C                     u3441 09AF  
                   u3601 07DD                     u3521 0435                     u2490 17CC  
                   u2730 0BA2                     u2570 08DB                     u3370 03E6  
                   u3290 034F                     u1930 0DB3                     u2650 0864  
                   u3530 048C                     u2491 17CB                     u2731 0BA1  
                   u2571 08DA                     u3371 03E5                     u3355 03AA  
                   u3291 034E                     u3275 0339                     u1931 0DB2  
                   u2651 0863                     u2635 0842                     u3435 09A2  
                   u3531 048B                     u2740 0BA7                     u1940 0DB8  
                   u3460 09C0                     u3380 0949                     u3540 0493  
                   u2485 17BE                     u2741 0BA6                     u2581 08EA  
                   u3365 03C4                     u1941 0DB7                     u3461 09BF  
                   u3381 0948                     u3541 0492                     u1870 0012  
                   u2910 0CBD                     u2830 0C5D                     u2750 0BC9  
                   u2590 0903                     u2582 08EB                     u1950 0DD1  
                   u2670 0876                     u3470 09C6                     u3390 094D  
                   u3550 04DA                     u1871 0011                     u2911 0CBC  
                   u2831 0C5C                     u2815 0C49                     u2751 0BC8  
                   u2591 0902                     u2583 08F0                     u1951 0DD0  
                   u2671 0875                     u3471 09C5                     u3455 09B5  
                   u3391 094C                     u3551 04D9                     u2920 0CC2  
                   u2760 0BCF                     u2584 08F1                     u1960 0DD5  
                   u1880 0D79                     u2680 087D                     u3480 09CA  
                   u3560 05AE                     u2921 0CC1                     u2905 0CAC  
                   u2825 0C52                     u2761 0BCE                     u2585 08F6  
                   u1961 0DD4                     u1881 0D78                     u2681 087C  
                   u2665 0866                     u3481 09C9                     u3561 05AD  
                   u3617 0A10                     u2930 0CD6                     u2850 0C79  
                   u2770 0BD4                     u2586 08F7                     u1970 0E2D  
                   u1890 0D7F                     u3490 09DF                     u3570 060A  
                   u3707 0089                     u2931 0CD5                     u2851 0C78  
                   u2771 0BD3                     u1971 0E2C                     u1891 0D7E  
                   u3571 0609                     u3555 04D6                     u3627 0A2C  
                   u2940 0CDD                     u2860 0C92                     u2780 0BEF  
                   u1980 0E36                     u3580 06C3                     u2941 0CDC  
                   u2861 0C91                     u2845 0C60                     u2781 0BEE  
                   u1981 0E34                     u3581 06C2                     u3637 0A3A  
                   u2950 0CE3                     u2870 0C9A                     u2790 0C0D  
                   u1990 0E37                     u3590 070A                     u2951 0CE2  
                   u2871 0C99                     u2855 0C75                     u2791 0C0C  
                   u1975 0E29                     u2695 0880                     u3495 09DA  
                   u3591 0709                     u3575 0606                     u3647 0A56  
                   u2960 0CF5                     u3657 001B                     u2961 0CF4  
                   u2970 0D04                     u2890 0CA9                     u3667 0031  
                   u2891 0CA8                     u3595 0706                     u2980 0D21  
                   u3677 0047                     u2981 0D20                     u2885 0C9E  
                   u2990 0D3E                     u3687 005D                     u2991 0D3D  
                   u2975 0CFF                     u3697 0073                     u2985 0D1D  
                   u2995 0D3A                     _TXIF 0064                     _adc0 00B2  
                   _adc1 00A8                     _main 09FD                     btemp 007E  
                   start 0000          ___fldiv@new_exp 0044            ___fltol@sign1 0079  
        __end_of___fladd 1000                    ?_main 0070          __end_of___fldiv 0D68  
        __end_of___awdiv 1800          __end_of___flmul 03FB          __end_of___flsub 0825  
        __end_of___fltol 089F                    _ANSEL 0188          ___awdiv@divisor 0070  
        ___awdiv@counter 0075                    _RCREG 001A                    _SPBRG 0099  
                  _PORTB 0006                    _PORTD 0008                    _TRISB 0086  
                  _TRISD 0088                    _TXREG 0019              convert@data 00C0  
            convert@temp 00BC          __end_of_convert 07EF                    _conv0 00A4  
                  _conv1 00A0                    _putch 000B                    pclath 000A  
        __end_of_spiInit 1673          __end_of_spiRead 165D                    status 0003  
                  wtemp0 007E          __initialization 07EF             __end_of_main 0B8B  
                 ??_main 00CB         ___awdiv@dividend 0072                   ?_putch 0070  
                 _ANSELH 0189                   _SPBRGH 009A                   _TRISC3 043B  
                 _TRISC5 043D                   _SSPCON 0014                   _SSPBUF 0013  
       __end_of___xxtofl 09FD                   _Eusart 0015                   ___flge 089F  
           convert@place 006A                ??___fladd 0020                   ___wmul 169A  
              ??___fldiv 003A                ??___awdiv 0074                ??___flmul 0054  
              ??___flsub 007D                ??___fltol 0074                   _config 16C1  
       ___awdiv@quotient 0077                   _printf 16F2                ??_convert 006C  
     __size_of__Umul8_16 0027         __end_of_spiWrite 164D                ??_spiInit 0073  
              ??_spiRead 0070               ___flge@ff1 0070               ___flge@ff2 0074  
           ___xxtofl@arg 002E             ___xxtofl@exp 002D             ___xxtofl@val 0024  
__end_of__initialization 07FC           config_osc@frec 0072               ___fltol@f1 0070  
         __pcstackCOMMON 0070            __end_of_putch 0015                  ??_putch 0070  
             __pbssBANK0 006E               __pbssBANK1 00A0        __end_of__Umul8_16 169A  
                ?_Eusart 0070               __pmaintext 09FD                  ?___flge 0070  
                ?___wmul 0020                  ?_config 0070  __size_of_spiReceiveWait 0007  
                ?_printf 0071                ?___xxtofl 0024               _config_osc 1744  
                _SSPSTAT 0094               __stringtab 1000          __size_of_Eusart 0085  
          convert@digits 00C7                ?_spiWrite 0070          __size_of___flge 00A2  
                ___fladd 0D68                  ___fldiv 0B8B                  ___awdiv 1799  
                ___flmul 009A                  ___flsub 0801                  ___fltol 0825  
        __size_of___wmul 0027          __size_of_config 0031                _ANSELbits 0188  
                __ptext1 1647                  __ptext2 1654                  __ptext3 164D  
                __ptext4 03FB                  __ptext5 0941                  __ptext6 169A  
                __ptext7 0825                  __ptext8 0801                  __ptext9 0D68  
        __size_of_printf 0052                  _convert 03FB               ??___xxtofl 0028  
                _spiInit 165D                  _spiRead 1654                  clrloop0 0004  
   end_of_initialization 07FC                _RCSTAbits 0018                  printf@c 0078  
                printf@f 0071               ??_spiWrite 0070                _PORTCbits 0007  
            ___fladd@grs 007B            ___xxtofl@sign 002C              ?_config_osc 0070  
              _TRISCbits 0087              ___fldiv@grs 0046              ___fldiv@rem 003F  
            spiWrite@dat 0070              ___flmul@grs 005A                _TXSTAbits 0098  
         __end_of_Eusart 009A           _spiReceiveWait 164D           __end_of___flge 0941  
         __end_of___wmul 16C1              _BAUDCTLbits 0187           __end_of_config 16F2  
         __end_of_printf 1744      start_initialization 07EF                 ??_Eusart 0079  
 __end_of_spiReceiveWait 1654                 ??___flge 0078      __size_of_config_osc 0055  
               ??___wmul 007B                __Umul8_16 1673                 ??_config 0074  
               ??_printf 0073                ___fladd@a 0074                ___fladd@b 0070  
              ___fldiv@a 0032                ___fldiv@b 0036                ___flmul@a 0050  
              ___flmul@b 004C                ___flsub@a 0032                ___flsub@b 0036  
              ___latbits 0002            __pcstackBANK0 0020            __pcstackBANK1 00BC  
      __size_of___xxtofl 00BC          ?_spiReceiveWait 0070                 ?___fladd 0070  
               ?___fldiv 0032                 ?___awdiv 0070                 ?___flmul 004C  
               ?___flsub 0032                 ?___fltol 0070               ?__Umul8_16 0070  
      __size_of_spiWrite 0006                __pstrings 1000                 ?_convert 0066  
               ?_spiInit 0070                 ?_spiRead 0070           __size_of_putch 000A  
   spiInit@sTransmitEdge 0072           ___wmul@product 007B                clear_ram0 0003  
               _PIE1bits 008C       spiInit@sDataSample 0070                 _PIR1bits 000C  
             _ADCON0bits 001F              __stringbase 100F               _ADCON1bits 009F  
      ___wmul@multiplier 0020             ??_config_osc 0070                convert@mu 00C9  
     __end_of_config_osc 1799              ??__Umul8_16 0072         __size_of___fladd 0298  
       __size_of___fldiv 01DD         __size_of___awdiv 0067         __size_of___flmul 0361  
       __size_of___flsub 0024         __size_of___fltol 007A       __end_of__stringtab 1010  
             _ANSELHbits 0189         __size_of_convert 03F4                 ___xxtofl 0941  
               __ptext10 009A                 __ptext11 1673                 __ptext20 000B  
               __ptext12 089F                 __ptext13 0B8B                 __ptext14 1799  
               __ptext15 16C1                 __ptext16 165D                 __ptext17 1744  
               __ptext18 0015                 __ptext19 16F2         __size_of_spiInit 0016  
       __size_of_spiRead 0009            __size_of_main 018E                 _var_adc0 006F  
               _var_adc1 006E                 _spiWrite 1647             spiInit@sType 0073  
      spiInit@sClockIdle 0071                 convert@a 0066                 convert@i 00C5  
               convert@j 00BE                 convert@x 00C1                putch@data 0070  
       ??_spiReceiveWait 0070                stringcode 100A               _OSCCONbits 008F  
               printf@ap 0077   __Umul8_16@multiplicand 0070                 stringdir 100A  
               stringtab 1000            ___fladd@signs 0078             ___fladd@aexp 0079  
           ___fladd@bexp 007A     __Umul8_16@multiplier 0078        __Umul8_16@product 0074  
