

Microchip MPLAB XC8 Assembler V2.32 build 20210201212658 
                                                                                               Mon Aug 02 19:28:55 2021

Microchip MPLAB XC8 C Compiler v2.32 (Free license) build 20210201212658 Og1 
     1                           	processor	16F887
     2                           	pagewidth 120
     3                           	opt	flic
     4                           	psect	strings,global,class=STRING,delta=2,noexec
     5                           	psect	cinit,global,class=CODE,merge=1,delta=2
     6                           	psect	bssBANK0,global,class=BANK0,space=1,delta=1,noexec
     7                           	psect	bssBANK1,global,class=BANK1,space=1,delta=1,noexec
     8                           	psect	cstackBANK1,global,class=BANK1,space=1,delta=1,noexec
     9                           	psect	cstackCOMMON,global,class=COMMON,space=1,delta=1,noexec
    10                           	psect	cstackBANK0,global,class=BANK0,space=1,delta=1,noexec
    11                           	psect	maintext,global,class=CODE,split=1,delta=2
    12                           	psect	text1,local,class=CODE,merge=1,delta=2
    13                           	psect	text2,local,class=CODE,merge=1,delta=2
    14                           	psect	text3,local,class=CODE,merge=1,delta=2
    15                           	psect	text4,local,class=CODE,merge=1,delta=2
    16                           	psect	text5,local,class=CODE,merge=1,delta=2,group=1
    17                           	psect	text6,local,class=CODE,merge=1,delta=2,group=1
    18                           	psect	text7,local,class=CODE,merge=1,delta=2,group=1
    19                           	psect	text8,local,class=CODE,merge=1,delta=2,group=1
    20                           	psect	text9,local,class=CODE,merge=1,delta=2,group=1
    21                           	psect	text10,local,class=CODE,merge=1,delta=2,group=1
    22                           	psect	text11,local,class=CODE,merge=1,delta=2,group=1
    23                           	psect	text12,local,class=CODE,merge=1,delta=2,group=1
    24                           	psect	text13,local,class=CODE,merge=1,delta=2,group=1
    25                           	psect	text14,local,class=CODE,merge=1,delta=2,group=1
    26                           	psect	text15,local,class=CODE,merge=1,delta=2
    27                           	psect	text16,local,class=CODE,merge=1,delta=2
    28                           	psect	text17,local,class=CODE,merge=1,delta=2
    29                           	psect	text18,local,class=CODE,merge=1,delta=2
    30                           	psect	text19,local,class=CODE,merge=1,delta=2
    31                           	psect	text20,local,class=CODE,merge=1,delta=2
    32                           	psect	text21,local,class=CODE,merge=1,delta=2,group=1
    33                           	psect	config,global,abs,ovrld,class=CONFIG,space=4,delta=2,noexec
    34                           	dabs	1,0x7E,2
    35  0000                     
    36                           ; Version 2.20
    37                           ; Generated 12/02/2020 GMT
    38                           ; 
    39                           ; Copyright © 2020, Microchip Technology Inc. and its subsidiaries ("Microchip")
    40                           ; All rights reserved.
    41                           ; 
    42                           ; This software is developed by Microchip Technology Inc. and its subsidiaries ("Microch
      +                          ip").
    43                           ; 
    44                           ; Redistribution and use in source and binary forms, with or without modification, are
    45                           ; permitted provided that the following conditions are met:
    46                           ; 
    47                           ;     1. Redistributions of source code must retain the above copyright notice, this lis
      +                          t of
    48                           ;        conditions and the following disclaimer.
    49                           ; 
    50                           ;     2. Redistributions in binary form must reproduce the above copyright notice, this 
      +                          list
    51                           ;        of conditions and the following disclaimer in the documentation and/or other
    52                           ;        materials provided with the distribution.
    53                           ; 
    54                           ;     3. Microchip's name may not be used to endorse or promote products derived from th
      +                          is
    55                           ;        software without specific prior written permission.
    56                           ; 
    57                           ; THIS SOFTWARE IS PROVIDED BY MICROCHIP "AS IS" AND ANY EXPRESS OR IMPLIED WARRANTIES,
    58                           ; INCLUDING, BUT NOT LIMITED TO, THE IMPLIED WARRANTIES OF MERCHANTABILITY AND FITNESS F
      +                          OR
    59                           ; PURPOSE ARE DISCLAIMED.  IN NO EVENT SHALL MICROCHIP BE LIABLE FOR ANY DIRECT, INDIREC
      +                          T,
    60                           ; INCIDENTAL, SPECIAL, EXEMPLARY, OR CONSEQUENTIAL DAMAGES (INCLUDING BUT NOT LIMITED TO
    61                           ; PROCUREMENT OF SUBSTITUTE GOODS OR SERVICES; LOSS OF USE, DATA OR PROFITS; OR BUSINESS
    62                           ; INTERRUPTION) HOWSOEVER CAUSED AND ON ANY THEORY OF LIABILITY, WHETHER IN CONTRACT, ST
      +                          RICT
    63                           ; LIABILITY, OR TORT (INCLUDING NEGLIGENCE OR OTHERWISE) ARISING IN ANY WAY OUT OF THE U
      +                          SE OF
    64                           ; THIS SOFTWARE, EVEN IF ADVISED OF THE POSSIBILITY OF SUCH DAMAGE.
    65                           ; 
    66                           ; 
    67                           ; Code-generator required, PIC16F887 Definitions
    68                           ; 
    69                           ; SFR Addresses
    70  0000                     	;# 
    71  0001                     	;# 
    72  0002                     	;# 
    73  0003                     	;# 
    74  0004                     	;# 
    75  0005                     	;# 
    76  0006                     	;# 
    77  0007                     	;# 
    78  0008                     	;# 
    79  0009                     	;# 
    80  000A                     	;# 
    81  000B                     	;# 
    82  000C                     	;# 
    83  000D                     	;# 
    84  000E                     	;# 
    85  000E                     	;# 
    86  000F                     	;# 
    87  0010                     	;# 
    88  0011                     	;# 
    89  0012                     	;# 
    90  0013                     	;# 
    91  0014                     	;# 
    92  0015                     	;# 
    93  0015                     	;# 
    94  0016                     	;# 
    95  0017                     	;# 
    96  0018                     	;# 
    97  0019                     	;# 
    98  001A                     	;# 
    99  001B                     	;# 
   100  001B                     	;# 
   101  001C                     	;# 
   102  001D                     	;# 
   103  001E                     	;# 
   104  001F                     	;# 
   105  0081                     	;# 
   106  0085                     	;# 
   107  0086                     	;# 
   108  0087                     	;# 
   109  0088                     	;# 
   110  0089                     	;# 
   111  008C                     	;# 
   112  008D                     	;# 
   113  008E                     	;# 
   114  008F                     	;# 
   115  0090                     	;# 
   116  0091                     	;# 
   117  0092                     	;# 
   118  0093                     	;# 
   119  0093                     	;# 
   120  0093                     	;# 
   121  0094                     	;# 
   122  0095                     	;# 
   123  0096                     	;# 
   124  0097                     	;# 
   125  0098                     	;# 
   126  0099                     	;# 
   127  009A                     	;# 
   128  009B                     	;# 
   129  009C                     	;# 
   130  009D                     	;# 
   131  009E                     	;# 
   132  009F                     	;# 
   133  0105                     	;# 
   134  0107                     	;# 
   135  0108                     	;# 
   136  0109                     	;# 
   137  010C                     	;# 
   138  010C                     	;# 
   139  010D                     	;# 
   140  010E                     	;# 
   141  010F                     	;# 
   142  0185                     	;# 
   143  0187                     	;# 
   144  0188                     	;# 
   145  0189                     	;# 
   146  018C                     	;# 
   147  018D                     	;# 
   148  0000                     	;# 
   149  0001                     	;# 
   150  0002                     	;# 
   151  0003                     	;# 
   152  0004                     	;# 
   153  0005                     	;# 
   154  0006                     	;# 
   155  0007                     	;# 
   156  0008                     	;# 
   157  0009                     	;# 
   158  000A                     	;# 
   159  000B                     	;# 
   160  000C                     	;# 
   161  000D                     	;# 
   162  000E                     	;# 
   163  000E                     	;# 
   164  000F                     	;# 
   165  0010                     	;# 
   166  0011                     	;# 
   167  0012                     	;# 
   168  0013                     	;# 
   169  0014                     	;# 
   170  0015                     	;# 
   171  0015                     	;# 
   172  0016                     	;# 
   173  0017                     	;# 
   174  0018                     	;# 
   175  0019                     	;# 
   176  001A                     	;# 
   177  001B                     	;# 
   178  001B                     	;# 
   179  001C                     	;# 
   180  001D                     	;# 
   181  001E                     	;# 
   182  001F                     	;# 
   183  0081                     	;# 
   184  0085                     	;# 
   185  0086                     	;# 
   186  0087                     	;# 
   187  0088                     	;# 
   188  0089                     	;# 
   189  008C                     	;# 
   190  008D                     	;# 
   191  008E                     	;# 
   192  008F                     	;# 
   193  0090                     	;# 
   194  0091                     	;# 
   195  0092                     	;# 
   196  0093                     	;# 
   197  0093                     	;# 
   198  0093                     	;# 
   199  0094                     	;# 
   200  0095                     	;# 
   201  0096                     	;# 
   202  0097                     	;# 
   203  0098                     	;# 
   204  0099                     	;# 
   205  009A                     	;# 
   206  009B                     	;# 
   207  009C                     	;# 
   208  009D                     	;# 
   209  009E                     	;# 
   210  009F                     	;# 
   211  0105                     	;# 
   212  0107                     	;# 
   213  0108                     	;# 
   214  0109                     	;# 
   215  010C                     	;# 
   216  010C                     	;# 
   217  010D                     	;# 
   218  010E                     	;# 
   219  010F                     	;# 
   220  0185                     	;# 
   221  0187                     	;# 
   222  0188                     	;# 
   223  0189                     	;# 
   224  018C                     	;# 
   225  018D                     	;# 
   226  0000                     	;# 
   227  0001                     	;# 
   228  0002                     	;# 
   229  0003                     	;# 
   230  0004                     	;# 
   231  0005                     	;# 
   232  0006                     	;# 
   233  0007                     	;# 
   234  0008                     	;# 
   235  0009                     	;# 
   236  000A                     	;# 
   237  000B                     	;# 
   238  000C                     	;# 
   239  000D                     	;# 
   240  000E                     	;# 
   241  000E                     	;# 
   242  000F                     	;# 
   243  0010                     	;# 
   244  0011                     	;# 
   245  0012                     	;# 
   246  0013                     	;# 
   247  0014                     	;# 
   248  0015                     	;# 
   249  0015                     	;# 
   250  0016                     	;# 
   251  0017                     	;# 
   252  0018                     	;# 
   253  0019                     	;# 
   254  001A                     	;# 
   255  001B                     	;# 
   256  001B                     	;# 
   257  001C                     	;# 
   258  001D                     	;# 
   259  001E                     	;# 
   260  001F                     	;# 
   261  0081                     	;# 
   262  0085                     	;# 
   263  0086                     	;# 
   264  0087                     	;# 
   265  0088                     	;# 
   266  0089                     	;# 
   267  008C                     	;# 
   268  008D                     	;# 
   269  008E                     	;# 
   270  008F                     	;# 
   271  0090                     	;# 
   272  0091                     	;# 
   273  0092                     	;# 
   274  0093                     	;# 
   275  0093                     	;# 
   276  0093                     	;# 
   277  0094                     	;# 
   278  0095                     	;# 
   279  0096                     	;# 
   280  0097                     	;# 
   281  0098                     	;# 
   282  0099                     	;# 
   283  009A                     	;# 
   284  009B                     	;# 
   285  009C                     	;# 
   286  009D                     	;# 
   287  009E                     	;# 
   288  009F                     	;# 
   289  0105                     	;# 
   290  0107                     	;# 
   291  0108                     	;# 
   292  0109                     	;# 
   293  010C                     	;# 
   294  010C                     	;# 
   295  010D                     	;# 
   296  010E                     	;# 
   297  010F                     	;# 
   298  0185                     	;# 
   299  0187                     	;# 
   300  0188                     	;# 
   301  0189                     	;# 
   302  018C                     	;# 
   303  018D                     	;# 
   304  0000                     	;# 
   305  0001                     	;# 
   306  0002                     	;# 
   307  0003                     	;# 
   308  0004                     	;# 
   309  0005                     	;# 
   310  0006                     	;# 
   311  0007                     	;# 
   312  0008                     	;# 
   313  0009                     	;# 
   314  000A                     	;# 
   315  000B                     	;# 
   316  000C                     	;# 
   317  000D                     	;# 
   318  000E                     	;# 
   319  000E                     	;# 
   320  000F                     	;# 
   321  0010                     	;# 
   322  0011                     	;# 
   323  0012                     	;# 
   324  0013                     	;# 
   325  0014                     	;# 
   326  0015                     	;# 
   327  0015                     	;# 
   328  0016                     	;# 
   329  0017                     	;# 
   330  0018                     	;# 
   331  0019                     	;# 
   332  001A                     	;# 
   333  001B                     	;# 
   334  001B                     	;# 
   335  001C                     	;# 
   336  001D                     	;# 
   337  001E                     	;# 
   338  001F                     	;# 
   339  0081                     	;# 
   340  0085                     	;# 
   341  0086                     	;# 
   342  0087                     	;# 
   343  0088                     	;# 
   344  0089                     	;# 
   345  008C                     	;# 
   346  008D                     	;# 
   347  008E                     	;# 
   348  008F                     	;# 
   349  0090                     	;# 
   350  0091                     	;# 
   351  0092                     	;# 
   352  0093                     	;# 
   353  0093                     	;# 
   354  0093                     	;# 
   355  0094                     	;# 
   356  0095                     	;# 
   357  0096                     	;# 
   358  0097                     	;# 
   359  0098                     	;# 
   360  0099                     	;# 
   361  009A                     	;# 
   362  009B                     	;# 
   363  009C                     	;# 
   364  009D                     	;# 
   365  009E                     	;# 
   366  009F                     	;# 
   367  0105                     	;# 
   368  0107                     	;# 
   369  0108                     	;# 
   370  0109                     	;# 
   371  010C                     	;# 
   372  010C                     	;# 
   373  010D                     	;# 
   374  010E                     	;# 
   375  010F                     	;# 
   376  0185                     	;# 
   377  0187                     	;# 
   378  0188                     	;# 
   379  0189                     	;# 
   380  018C                     	;# 
   381  018D                     	;# 
   382  0000                     	;# 
   383  0001                     	;# 
   384  0002                     	;# 
   385  0003                     	;# 
   386  0004                     	;# 
   387  0005                     	;# 
   388  0006                     	;# 
   389  0007                     	;# 
   390  0008                     	;# 
   391  0009                     	;# 
   392  000A                     	;# 
   393  000B                     	;# 
   394  000C                     	;# 
   395  000D                     	;# 
   396  000E                     	;# 
   397  000E                     	;# 
   398  000F                     	;# 
   399  0010                     	;# 
   400  0011                     	;# 
   401  0012                     	;# 
   402  0013                     	;# 
   403  0014                     	;# 
   404  0015                     	;# 
   405  0015                     	;# 
   406  0016                     	;# 
   407  0017                     	;# 
   408  0018                     	;# 
   409  0019                     	;# 
   410  001A                     	;# 
   411  001B                     	;# 
   412  001B                     	;# 
   413  001C                     	;# 
   414  001D                     	;# 
   415  001E                     	;# 
   416  001F                     	;# 
   417  0081                     	;# 
   418  0085                     	;# 
   419  0086                     	;# 
   420  0087                     	;# 
   421  0088                     	;# 
   422  0089                     	;# 
   423  008C                     	;# 
   424  008D                     	;# 
   425  008E                     	;# 
   426  008F                     	;# 
   427  0090                     	;# 
   428  0091                     	;# 
   429  0092                     	;# 
   430  0093                     	;# 
   431  0093                     	;# 
   432  0093                     	;# 
   433  0094                     	;# 
   434  0095                     	;# 
   435  0096                     	;# 
   436  0097                     	;# 
   437  0098                     	;# 
   438  0099                     	;# 
   439  009A                     	;# 
   440  009B                     	;# 
   441  009C                     	;# 
   442  009D                     	;# 
   443  009E                     	;# 
   444  009F                     	;# 
   445  0105                     	;# 
   446  0107                     	;# 
   447  0108                     	;# 
   448  0109                     	;# 
   449  010C                     	;# 
   450  010C                     	;# 
   451  010D                     	;# 
   452  010E                     	;# 
   453  010F                     	;# 
   454  0185                     	;# 
   455  0187                     	;# 
   456  0188                     	;# 
   457  0189                     	;# 
   458  018C                     	;# 
   459  018D                     	;# 
   460  0013                     _SSPBUF	set	19
   461  0014                     _SSPCON	set	20
   462  001F                     _ADCON0bits	set	31
   463  001A                     _RCREG	set	26
   464  000C                     _PIR1bits	set	12
   465  0019                     _TXREG	set	25
   466  0018                     _RCSTAbits	set	24
   467  0008                     _PORTD	set	8
   468  0006                     _PORTB	set	6
   469  0007                     _PORTCbits	set	7
   470  0064                     _TXIF	set	100
   471  0094                     _SSPSTATbits	set	148
   472  0094                     _SSPSTAT	set	148
   473  008F                     _OSCCONbits	set	143
   474  009F                     _ADCON1bits	set	159
   475  008C                     _PIE1bits	set	140
   476  0087                     _TRISCbits	set	135
   477  0098                     _TXSTAbits	set	152
   478  0099                     _SPBRG	set	153
   479  0088                     _TRISD	set	136
   480  0086                     _TRISB	set	134
   481  043B                     _TRISC3	set	1083
   482  043D                     _TRISC5	set	1085
   483  0189                     _ANSELHbits	set	393
   484  0188                     _ANSELbits	set	392
   485  0189                     _ANSELH	set	393
   486  0188                     _ANSEL	set	392
   487                           
   488                           	psect	strings
   489  1000                     __pstrings:
   490  1000                     stringtab:
   491  1000                     __stringtab:
   492  1000                     stringcode:	
   493                           ;	String table - string pointers are 1 byte each
   494                           
   495  1000                     stringdir:
   496  1000  3010               	movlw	high stringdir
   497  1001  008A               	movwf	10
   498  1002  0804               	movf	4,w
   499  1003  0A84               	incf	4,f
   500  1004  0782               	addwf	2,f
   501  1005                     __stringbase:
   502  1005  3400               	retlw	0
   503  1006                     __end_of__stringtab:
   504  1006                     STR_2:
   505  1006  3453               	retlw	83	;'S'
   506  1007  3431               	retlw	49	;'1'
   507  1008  3400               	retlw	0
   508  1009                     STR_9:
   509  1009  3453               	retlw	83	;'S'
   510  100A  3432               	retlw	50	;'2'
   511  100B  3400               	retlw	0
   512  100C                     STR_4:
   513  100C  3420               	retlw	32	;' '
   514  100D  3400               	retlw	0
   515  100E                     STR_6:
   516  100E  342C               	retlw	44	;','
   517  100F  3400               	retlw	0
   518  1010                     STR_3:
   519  1010  343A               	retlw	58	;':'
   520  1011  3400               	retlw	0
   521  1012                     STR_5:
   522  1012  3456               	retlw	86	;'V'
   523  1013  3400               	retlw	0
   524  1014                     STR_1:
   525  1014  347C               	retlw	124	;'|'
   526  1015  3400               	retlw	0
   527  100C                     
   528                           	psect	cinit
   529  07EC                     start_initialization:	
   530                           ; #config settings
   531                           
   532  07EC                     __initialization:
   533                           
   534                           ; Clear objects allocated to BANK0
   535  07EC  1283               	bcf	3,5	;RP0=0, select bank0
   536  07ED  1303               	bcf	3,6	;RP1=0, select bank0
   537  07EE  01EE               	clrf	__pbssBANK0& (0+127)
   538  07EF  01EF               	clrf	(__pbssBANK0+1)& (0+127)
   539                           
   540                           ; Clear objects allocated to BANK1
   541  07F0  1683               	bsf	3,5	;RP0=1, select bank1
   542  07F1  1303               	bcf	3,6	;RP1=0, select bank1
   543  07F2  01B5               	clrf	__pbssBANK1& (0+127)
   544  07F3  01B6               	clrf	(__pbssBANK1+1)& (0+127)
   545  07F4  01B7               	clrf	(__pbssBANK1+2)& (0+127)
   546  07F5  01B8               	clrf	(__pbssBANK1+3)& (0+127)
   547  07F6  01B9               	clrf	(__pbssBANK1+4)& (0+127)
   548  07F7  01BA               	clrf	(__pbssBANK1+5)& (0+127)
   549  07F8  01BB               	clrf	(__pbssBANK1+6)& (0+127)
   550  07F9  01BC               	clrf	(__pbssBANK1+7)& (0+127)
   551  07FA  01BD               	clrf	(__pbssBANK1+8)& (0+127)
   552  07FB  01BE               	clrf	(__pbssBANK1+9)& (0+127)
   553  07FC                     end_of_initialization:	
   554                           ;End of C runtime variable initialization code
   555                           
   556  07FC                     __end_of__initialization:
   557  07FC  0183               	clrf	3
   558  07FD  120A  158A  2B0D   	ljmp	_main	;jump to C main() function
   559                           
   560                           	psect	bssBANK0
   561  006E                     __pbssBANK0:
   562  006E                     _adc1:
   563  006E                     	ds	1
   564  006F                     _adc0:
   565  006F                     	ds	1
   566                           
   567                           	psect	bssBANK1
   568  00B5                     __pbssBANK1:
   569  00B5                     _conv1:
   570  00B5                     	ds	4
   571  00B9                     _conv0:
   572  00B9                     	ds	4
   573  00BD                     _sensor2:
   574  00BD                     	ds	1
   575  00BE                     _sensor1:
   576  00BE                     	ds	1
   577                           
   578                           	psect	cstackBANK1
   579  00A0                     __pcstackBANK1:
   580  00A0                     ??_convert:
   581                           
   582                           ; 1 bytes @ 0x0
   583  00A0                     	ds	3
   584  00A3                     convert@temp:
   585                           
   586                           ; 2 bytes @ 0x3
   587  00A3                     	ds	2
   588  00A5                     convert@j:
   589                           
   590                           ; 2 bytes @ 0x5
   591  00A5                     	ds	2
   592  00A7                     convert@x:
   593                           
   594                           ; 4 bytes @ 0x7
   595  00A7                     	ds	4
   596  00AB                     convert@i:
   597                           
   598                           ; 2 bytes @ 0xB
   599  00AB                     	ds	2
   600  00AD                     convert@digits:
   601                           
   602                           ; 2 bytes @ 0xD
   603  00AD                     	ds	2
   604  00AF                     convert@mu:
   605                           
   606                           ; 2 bytes @ 0xF
   607  00AF                     	ds	2
   608  00B1                     ??_main:
   609                           
   610                           ; 1 bytes @ 0x11
   611  00B1                     	ds	4
   612                           
   613                           	psect	cstackCOMMON
   614  0070                     __pcstackCOMMON:
   615  0070                     ?___flge:
   616  0070                     ?_config:	
   617                           ; 1 bit 
   618                           
   619  0070                     ?_spiWrite:	
   620                           ; 1 bytes @ 0x0
   621                           
   622  0070                     ??_spiWrite:	
   623                           ; 1 bytes @ 0x0
   624                           
   625  0070                     ?_spiRead:	
   626                           ; 1 bytes @ 0x0
   627                           
   628  0070                     ??_spiRead:	
   629                           ; 1 bytes @ 0x0
   630                           
   631  0070                     ?_spiInit:	
   632                           ; 1 bytes @ 0x0
   633                           
   634  0070                     ?_config_osc:	
   635                           ; 1 bytes @ 0x0
   636                           
   637  0070                     ??_config_osc:	
   638                           ; 1 bytes @ 0x0
   639                           
   640  0070                     ?_main:	
   641                           ; 1 bytes @ 0x0
   642                           
   643  0070                     ?_UARTSendChar:	
   644                           ; 1 bytes @ 0x0
   645                           
   646  0070                     ??_UARTSendChar:	
   647                           ; 1 bytes @ 0x0
   648                           
   649  0070                     ?_spiReceiveWait:	
   650                           ; 1 bytes @ 0x0
   651                           
   652  0070                     ??_spiReceiveWait:	
   653                           ; 1 bytes @ 0x0
   654                           
   655  0070                     ?__Umul8_16:	
   656                           ; 1 bytes @ 0x0
   657                           
   658  0070                     ?___awdiv:	
   659                           ; 2 bytes @ 0x0
   660                           
   661  0070                     ?___lldiv:	
   662                           ; 2 bytes @ 0x0
   663                           
   664  0070                     ?___fltol:	
   665                           ; 4 bytes @ 0x0
   666                           
   667  0070                     ?___fladd:	
   668                           ; 4 bytes @ 0x0
   669                           
   670  0070                     UARTSendChar@c:	
   671                           ; 4 bytes @ 0x0
   672                           
   673  0070                     spiInit@sDataSample:	
   674                           ; 1 bytes @ 0x0
   675                           
   676  0070                     spiWrite@dat:	
   677                           ; 1 bytes @ 0x0
   678                           
   679  0070                     __Umul8_16@multiplicand:	
   680                           ; 1 bytes @ 0x0
   681                           
   682  0070                     ___awdiv@divisor:	
   683                           ; 1 bytes @ 0x0
   684                           
   685  0070                     ___lldiv@divisor:	
   686                           ; 2 bytes @ 0x0
   687                           
   688  0070                     ___flge@ff1:	
   689                           ; 4 bytes @ 0x0
   690                           
   691  0070                     ___fltol@f1:	
   692                           ; 4 bytes @ 0x0
   693                           
   694  0070                     ___fladd@b:	
   695                           ; 4 bytes @ 0x0
   696                           
   697                           
   698                           ; 4 bytes @ 0x0
   699  0070                     	ds	1
   700  0071                     ?_UARTSendString:
   701  0071                     UARTSendString@max_length:	
   702                           ; 1 bytes @ 0x1
   703                           
   704  0071                     spiInit@sClockIdle:	
   705                           ; 1 bytes @ 0x1
   706                           
   707                           
   708                           ; 1 bytes @ 0x1
   709  0071                     	ds	1
   710  0072                     ??_UARTSendString:
   711  0072                     ??__Umul8_16:	
   712                           ; 1 bytes @ 0x2
   713                           
   714  0072                     config_osc@frec:	
   715                           ; 1 bytes @ 0x2
   716                           
   717  0072                     spiInit@sTransmitEdge:	
   718                           ; 1 bytes @ 0x2
   719                           
   720  0072                     ___awdiv@dividend:	
   721                           ; 1 bytes @ 0x2
   722                           
   723                           
   724                           ; 2 bytes @ 0x2
   725  0072                     	ds	1
   726  0073                     ??_spiInit:
   727  0073                     spiInit@sType:	
   728                           ; 1 bytes @ 0x3
   729                           
   730  0073                     UARTSendString@i:	
   731                           ; 1 bytes @ 0x3
   732                           
   733                           
   734                           ; 2 bytes @ 0x3
   735  0073                     	ds	1
   736  0074                     ??_config:
   737  0074                     ??___awdiv:	
   738                           ; 1 bytes @ 0x4
   739                           
   740  0074                     ??___fltol:	
   741                           ; 1 bytes @ 0x4
   742                           
   743  0074                     __Umul8_16@product:	
   744                           ; 1 bytes @ 0x4
   745                           
   746  0074                     ___lldiv@dividend:	
   747                           ; 2 bytes @ 0x4
   748                           
   749  0074                     ___flge@ff2:	
   750                           ; 4 bytes @ 0x4
   751                           
   752  0074                     ___fladd@a:	
   753                           ; 4 bytes @ 0x4
   754                           
   755                           
   756                           ; 4 bytes @ 0x4
   757  0074                     	ds	1
   758  0075                     UARTSendString@str:
   759  0075                     ___awdiv@counter:	
   760                           ; 1 bytes @ 0x5
   761                           
   762                           
   763                           ; 1 bytes @ 0x5
   764  0075                     	ds	1
   765  0076                     ___awdiv@sign:
   766  0076                     __Umul8_16@word_mpld:	
   767                           ; 1 bytes @ 0x6
   768                           
   769                           
   770                           ; 2 bytes @ 0x6
   771  0076                     	ds	1
   772  0077                     ___awdiv@quotient:
   773                           
   774                           ; 2 bytes @ 0x7
   775  0077                     	ds	1
   776  0078                     ??___lldiv:
   777  0078                     ??___flge:	
   778                           ; 1 bytes @ 0x8
   779                           
   780  0078                     ___fladd@signs:	
   781                           ; 1 bytes @ 0x8
   782                           
   783  0078                     __Umul8_16@multiplier:	
   784                           ; 1 bytes @ 0x8
   785                           
   786                           
   787                           ; 1 bytes @ 0x8
   788  0078                     	ds	1
   789  0079                     ___fltol@sign1:
   790  0079                     ___fladd@aexp:	
   791                           ; 1 bytes @ 0x9
   792                           
   793  0079                     ___lldiv@quotient:	
   794                           ; 1 bytes @ 0x9
   795                           
   796                           
   797                           ; 4 bytes @ 0x9
   798  0079                     	ds	1
   799  007A                     ___fltol@exp1:
   800  007A                     ___fladd@bexp:	
   801                           ; 1 bytes @ 0xA
   802                           
   803                           
   804                           ; 1 bytes @ 0xA
   805  007A                     	ds	1
   806  007B                     ??___wmul:
   807  007B                     ___fladd@grs:	
   808                           ; 1 bytes @ 0xB
   809                           
   810  007B                     ___wmul@product:	
   811                           ; 1 bytes @ 0xB
   812                           
   813                           
   814                           ; 2 bytes @ 0xB
   815  007B                     	ds	2
   816  007D                     ??___flsub:
   817  007D                     ___lldiv@counter:	
   818                           ; 1 bytes @ 0xD
   819                           
   820                           
   821                           ; 1 bytes @ 0xD
   822  007D                     	ds	1
   823                           
   824                           	psect	cstackBANK0
   825  0020                     __pcstackBANK0:
   826  0020                     ?_UARTInit:
   827  0020                     ??___fladd:	
   828                           ; 1 bytes @ 0x0
   829                           
   830  0020                     ?___wmul:	
   831                           ; 1 bytes @ 0x0
   832                           
   833  0020                     ___wmul@multiplier:	
   834                           ; 2 bytes @ 0x0
   835                           
   836  0020                     UARTInit@baud_rate:	
   837                           ; 2 bytes @ 0x0
   838                           
   839                           
   840                           ; 4 bytes @ 0x0
   841  0020                     	ds	2
   842  0022                     ___wmul@multiplicand:
   843                           
   844                           ; 2 bytes @ 0x2
   845  0022                     	ds	2
   846  0024                     ?___xxtofl:
   847  0024                     UARTInit@BRGH:	
   848                           ; 4 bytes @ 0x4
   849                           
   850  0024                     ___xxtofl@val:	
   851                           ; 1 bytes @ 0x4
   852                           
   853                           
   854                           ; 4 bytes @ 0x4
   855  0024                     	ds	1
   856  0025                     ??_UARTInit:
   857                           
   858                           ; 1 bytes @ 0x5
   859  0025                     	ds	3
   860  0028                     ??___xxtofl:
   861                           
   862                           ; 1 bytes @ 0x8
   863  0028                     	ds	4
   864  002C                     ___xxtofl@sign:
   865                           
   866                           ; 1 bytes @ 0xC
   867  002C                     	ds	1
   868  002D                     ___xxtofl@exp:
   869                           
   870                           ; 1 bytes @ 0xD
   871  002D                     	ds	1
   872  002E                     ___xxtofl@arg:
   873                           
   874                           ; 4 bytes @ 0xE
   875  002E                     	ds	4
   876  0032                     ?___flsub:
   877  0032                     ?___fldiv:	
   878                           ; 4 bytes @ 0x12
   879                           
   880  0032                     ___flsub@a:	
   881                           ; 4 bytes @ 0x12
   882                           
   883  0032                     ___fldiv@a:	
   884                           ; 4 bytes @ 0x12
   885                           
   886                           
   887                           ; 4 bytes @ 0x12
   888  0032                     	ds	4
   889  0036                     ___flsub@b:
   890  0036                     ___fldiv@b:	
   891                           ; 4 bytes @ 0x16
   892                           
   893                           
   894                           ; 4 bytes @ 0x16
   895  0036                     	ds	4
   896  003A                     ??___fldiv:
   897                           
   898                           ; 1 bytes @ 0x1A
   899  003A                     	ds	5
   900  003F                     ___fldiv@rem:
   901                           
   902                           ; 4 bytes @ 0x1F
   903  003F                     	ds	4
   904  0043                     ___fldiv@sign:
   905                           
   906                           ; 1 bytes @ 0x23
   907  0043                     	ds	1
   908  0044                     ___fldiv@new_exp:
   909                           
   910                           ; 2 bytes @ 0x24
   911  0044                     	ds	2
   912  0046                     ___fldiv@grs:
   913                           
   914                           ; 4 bytes @ 0x26
   915  0046                     	ds	4
   916  004A                     ___fldiv@bexp:
   917                           
   918                           ; 1 bytes @ 0x2A
   919  004A                     	ds	1
   920  004B                     ___fldiv@aexp:
   921                           
   922                           ; 1 bytes @ 0x2B
   923  004B                     	ds	1
   924  004C                     ?___flmul:
   925  004C                     ___flmul@b:	
   926                           ; 4 bytes @ 0x2C
   927                           
   928                           
   929                           ; 4 bytes @ 0x2C
   930  004C                     	ds	4
   931  0050                     ___flmul@a:
   932                           
   933                           ; 4 bytes @ 0x30
   934  0050                     	ds	4
   935  0054                     ??___flmul:
   936                           
   937                           ; 1 bytes @ 0x34
   938  0054                     	ds	5
   939  0059                     ___flmul@sign:
   940                           
   941                           ; 1 bytes @ 0x39
   942  0059                     	ds	1
   943  005A                     ___flmul@grs:
   944                           
   945                           ; 4 bytes @ 0x3A
   946  005A                     	ds	4
   947  005E                     ___flmul@aexp:
   948                           
   949                           ; 1 bytes @ 0x3E
   950  005E                     	ds	1
   951  005F                     ___flmul@bexp:
   952                           
   953                           ; 1 bytes @ 0x3F
   954  005F                     	ds	1
   955  0060                     ___flmul@prod:
   956                           
   957                           ; 4 bytes @ 0x40
   958  0060                     	ds	4
   959  0064                     ___flmul@temp:
   960                           
   961                           ; 2 bytes @ 0x44
   962  0064                     	ds	2
   963  0066                     ?_convert:
   964  0066                     convert@data:	
   965                           ; 1 bytes @ 0x46
   966                           
   967                           
   968                           ; 2 bytes @ 0x46
   969  0066                     	ds	2
   970  0068                     convert@a:
   971                           
   972                           ; 4 bytes @ 0x48
   973  0068                     	ds	4
   974  006C                     convert@place:
   975                           
   976                           ; 2 bytes @ 0x4C
   977  006C                     	ds	2
   978                           
   979                           	psect	maintext
   980  0B0D                     __pmaintext:	
   981 ;;
   982 ;;Main: autosize = 0, tempsize = 4, incstack = 0, save=0
   983 ;;
   984 ;; *************** function _main *****************
   985 ;; Defined at:
   986 ;;		line 55 in file "Maestro.c"
   987 ;; Parameters:    Size  Location     Type
   988 ;;		None
   989 ;; Auto vars:     Size  Location     Type
   990 ;;		None
   991 ;; Return value:  Size  Location     Type
   992 ;;                  1    wreg      void 
   993 ;; Registers used:
   994 ;;		wreg, fsr0l, fsr0h, status,2, status,0, btemp+1, pclath, cstack
   995 ;; Tracked objects:
   996 ;;		On entry : B00/0
   997 ;;		On exit  : 0/0
   998 ;;		Unchanged: 0/0
   999 ;; Data sizes:     COMMON   BANK0   BANK1   BANK3   BANK2
  1000 ;;      Params:         0       0       0       0       0
  1001 ;;      Locals:         0       0       0       0       0
  1002 ;;      Temps:          0       0       4       0       0
  1003 ;;      Totals:         0       0       4       0       0
  1004 ;;Total ram usage:        4 bytes
  1005 ;; Hardware stack levels required when called: 3
  1006 ;; This function calls:
  1007 ;;		_UARTInit
  1008 ;;		_UARTSendString
  1009 ;;		___fldiv
  1010 ;;		___flmul
  1011 ;;		___xxtofl
  1012 ;;		_config
  1013 ;;		_convert
  1014 ;;		_spiRead
  1015 ;;		_spiWrite
  1016 ;; This function is called by:
  1017 ;;		Startup code after reset
  1018 ;; This function uses a non-reentrant model
  1019 ;;
  1020                           
  1021                           
  1022                           ;psect for function _main
  1023  0B0D                     _main:
  1024  0B0D                     l2765:	
  1025                           ;incstack = 0
  1026                           ; Regs used in _main: [wreg-fsr0h+status,2+status,0+btemp+1+pclath+cstack]
  1027                           
  1028                           
  1029                           ;Maestro.c: 57:     config();
  1030  0B0D  160A  118A  2583  120A  158A  	fcall	_config
  1031  0B12                     l2767:
  1032                           
  1033                           ;Maestro.c: 59:         PORTCbits.RC2 = 0;
  1034  0B12  1283               	bcf	3,5	;RP0=0, select bank0
  1035  0B13  1303               	bcf	3,6	;RP1=0, select bank0
  1036  0B14  1107               	bcf	7,2	;volatile
  1037  0B15                     l2769:
  1038                           
  1039                           ;Maestro.c: 60:        _delay((unsigned long)((1)*(8000000/4000.0)));
  1040  0B15  3003               	movlw	3
  1041  0B16  1683               	bsf	3,5	;RP0=1, select bank1
  1042  0B17  1303               	bcf	3,6	;RP1=0, select bank1
  1043  0B18  00B2               	movwf	(??_main^(0+128)+1)
  1044  0B19  3097               	movlw	151
  1045  0B1A  00B1               	movwf	??_main^(0+128)
  1046  0B1B                     u3747:
  1047  0B1B  0BB1               	decfsz	??_main^(0+128),f
  1048  0B1C  2B1B               	goto	u3747
  1049  0B1D  0BB2               	decfsz	(??_main^(0+128)+1),f
  1050  0B1E  2B1B               	goto	u3747
  1051  0B1F                     l2771:
  1052                           
  1053                           ;Maestro.c: 62:        spiWrite(1);
  1054  0B1F  3001               	movlw	1
  1055  0B20  160A  118A  2557  120A  158A  	fcall	_spiWrite
  1056  0B25                     l2773:
  1057                           
  1058                           ;Maestro.c: 63:        PORTB = spiRead();
  1059  0B25  160A  118A  2564  120A  158A  	fcall	_spiRead
  1060  0B2A  1283               	bcf	3,5	;RP0=0, select bank0
  1061  0B2B  1303               	bcf	3,6	;RP1=0, select bank0
  1062  0B2C  0086               	movwf	6	;volatile
  1063  0B2D                     l2775:
  1064                           
  1065                           ;Maestro.c: 66:        _delay((unsigned long)((1)*(8000000/4000.0)));
  1066  0B2D  3003               	movlw	3
  1067  0B2E  1683               	bsf	3,5	;RP0=1, select bank1
  1068  0B2F  1303               	bcf	3,6	;RP1=0, select bank1
  1069  0B30  00B2               	movwf	(??_main^(0+128)+1)
  1070  0B31  3097               	movlw	151
  1071  0B32  00B1               	movwf	??_main^(0+128)
  1072  0B33                     u3757:
  1073  0B33  0BB1               	decfsz	??_main^(0+128),f
  1074  0B34  2B33               	goto	u3757
  1075  0B35  0BB2               	decfsz	(??_main^(0+128)+1),f
  1076  0B36  2B33               	goto	u3757
  1077  0B37                     l2777:
  1078                           
  1079                           ;Maestro.c: 67:        PORTCbits.RC2 = 1;
  1080  0B37  1283               	bcf	3,5	;RP0=0, select bank0
  1081  0B38  1303               	bcf	3,6	;RP1=0, select bank0
  1082  0B39  1507               	bsf	7,2	;volatile
  1083  0B3A                     l2779:
  1084                           
  1085                           ;Maestro.c: 69:        PORTCbits.RC2 = 0;
  1086  0B3A  1107               	bcf	7,2	;volatile
  1087  0B3B                     l2781:
  1088                           
  1089                           ;Maestro.c: 70:        _delay((unsigned long)((1)*(8000000/4000.0)));
  1090  0B3B  3003               	movlw	3
  1091  0B3C  1683               	bsf	3,5	;RP0=1, select bank1
  1092  0B3D  1303               	bcf	3,6	;RP1=0, select bank1
  1093  0B3E  00B2               	movwf	(??_main^(0+128)+1)
  1094  0B3F  3097               	movlw	151
  1095  0B40  00B1               	movwf	??_main^(0+128)
  1096  0B41                     u3767:
  1097  0B41  0BB1               	decfsz	??_main^(0+128),f
  1098  0B42  2B41               	goto	u3767
  1099  0B43  0BB2               	decfsz	(??_main^(0+128)+1),f
  1100  0B44  2B41               	goto	u3767
  1101  0B45                     l2783:
  1102                           
  1103                           ;Maestro.c: 72:        spiWrite(2);
  1104  0B45  3002               	movlw	2
  1105  0B46  160A  118A  2557  120A  158A  	fcall	_spiWrite
  1106  0B4B                     l2785:
  1107                           
  1108                           ;Maestro.c: 73:        PORTD = spiRead();
  1109  0B4B  160A  118A  2564  120A  158A  	fcall	_spiRead
  1110  0B50  1283               	bcf	3,5	;RP0=0, select bank0
  1111  0B51  1303               	bcf	3,6	;RP1=0, select bank0
  1112  0B52  0088               	movwf	8	;volatile
  1113  0B53                     l2787:
  1114                           
  1115                           ;Maestro.c: 75:        _delay((unsigned long)((1)*(8000000/4000.0)));
  1116  0B53  3003               	movlw	3
  1117  0B54  1683               	bsf	3,5	;RP0=1, select bank1
  1118  0B55  1303               	bcf	3,6	;RP1=0, select bank1
  1119  0B56  00B2               	movwf	(??_main^(0+128)+1)
  1120  0B57  3097               	movlw	151
  1121  0B58  00B1               	movwf	??_main^(0+128)
  1122  0B59                     u3777:
  1123  0B59  0BB1               	decfsz	??_main^(0+128),f
  1124  0B5A  2B59               	goto	u3777
  1125  0B5B  0BB2               	decfsz	(??_main^(0+128)+1),f
  1126  0B5C  2B59               	goto	u3777
  1127  0B5D                     l2789:
  1128                           
  1129                           ;Maestro.c: 76:        PORTCbits.RC2 = 1;
  1130  0B5D  1283               	bcf	3,5	;RP0=0, select bank0
  1131  0B5E  1303               	bcf	3,6	;RP1=0, select bank0
  1132  0B5F  1507               	bsf	7,2	;volatile
  1133  0B60                     l2791:
  1134                           
  1135                           ;Maestro.c: 77:        UARTInit(9600,1);
  1136  0B60  3000               	movlw	0
  1137  0B61  00A3               	movwf	UARTInit@baud_rate+3
  1138  0B62  3000               	movlw	0
  1139  0B63  00A2               	movwf	UARTInit@baud_rate+2
  1140  0B64  3025               	movlw	37
  1141  0B65  00A1               	movwf	UARTInit@baud_rate+1
  1142  0B66  3080               	movlw	128
  1143  0B67  00A0               	movwf	UARTInit@baud_rate
  1144  0B68  01A4               	clrf	UARTInit@BRGH
  1145  0B69  0AA4               	incf	UARTInit@BRGH,f
  1146  0B6A  120A  158A  2005  120A  158A  	fcall	_UARTInit
  1147  0B6F                     l2793:
  1148                           
  1149                           ;Maestro.c: 78:        conv0 = (PORTB / (float) 255)*5;
  1150  0B6F  3040               	movlw	64
  1151  0B70  1283               	bcf	3,5	;RP0=0, select bank0
  1152  0B71  1303               	bcf	3,6	;RP1=0, select bank0
  1153  0B72  00CF               	movwf	___flmul@b+3
  1154  0B73  30A0               	movlw	160
  1155  0B74  00CE               	movwf	___flmul@b+2
  1156  0B75  3000               	movlw	0
  1157  0B76  00CD               	movwf	___flmul@b+1
  1158  0B77  3000               	movlw	0
  1159  0B78  00CC               	movwf	___flmul@b
  1160  0B79  3043               	movlw	67
  1161  0B7A  00B5               	movwf	___fldiv@a+3
  1162  0B7B  307F               	movlw	127
  1163  0B7C  00B4               	movwf	___fldiv@a+2
  1164  0B7D  3000               	movlw	0
  1165  0B7E  00B3               	movwf	___fldiv@a+1
  1166  0B7F  3000               	movlw	0
  1167  0B80  00B2               	movwf	___fldiv@a
  1168  0B81  0806               	movf	6,w	;volatile
  1169  0B82  1683               	bsf	3,5	;RP0=1, select bank1
  1170  0B83  1303               	bcf	3,6	;RP1=0, select bank1
  1171  0B84  00B1               	movwf	??_main^(0+128)
  1172  0B85  01B2               	clrf	(??_main^(0+128)+1)
  1173  0B86  01B3               	clrf	(??_main^(0+128)+2)
  1174  0B87  01B4               	clrf	(??_main^(0+128)+3)
  1175  0B88  0834               	movf	(??_main+3)^(0+128),w
  1176  0B89  1283               	bcf	3,5	;RP0=0, select bank0
  1177  0B8A  1303               	bcf	3,6	;RP1=0, select bank0
  1178  0B8B  00A7               	movwf	___xxtofl@val+3
  1179  0B8C  1683               	bsf	3,5	;RP0=1, select bank1
  1180  0B8D  1303               	bcf	3,6	;RP1=0, select bank1
  1181  0B8E  0833               	movf	(??_main+2)^(0+128),w
  1182  0B8F  1283               	bcf	3,5	;RP0=0, select bank0
  1183  0B90  1303               	bcf	3,6	;RP1=0, select bank0
  1184  0B91  00A6               	movwf	___xxtofl@val+2
  1185  0B92  1683               	bsf	3,5	;RP0=1, select bank1
  1186  0B93  1303               	bcf	3,6	;RP1=0, select bank1
  1187  0B94  0832               	movf	(??_main+1)^(0+128),w
  1188  0B95  1283               	bcf	3,5	;RP0=0, select bank0
  1189  0B96  1303               	bcf	3,6	;RP1=0, select bank0
  1190  0B97  00A5               	movwf	___xxtofl@val+1
  1191  0B98  1683               	bsf	3,5	;RP0=1, select bank1
  1192  0B99  1303               	bcf	3,6	;RP1=0, select bank1
  1193  0B9A  0831               	movf	??_main^(0+128),w
  1194  0B9B  1283               	bcf	3,5	;RP0=0, select bank0
  1195  0B9C  1303               	bcf	3,6	;RP1=0, select bank0
  1196  0B9D  00A4               	movwf	___xxtofl@val
  1197  0B9E  3001               	movlw	1
  1198  0B9F  120A  158A  2074  120A  158A  	fcall	___xxtofl
  1199  0BA4  1283               	bcf	3,5	;RP0=0, select bank0
  1200  0BA5  1303               	bcf	3,6	;RP1=0, select bank0
  1201  0BA6  0827               	movf	?___xxtofl+3,w
  1202  0BA7  00B9               	movwf	___fldiv@b+3
  1203  0BA8  0826               	movf	?___xxtofl+2,w
  1204  0BA9  00B8               	movwf	___fldiv@b+2
  1205  0BAA  0825               	movf	?___xxtofl+1,w
  1206  0BAB  00B7               	movwf	___fldiv@b+1
  1207  0BAC  0824               	movf	?___xxtofl,w
  1208  0BAD  00B6               	movwf	___fldiv@b
  1209  0BAE  120A  158A  2130  120A  158A  	fcall	___fldiv
  1210  0BB3  1283               	bcf	3,5	;RP0=0, select bank0
  1211  0BB4  1303               	bcf	3,6	;RP1=0, select bank0
  1212  0BB5  0835               	movf	?___fldiv+3,w
  1213  0BB6  00D3               	movwf	___flmul@a+3
  1214  0BB7  0834               	movf	?___fldiv+2,w
  1215  0BB8  00D2               	movwf	___flmul@a+2
  1216  0BB9  0833               	movf	?___fldiv+1,w
  1217  0BBA  00D1               	movwf	___flmul@a+1
  1218  0BBB  0832               	movf	?___fldiv,w
  1219  0BBC  00D0               	movwf	___flmul@a
  1220  0BBD  120A  118A  208A  120A  158A  	fcall	___flmul
  1221  0BC2  1283               	bcf	3,5	;RP0=0, select bank0
  1222  0BC3  1303               	bcf	3,6	;RP1=0, select bank0
  1223  0BC4  084F               	movf	?___flmul+3,w
  1224  0BC5  1683               	bsf	3,5	;RP0=1, select bank1
  1225  0BC6  1303               	bcf	3,6	;RP1=0, select bank1
  1226  0BC7  00BC               	movwf	(_conv0+3)^(0+128)
  1227  0BC8  1283               	bcf	3,5	;RP0=0, select bank0
  1228  0BC9  1303               	bcf	3,6	;RP1=0, select bank0
  1229  0BCA  084E               	movf	?___flmul+2,w
  1230  0BCB  1683               	bsf	3,5	;RP0=1, select bank1
  1231  0BCC  1303               	bcf	3,6	;RP1=0, select bank1
  1232  0BCD  00BB               	movwf	(_conv0+2)^(0+128)
  1233  0BCE  1283               	bcf	3,5	;RP0=0, select bank0
  1234  0BCF  1303               	bcf	3,6	;RP1=0, select bank0
  1235  0BD0  084D               	movf	?___flmul+1,w
  1236  0BD1  1683               	bsf	3,5	;RP0=1, select bank1
  1237  0BD2  1303               	bcf	3,6	;RP1=0, select bank1
  1238  0BD3  00BA               	movwf	(_conv0+1)^(0+128)
  1239  0BD4  1283               	bcf	3,5	;RP0=0, select bank0
  1240  0BD5  1303               	bcf	3,6	;RP1=0, select bank0
  1241  0BD6  084C               	movf	?___flmul,w
  1242  0BD7  1683               	bsf	3,5	;RP0=1, select bank1
  1243  0BD8  1303               	bcf	3,6	;RP1=0, select bank1
  1244  0BD9  00B9               	movwf	_conv0^(0+128)
  1245  0BDA                     l2795:
  1246                           
  1247                           ;Maestro.c: 79:        conv1 = (PORTD / (float) 255)*5;
  1248  0BDA  3040               	movlw	64
  1249  0BDB  1283               	bcf	3,5	;RP0=0, select bank0
  1250  0BDC  1303               	bcf	3,6	;RP1=0, select bank0
  1251  0BDD  00CF               	movwf	___flmul@b+3
  1252  0BDE  30A0               	movlw	160
  1253  0BDF  00CE               	movwf	___flmul@b+2
  1254  0BE0  3000               	movlw	0
  1255  0BE1  00CD               	movwf	___flmul@b+1
  1256  0BE2  3000               	movlw	0
  1257  0BE3  00CC               	movwf	___flmul@b
  1258  0BE4  3043               	movlw	67
  1259  0BE5  00B5               	movwf	___fldiv@a+3
  1260  0BE6  307F               	movlw	127
  1261  0BE7  00B4               	movwf	___fldiv@a+2
  1262  0BE8  3000               	movlw	0
  1263  0BE9  00B3               	movwf	___fldiv@a+1
  1264  0BEA  3000               	movlw	0
  1265  0BEB  00B2               	movwf	___fldiv@a
  1266  0BEC  0808               	movf	8,w	;volatile
  1267  0BED  1683               	bsf	3,5	;RP0=1, select bank1
  1268  0BEE  1303               	bcf	3,6	;RP1=0, select bank1
  1269  0BEF  00B1               	movwf	??_main^(0+128)
  1270  0BF0  01B2               	clrf	(??_main^(0+128)+1)
  1271  0BF1  01B3               	clrf	(??_main^(0+128)+2)
  1272  0BF2  01B4               	clrf	(??_main^(0+128)+3)
  1273  0BF3  0834               	movf	(??_main+3)^(0+128),w
  1274  0BF4  1283               	bcf	3,5	;RP0=0, select bank0
  1275  0BF5  1303               	bcf	3,6	;RP1=0, select bank0
  1276  0BF6  00A7               	movwf	___xxtofl@val+3
  1277  0BF7  1683               	bsf	3,5	;RP0=1, select bank1
  1278  0BF8  1303               	bcf	3,6	;RP1=0, select bank1
  1279  0BF9  0833               	movf	(??_main+2)^(0+128),w
  1280  0BFA  1283               	bcf	3,5	;RP0=0, select bank0
  1281  0BFB  1303               	bcf	3,6	;RP1=0, select bank0
  1282  0BFC  00A6               	movwf	___xxtofl@val+2
  1283  0BFD  1683               	bsf	3,5	;RP0=1, select bank1
  1284  0BFE  1303               	bcf	3,6	;RP1=0, select bank1
  1285  0BFF  0832               	movf	(??_main+1)^(0+128),w
  1286  0C00  1283               	bcf	3,5	;RP0=0, select bank0
  1287  0C01  1303               	bcf	3,6	;RP1=0, select bank0
  1288  0C02  00A5               	movwf	___xxtofl@val+1
  1289  0C03  1683               	bsf	3,5	;RP0=1, select bank1
  1290  0C04  1303               	bcf	3,6	;RP1=0, select bank1
  1291  0C05  0831               	movf	??_main^(0+128),w
  1292  0C06  1283               	bcf	3,5	;RP0=0, select bank0
  1293  0C07  1303               	bcf	3,6	;RP1=0, select bank0
  1294  0C08  00A4               	movwf	___xxtofl@val
  1295  0C09  3001               	movlw	1
  1296  0C0A  120A  158A  2074  120A  158A  	fcall	___xxtofl
  1297  0C0F  1283               	bcf	3,5	;RP0=0, select bank0
  1298  0C10  1303               	bcf	3,6	;RP1=0, select bank0
  1299  0C11  0827               	movf	?___xxtofl+3,w
  1300  0C12  00B9               	movwf	___fldiv@b+3
  1301  0C13  0826               	movf	?___xxtofl+2,w
  1302  0C14  00B8               	movwf	___fldiv@b+2
  1303  0C15  0825               	movf	?___xxtofl+1,w
  1304  0C16  00B7               	movwf	___fldiv@b+1
  1305  0C17  0824               	movf	?___xxtofl,w
  1306  0C18  00B6               	movwf	___fldiv@b
  1307  0C19  120A  158A  2130  120A  158A  	fcall	___fldiv
  1308  0C1E  1283               	bcf	3,5	;RP0=0, select bank0
  1309  0C1F  1303               	bcf	3,6	;RP1=0, select bank0
  1310  0C20  0835               	movf	?___fldiv+3,w
  1311  0C21  00D3               	movwf	___flmul@a+3
  1312  0C22  0834               	movf	?___fldiv+2,w
  1313  0C23  00D2               	movwf	___flmul@a+2
  1314  0C24  0833               	movf	?___fldiv+1,w
  1315  0C25  00D1               	movwf	___flmul@a+1
  1316  0C26  0832               	movf	?___fldiv,w
  1317  0C27  00D0               	movwf	___flmul@a
  1318  0C28  120A  118A  208A  120A  158A  	fcall	___flmul
  1319  0C2D  1283               	bcf	3,5	;RP0=0, select bank0
  1320  0C2E  1303               	bcf	3,6	;RP1=0, select bank0
  1321  0C2F  084F               	movf	?___flmul+3,w
  1322  0C30  1683               	bsf	3,5	;RP0=1, select bank1
  1323  0C31  1303               	bcf	3,6	;RP1=0, select bank1
  1324  0C32  00B8               	movwf	(_conv1+3)^(0+128)
  1325  0C33  1283               	bcf	3,5	;RP0=0, select bank0
  1326  0C34  1303               	bcf	3,6	;RP1=0, select bank0
  1327  0C35  084E               	movf	?___flmul+2,w
  1328  0C36  1683               	bsf	3,5	;RP0=1, select bank1
  1329  0C37  1303               	bcf	3,6	;RP1=0, select bank1
  1330  0C38  00B7               	movwf	(_conv1+2)^(0+128)
  1331  0C39  1283               	bcf	3,5	;RP0=0, select bank0
  1332  0C3A  1303               	bcf	3,6	;RP1=0, select bank0
  1333  0C3B  084D               	movf	?___flmul+1,w
  1334  0C3C  1683               	bsf	3,5	;RP0=1, select bank1
  1335  0C3D  1303               	bcf	3,6	;RP1=0, select bank1
  1336  0C3E  00B6               	movwf	(_conv1+1)^(0+128)
  1337  0C3F  1283               	bcf	3,5	;RP0=0, select bank0
  1338  0C40  1303               	bcf	3,6	;RP1=0, select bank0
  1339  0C41  084C               	movf	?___flmul,w
  1340  0C42  1683               	bsf	3,5	;RP0=1, select bank1
  1341  0C43  1303               	bcf	3,6	;RP1=0, select bank1
  1342  0C44  00B5               	movwf	_conv1^(0+128)
  1343  0C45                     l2797:
  1344                           
  1345                           ;Maestro.c: 80:        convert(adc0, conv0, 2);
  1346  0C45  3000               	movlw	0
  1347  0C46  1283               	bcf	3,5	;RP0=0, select bank0
  1348  0C47  1303               	bcf	3,6	;RP1=0, select bank0
  1349  0C48  00E6               	movwf	convert@data
  1350  0C49  3000               	movlw	0
  1351  0C4A  00E7               	movwf	convert@data+1
  1352  0C4B  1683               	bsf	3,5	;RP0=1, select bank1
  1353  0C4C  1303               	bcf	3,6	;RP1=0, select bank1
  1354  0C4D  083C               	movf	(_conv0+3)^(0+128),w
  1355  0C4E  1283               	bcf	3,5	;RP0=0, select bank0
  1356  0C4F  1303               	bcf	3,6	;RP1=0, select bank0
  1357  0C50  00EB               	movwf	convert@a+3
  1358  0C51  1683               	bsf	3,5	;RP0=1, select bank1
  1359  0C52  1303               	bcf	3,6	;RP1=0, select bank1
  1360  0C53  083B               	movf	(_conv0+2)^(0+128),w
  1361  0C54  1283               	bcf	3,5	;RP0=0, select bank0
  1362  0C55  1303               	bcf	3,6	;RP1=0, select bank0
  1363  0C56  00EA               	movwf	convert@a+2
  1364  0C57  1683               	bsf	3,5	;RP0=1, select bank1
  1365  0C58  1303               	bcf	3,6	;RP1=0, select bank1
  1366  0C59  083A               	movf	(_conv0+1)^(0+128),w
  1367  0C5A  1283               	bcf	3,5	;RP0=0, select bank0
  1368  0C5B  1303               	bcf	3,6	;RP1=0, select bank0
  1369  0C5C  00E9               	movwf	convert@a+1
  1370  0C5D  1683               	bsf	3,5	;RP0=1, select bank1
  1371  0C5E  1303               	bcf	3,6	;RP1=0, select bank1
  1372  0C5F  0839               	movf	_conv0^(0+128),w
  1373  0C60  1283               	bcf	3,5	;RP0=0, select bank0
  1374  0C61  1303               	bcf	3,6	;RP1=0, select bank0
  1375  0C62  00E8               	movwf	convert@a
  1376  0C63  3002               	movlw	2
  1377  0C64  00EC               	movwf	convert@place
  1378  0C65  3000               	movlw	0
  1379  0C66  00ED               	movwf	convert@place+1
  1380  0C67  120A  118A  23EB  120A  158A  	fcall	_convert
  1381  0C6C                     l2799:
  1382                           
  1383                           ;Maestro.c: 81:        convert(adc1, conv1, 2);
  1384  0C6C  3000               	movlw	0
  1385  0C6D  1283               	bcf	3,5	;RP0=0, select bank0
  1386  0C6E  1303               	bcf	3,6	;RP1=0, select bank0
  1387  0C6F  00E6               	movwf	convert@data
  1388  0C70  3000               	movlw	0
  1389  0C71  00E7               	movwf	convert@data+1
  1390  0C72  1683               	bsf	3,5	;RP0=1, select bank1
  1391  0C73  1303               	bcf	3,6	;RP1=0, select bank1
  1392  0C74  0838               	movf	(_conv1+3)^(0+128),w
  1393  0C75  1283               	bcf	3,5	;RP0=0, select bank0
  1394  0C76  1303               	bcf	3,6	;RP1=0, select bank0
  1395  0C77  00EB               	movwf	convert@a+3
  1396  0C78  1683               	bsf	3,5	;RP0=1, select bank1
  1397  0C79  1303               	bcf	3,6	;RP1=0, select bank1
  1398  0C7A  0837               	movf	(_conv1+2)^(0+128),w
  1399  0C7B  1283               	bcf	3,5	;RP0=0, select bank0
  1400  0C7C  1303               	bcf	3,6	;RP1=0, select bank0
  1401  0C7D  00EA               	movwf	convert@a+2
  1402  0C7E  1683               	bsf	3,5	;RP0=1, select bank1
  1403  0C7F  1303               	bcf	3,6	;RP1=0, select bank1
  1404  0C80  0836               	movf	(_conv1+1)^(0+128),w
  1405  0C81  1283               	bcf	3,5	;RP0=0, select bank0
  1406  0C82  1303               	bcf	3,6	;RP1=0, select bank0
  1407  0C83  00E9               	movwf	convert@a+1
  1408  0C84  1683               	bsf	3,5	;RP0=1, select bank1
  1409  0C85  1303               	bcf	3,6	;RP1=0, select bank1
  1410  0C86  0835               	movf	_conv1^(0+128),w
  1411  0C87  1283               	bcf	3,5	;RP0=0, select bank0
  1412  0C88  1303               	bcf	3,6	;RP1=0, select bank0
  1413  0C89  00E8               	movwf	convert@a
  1414  0C8A  3002               	movlw	2
  1415  0C8B  00EC               	movwf	convert@place
  1416  0C8C  3000               	movlw	0
  1417  0C8D  00ED               	movwf	convert@place+1
  1418  0C8E  120A  118A  23EB  120A  158A  	fcall	_convert
  1419  0C93                     l2801:
  1420                           
  1421                           ;Maestro.c: 82:         UARTInit(9600, 1);
  1422  0C93  3000               	movlw	0
  1423  0C94  1283               	bcf	3,5	;RP0=0, select bank0
  1424  0C95  1303               	bcf	3,6	;RP1=0, select bank0
  1425  0C96  00A3               	movwf	UARTInit@baud_rate+3
  1426  0C97  3000               	movlw	0
  1427  0C98  00A2               	movwf	UARTInit@baud_rate+2
  1428  0C99  3025               	movlw	37
  1429  0C9A  00A1               	movwf	UARTInit@baud_rate+1
  1430  0C9B  3080               	movlw	128
  1431  0C9C  00A0               	movwf	UARTInit@baud_rate
  1432  0C9D  01A4               	clrf	UARTInit@BRGH
  1433  0C9E  0AA4               	incf	UARTInit@BRGH,f
  1434  0C9F  120A  158A  2005  120A  158A  	fcall	_UARTInit
  1435                           
  1436                           ;Maestro.c: 83:         UARTSendString("|", 3);
  1437  0CA4  3003               	movlw	3
  1438  0CA5  1683               	bsf	3,5	;RP0=1, select bank1
  1439  0CA6  1303               	bcf	3,6	;RP1=0, select bank1
  1440  0CA7  00B1               	movwf	??_main^(0+128)
  1441  0CA8  0831               	movf	??_main^(0+128),w
  1442  0CA9  00F1               	movwf	UARTSendString@max_length
  1443  0CAA  300F               	movlw	(low ((STR_1-__stringbase)| (0+32768)))& (0+255)
  1444  0CAB  160A  118A  2612  120A  158A  	fcall	_UARTSendString
  1445                           
  1446                           ;Maestro.c: 84:         UARTSendString("S1", 6);
  1447  0CB0  3006               	movlw	6
  1448  0CB1  1683               	bsf	3,5	;RP0=1, select bank1
  1449  0CB2  1303               	bcf	3,6	;RP1=0, select bank1
  1450  0CB3  00B1               	movwf	??_main^(0+128)
  1451  0CB4  0831               	movf	??_main^(0+128),w
  1452  0CB5  00F1               	movwf	UARTSendString@max_length
  1453  0CB6  3001               	movlw	(low ((STR_2-__stringbase)| (0+32768)))& (0+255)
  1454  0CB7  160A  118A  2612  120A  158A  	fcall	_UARTSendString
  1455                           
  1456                           ;Maestro.c: 85:         UARTSendString(":", 3);
  1457  0CBC  3003               	movlw	3
  1458  0CBD  1683               	bsf	3,5	;RP0=1, select bank1
  1459  0CBE  1303               	bcf	3,6	;RP1=0, select bank1
  1460  0CBF  00B1               	movwf	??_main^(0+128)
  1461  0CC0  0831               	movf	??_main^(0+128),w
  1462  0CC1  00F1               	movwf	UARTSendString@max_length
  1463  0CC2  300B               	movlw	(low ((STR_3-__stringbase)| (0+32768)))& (0+255)
  1464  0CC3  160A  118A  2612  120A  158A  	fcall	_UARTSendString
  1465                           
  1466                           ;Maestro.c: 86:         UARTSendString(" ", 3);
  1467  0CC8  3003               	movlw	3
  1468  0CC9  1683               	bsf	3,5	;RP0=1, select bank1
  1469  0CCA  1303               	bcf	3,6	;RP1=0, select bank1
  1470  0CCB  00B1               	movwf	??_main^(0+128)
  1471  0CCC  0831               	movf	??_main^(0+128),w
  1472  0CCD  00F1               	movwf	UARTSendString@max_length
  1473  0CCE  3007               	movlw	(low ((STR_4-__stringbase)| (0+32768)))& (0+255)
  1474  0CCF  160A  118A  2612  120A  158A  	fcall	_UARTSendString
  1475                           
  1476                           ;Maestro.c: 87:         UARTSendString(adc0, 6);
  1477  0CD4  3006               	movlw	6
  1478  0CD5  1683               	bsf	3,5	;RP0=1, select bank1
  1479  0CD6  1303               	bcf	3,6	;RP1=0, select bank1
  1480  0CD7  00B1               	movwf	??_main^(0+128)
  1481  0CD8  0831               	movf	??_main^(0+128),w
  1482  0CD9  00F1               	movwf	UARTSendString@max_length
  1483  0CDA  3000               	movlw	0
  1484  0CDB  160A  118A  2612  120A  158A  	fcall	_UARTSendString
  1485                           
  1486                           ;Maestro.c: 88:         UARTSendString("V", 3);
  1487  0CE0  3003               	movlw	3
  1488  0CE1  1683               	bsf	3,5	;RP0=1, select bank1
  1489  0CE2  1303               	bcf	3,6	;RP1=0, select bank1
  1490  0CE3  00B1               	movwf	??_main^(0+128)
  1491  0CE4  0831               	movf	??_main^(0+128),w
  1492  0CE5  00F1               	movwf	UARTSendString@max_length
  1493  0CE6  300D               	movlw	(low ((STR_5-__stringbase)| (0+32768)))& (0+255)
  1494  0CE7  160A  118A  2612  120A  158A  	fcall	_UARTSendString
  1495                           
  1496                           ;Maestro.c: 89:         UARTSendString(",", 3);
  1497  0CEC  3003               	movlw	3
  1498  0CED  1683               	bsf	3,5	;RP0=1, select bank1
  1499  0CEE  1303               	bcf	3,6	;RP1=0, select bank1
  1500  0CEF  00B1               	movwf	??_main^(0+128)
  1501  0CF0  0831               	movf	??_main^(0+128),w
  1502  0CF1  00F1               	movwf	UARTSendString@max_length
  1503  0CF2  3009               	movlw	(low ((STR_6-__stringbase)| (0+32768)))& (0+255)
  1504  0CF3  160A  118A  2612  120A  158A  	fcall	_UARTSendString
  1505                           
  1506                           ;Maestro.c: 90:         UARTSendString(" ", 3);
  1507  0CF8  3003               	movlw	3
  1508  0CF9  1683               	bsf	3,5	;RP0=1, select bank1
  1509  0CFA  1303               	bcf	3,6	;RP1=0, select bank1
  1510  0CFB  00B1               	movwf	??_main^(0+128)
  1511  0CFC  0831               	movf	??_main^(0+128),w
  1512  0CFD  00F1               	movwf	UARTSendString@max_length
  1513  0CFE  3007               	movlw	(low ((STR_4-__stringbase)| (0+32768)))& (0+255)
  1514  0CFF  160A  118A  2612  120A  158A  	fcall	_UARTSendString
  1515                           
  1516                           ;Maestro.c: 92:         UARTSendString("|", 3);
  1517  0D04  3003               	movlw	3
  1518  0D05  1683               	bsf	3,5	;RP0=1, select bank1
  1519  0D06  1303               	bcf	3,6	;RP1=0, select bank1
  1520  0D07  00B1               	movwf	??_main^(0+128)
  1521  0D08  0831               	movf	??_main^(0+128),w
  1522  0D09  00F1               	movwf	UARTSendString@max_length
  1523  0D0A  300F               	movlw	(low ((STR_1-__stringbase)| (0+32768)))& (0+255)
  1524  0D0B  160A  118A  2612  120A  158A  	fcall	_UARTSendString
  1525                           
  1526                           ;Maestro.c: 93:         UARTSendString("S2", 6);
  1527  0D10  3006               	movlw	6
  1528  0D11  1683               	bsf	3,5	;RP0=1, select bank1
  1529  0D12  1303               	bcf	3,6	;RP1=0, select bank1
  1530  0D13  00B1               	movwf	??_main^(0+128)
  1531  0D14  0831               	movf	??_main^(0+128),w
  1532  0D15  00F1               	movwf	UARTSendString@max_length
  1533  0D16  3004               	movlw	(low ((STR_9-__stringbase)| (0+32768)))& (0+255)
  1534  0D17  160A  118A  2612  120A  158A  	fcall	_UARTSendString
  1535                           
  1536                           ;Maestro.c: 94:         UARTSendString(":", 3);
  1537  0D1C  3003               	movlw	3
  1538  0D1D  1683               	bsf	3,5	;RP0=1, select bank1
  1539  0D1E  1303               	bcf	3,6	;RP1=0, select bank1
  1540  0D1F  00B1               	movwf	??_main^(0+128)
  1541  0D20  0831               	movf	??_main^(0+128),w
  1542  0D21  00F1               	movwf	UARTSendString@max_length
  1543  0D22  300B               	movlw	(low ((STR_3-__stringbase)| (0+32768)))& (0+255)
  1544  0D23  160A  118A  2612  120A  158A  	fcall	_UARTSendString
  1545                           
  1546                           ;Maestro.c: 95:         UARTSendString(" ", 3);
  1547  0D28  3003               	movlw	3
  1548  0D29  1683               	bsf	3,5	;RP0=1, select bank1
  1549  0D2A  1303               	bcf	3,6	;RP1=0, select bank1
  1550  0D2B  00B1               	movwf	??_main^(0+128)
  1551  0D2C  0831               	movf	??_main^(0+128),w
  1552  0D2D  00F1               	movwf	UARTSendString@max_length
  1553  0D2E  3007               	movlw	(low ((STR_4-__stringbase)| (0+32768)))& (0+255)
  1554  0D2F  160A  118A  2612  120A  158A  	fcall	_UARTSendString
  1555                           
  1556                           ;Maestro.c: 96:         UARTSendString(adc1, 6);
  1557  0D34  3006               	movlw	6
  1558  0D35  1683               	bsf	3,5	;RP0=1, select bank1
  1559  0D36  1303               	bcf	3,6	;RP1=0, select bank1
  1560  0D37  00B1               	movwf	??_main^(0+128)
  1561  0D38  0831               	movf	??_main^(0+128),w
  1562  0D39  00F1               	movwf	UARTSendString@max_length
  1563  0D3A  3000               	movlw	0
  1564  0D3B  160A  118A  2612  120A  158A  	fcall	_UARTSendString
  1565                           
  1566                           ;Maestro.c: 97:         UARTSendString("V", 3);
  1567  0D40  3003               	movlw	3
  1568  0D41  1683               	bsf	3,5	;RP0=1, select bank1
  1569  0D42  1303               	bcf	3,6	;RP1=0, select bank1
  1570  0D43  00B1               	movwf	??_main^(0+128)
  1571  0D44  0831               	movf	??_main^(0+128),w
  1572  0D45  00F1               	movwf	UARTSendString@max_length
  1573  0D46  300D               	movlw	(low ((STR_5-__stringbase)| (0+32768)))& (0+255)
  1574  0D47  160A  118A  2612  120A  158A  	fcall	_UARTSendString
  1575                           
  1576                           ;Maestro.c: 98:         UARTSendString(",", 3);
  1577  0D4C  3003               	movlw	3
  1578  0D4D  1683               	bsf	3,5	;RP0=1, select bank1
  1579  0D4E  1303               	bcf	3,6	;RP1=0, select bank1
  1580  0D4F  00B1               	movwf	??_main^(0+128)
  1581  0D50  0831               	movf	??_main^(0+128),w
  1582  0D51  00F1               	movwf	UARTSendString@max_length
  1583  0D52  3009               	movlw	(low ((STR_6-__stringbase)| (0+32768)))& (0+255)
  1584  0D53  160A  118A  2612  120A  158A  	fcall	_UARTSendString
  1585                           
  1586                           ;Maestro.c: 99:         UARTSendString(" ", 3);
  1587  0D58  3003               	movlw	3
  1588  0D59  1683               	bsf	3,5	;RP0=1, select bank1
  1589  0D5A  1303               	bcf	3,6	;RP1=0, select bank1
  1590  0D5B  00B1               	movwf	??_main^(0+128)
  1591  0D5C  0831               	movf	??_main^(0+128),w
  1592  0D5D  00F1               	movwf	UARTSendString@max_length
  1593  0D5E  3007               	movlw	(low ((STR_4-__stringbase)| (0+32768)))& (0+255)
  1594  0D5F  160A  118A  2612  120A  158A  	fcall	_UARTSendString
  1595  0D64  2B12               	goto	l2767
  1596  0D65  120A  118A  2800   	ljmp	start
  1597  0D68                     __end_of_main:
  1598                           
  1599                           	psect	text1
  1600  1557                     __ptext1:	
  1601 ;; *************** function _spiWrite *****************
  1602 ;; Defined at:
  1603 ;;		line 75 in file "LibreriasL3.c"
  1604 ;; Parameters:    Size  Location     Type
  1605 ;;  dat             1    wreg     unsigned char 
  1606 ;; Auto vars:     Size  Location     Type
  1607 ;;  dat             1    0[COMMON] unsigned char 
  1608 ;; Return value:  Size  Location     Type
  1609 ;;                  1    wreg      void 
  1610 ;; Registers used:
  1611 ;;		wreg
  1612 ;; Tracked objects:
  1613 ;;		On entry : 0/0
  1614 ;;		On exit  : 0/0
  1615 ;;		Unchanged: 0/0
  1616 ;; Data sizes:     COMMON   BANK0   BANK1   BANK3   BANK2
  1617 ;;      Params:         0       0       0       0       0
  1618 ;;      Locals:         1       0       0       0       0
  1619 ;;      Temps:          0       0       0       0       0
  1620 ;;      Totals:         1       0       0       0       0
  1621 ;;Total ram usage:        1 bytes
  1622 ;; Hardware stack levels used: 1
  1623 ;; This function calls:
  1624 ;;		Nothing
  1625 ;; This function is called by:
  1626 ;;		_main
  1627 ;; This function uses a non-reentrant model
  1628 ;;
  1629                           
  1630                           
  1631                           ;psect for function _spiWrite
  1632  1557                     _spiWrite:
  1633                           
  1634                           ;incstack = 0
  1635                           ; Regs used in _spiWrite: [wreg]
  1636                           ;spiWrite@dat stored from wreg
  1637  1557  00F0               	movwf	spiWrite@dat
  1638  1558                     l2615:
  1639                           
  1640                           ;LibreriasL3.c: 75: void spiWrite(char dat);LibreriasL3.c: 76: {;LibreriasL3.c: 77:     
      +                          SSPBUF = dat;
  1641  1558  0870               	movf	spiWrite@dat,w
  1642  1559  1283               	bcf	3,5	;RP0=0, select bank0
  1643  155A  1303               	bcf	3,6	;RP1=0, select bank0
  1644  155B  0093               	movwf	19	;volatile
  1645  155C                     l247:
  1646  155C  0008               	return
  1647  155D                     __end_of_spiWrite:
  1648                           
  1649                           	psect	text2
  1650  1564                     __ptext2:	
  1651 ;; *************** function _spiRead *****************
  1652 ;; Defined at:
  1653 ;;		line 88 in file "LibreriasL3.c"
  1654 ;; Parameters:    Size  Location     Type
  1655 ;;		None
  1656 ;; Auto vars:     Size  Location     Type
  1657 ;;		None
  1658 ;; Return value:  Size  Location     Type
  1659 ;;                  1    wreg      unsigned char 
  1660 ;; Registers used:
  1661 ;;		wreg, status,2, status,0, pclath, cstack
  1662 ;; Tracked objects:
  1663 ;;		On entry : 0/0
  1664 ;;		On exit  : 0/0
  1665 ;;		Unchanged: 0/0
  1666 ;; Data sizes:     COMMON   BANK0   BANK1   BANK3   BANK2
  1667 ;;      Params:         0       0       0       0       0
  1668 ;;      Locals:         0       0       0       0       0
  1669 ;;      Temps:          0       0       0       0       0
  1670 ;;      Totals:         0       0       0       0       0
  1671 ;;Total ram usage:        0 bytes
  1672 ;; Hardware stack levels used: 1
  1673 ;; Hardware stack levels required when called: 1
  1674 ;; This function calls:
  1675 ;;		_spiReceiveWait
  1676 ;; This function is called by:
  1677 ;;		_main
  1678 ;; This function uses a non-reentrant model
  1679 ;;
  1680                           
  1681                           
  1682                           ;psect for function _spiRead
  1683  1564                     _spiRead:
  1684  1564                     l2617:	
  1685                           ;incstack = 0
  1686                           ; Regs used in _spiRead: [wreg+status,2+status,0+pclath+cstack]
  1687                           
  1688                           
  1689                           ;LibreriasL3.c: 90:     spiReceiveWait();
  1690  1564  160A  118A  255D  160A  118A  	fcall	_spiReceiveWait
  1691  1569                     l2619:
  1692                           
  1693                           ;LibreriasL3.c: 91:     return(SSPBUF);
  1694  1569  1283               	bcf	3,5	;RP0=0, select bank0
  1695  156A  1303               	bcf	3,6	;RP1=0, select bank0
  1696  156B  0813               	movf	19,w	;volatile
  1697  156C                     l255:
  1698  156C  0008               	return
  1699  156D                     __end_of_spiRead:
  1700                           
  1701                           	psect	text3
  1702  155D                     __ptext3:	
  1703 ;; *************** function _spiReceiveWait *****************
  1704 ;; Defined at:
  1705 ;;		line 70 in file "LibreriasL3.c"
  1706 ;; Parameters:    Size  Location     Type
  1707 ;;		None
  1708 ;; Auto vars:     Size  Location     Type
  1709 ;;		None
  1710 ;; Return value:  Size  Location     Type
  1711 ;;                  1    wreg      void 
  1712 ;; Registers used:
  1713 ;;		None
  1714 ;; Tracked objects:
  1715 ;;		On entry : 0/0
  1716 ;;		On exit  : 0/0
  1717 ;;		Unchanged: 0/0
  1718 ;; Data sizes:     COMMON   BANK0   BANK1   BANK3   BANK2
  1719 ;;      Params:         0       0       0       0       0
  1720 ;;      Locals:         0       0       0       0       0
  1721 ;;      Temps:          0       0       0       0       0
  1722 ;;      Totals:         0       0       0       0       0
  1723 ;;Total ram usage:        0 bytes
  1724 ;; Hardware stack levels used: 1
  1725 ;; This function calls:
  1726 ;;		Nothing
  1727 ;; This function is called by:
  1728 ;;		_spiRead
  1729 ;; This function uses a non-reentrant model
  1730 ;;
  1731                           
  1732                           
  1733                           ;psect for function _spiReceiveWait
  1734  155D                     _spiReceiveWait:
  1735  155D                     l2133:	
  1736                           ;incstack = 0
  1737                           ; Regs used in _spiReceiveWait: []
  1738                           
  1739  155D                     l241:	
  1740                           ;LibreriasL3.c: 72:     while ( !SSPSTATbits.BF );
  1741                           
  1742  155D  1683               	bsf	3,5	;RP0=1, select bank1
  1743  155E  1303               	bcf	3,6	;RP1=0, select bank1
  1744  155F  1C14               	btfss	20,0	;volatile
  1745  1560  2D62               	goto	u2421
  1746  1561  2D63               	goto	u2420
  1747  1562                     u2421:
  1748  1562  2D5D               	goto	l241
  1749  1563                     u2420:
  1750  1563                     l244:
  1751  1563  0008               	return
  1752  1564                     __end_of_spiReceiveWait:
  1753                           
  1754                           	psect	text4
  1755  03EB                     __ptext4:	
  1756 ;; *************** function _convert *****************
  1757 ;; Defined at:
  1758 ;;		line 16 in file "ADCL3.c"
  1759 ;; Parameters:    Size  Location     Type
  1760 ;;  data            2   70[BANK0 ] PTR unsigned char 
  1761 ;;		 -> NULL(0), RAM(512), 
  1762 ;;  a               4   72[BANK0 ] float 
  1763 ;;  place           2   76[BANK0 ] int 
  1764 ;; Auto vars:     Size  Location     Type
  1765 ;;  x               4    7[BANK1 ] float 
  1766 ;;  mu              2   15[BANK1 ] int 
  1767 ;;  digits          2   13[BANK1 ] int 
  1768 ;;  i               2   11[BANK1 ] int 
  1769 ;;  j               2    5[BANK1 ] int 
  1770 ;;  temp            2    3[BANK1 ] int 
  1771 ;; Return value:  Size  Location     Type
  1772 ;;                  1    wreg      void 
  1773 ;; Registers used:
  1774 ;;		wreg, fsr0l, fsr0h, status,2, status,0, btemp+1, pclath, cstack
  1775 ;; Tracked objects:
  1776 ;;		On entry : 0/0
  1777 ;;		On exit  : 0/0
  1778 ;;		Unchanged: 0/0
  1779 ;; Data sizes:     COMMON   BANK0   BANK1   BANK3   BANK2
  1780 ;;      Params:         0       8       0       0       0
  1781 ;;      Locals:         0       0      14       0       0
  1782 ;;      Temps:          0       0       3       0       0
  1783 ;;      Totals:         0       8      17       0       0
  1784 ;;Total ram usage:       25 bytes
  1785 ;; Hardware stack levels used: 1
  1786 ;; Hardware stack levels required when called: 2
  1787 ;; This function calls:
  1788 ;;		___awdiv
  1789 ;;		___fldiv
  1790 ;;		___flge
  1791 ;;		___flmul
  1792 ;;		___flsub
  1793 ;;		___fltol
  1794 ;;		___wmul
  1795 ;;		___xxtofl
  1796 ;; This function is called by:
  1797 ;;		_main
  1798 ;; This function uses a non-reentrant model
  1799 ;;
  1800                           
  1801                           
  1802                           ;psect for function _convert
  1803  03EB                     _convert:
  1804  03EB                     l2653:	
  1805                           ;incstack = 0
  1806                           ; Regs used in _convert: [wreg-fsr0h+status,2+status,0+btemp+1+pclath+cstack]
  1807                           
  1808                           
  1809                           ;ADCL3.c: 16: void convert(char *data,float a, int place);ADCL3.c: 17: {;ADCL3.c: 18:   
      +                             int temp=a;
  1810  03EB  1283               	bcf	3,5	;RP0=0, select bank0
  1811  03EC  1303               	bcf	3,6	;RP1=0, select bank0
  1812  03ED  086B               	movf	convert@a+3,w
  1813  03EE  00F3               	movwf	___fltol@f1+3
  1814  03EF  086A               	movf	convert@a+2,w
  1815  03F0  00F2               	movwf	___fltol@f1+2
  1816  03F1  0869               	movf	convert@a+1,w
  1817  03F2  00F1               	movwf	___fltol@f1+1
  1818  03F3  0868               	movf	convert@a,w
  1819  03F4  00F0               	movwf	___fltol@f1
  1820  03F5  120A  118A  2010  120A  118A  	fcall	___fltol
  1821  03FA  0871               	movf	?___fltol+1,w
  1822  03FB  1683               	bsf	3,5	;RP0=1, select bank1
  1823  03FC  1303               	bcf	3,6	;RP1=0, select bank1
  1824  03FD  00A4               	movwf	(convert@temp+1)^(0+128)
  1825  03FE  0870               	movf	?___fltol,w
  1826  03FF  00A3               	movwf	convert@temp^(0+128)
  1827  0400                     l2655:
  1828  0400                     l2657:
  1829                           
  1830                           ;ADCL3.c: 20:      int digits=0;
  1831  0400  01AD               	clrf	convert@digits^(0+128)
  1832  0401  01AE               	clrf	(convert@digits+1)^(0+128)
  1833  0402                     l2659:
  1834                           
  1835                           ;ADCL3.c: 21:      int i=0,mu=1;
  1836  0402  01AB               	clrf	convert@i^(0+128)
  1837  0403  01AC               	clrf	(convert@i+1)^(0+128)
  1838  0404                     l2661:
  1839  0404  3001               	movlw	1
  1840  0405  00AF               	movwf	convert@mu^(0+128)
  1841  0406  3000               	movlw	0
  1842  0407  00B0               	movwf	(convert@mu^(0+128)+1)
  1843  0408                     l2663:
  1844  0408                     l2665:
  1845                           
  1846                           ;ADCL3.c: 23:      if(a<0)
  1847  0408  1283               	bcf	3,5	;RP0=0, select bank0
  1848  0409  1303               	bcf	3,6	;RP1=0, select bank0
  1849  040A  086B               	movf	convert@a+3,w
  1850  040B  00F3               	movwf	___flge@ff1+3
  1851  040C  086A               	movf	convert@a+2,w
  1852  040D  00F2               	movwf	___flge@ff1+2
  1853  040E  0869               	movf	convert@a+1,w
  1854  040F  00F1               	movwf	___flge@ff1+1
  1855  0410  0868               	movf	convert@a,w
  1856  0411  00F0               	movwf	___flge@ff1
  1857  0412  3000               	movlw	0
  1858  0413  00F7               	movwf	___flge@ff2+3
  1859  0414  3000               	movlw	0
  1860  0415  00F6               	movwf	___flge@ff2+2
  1861  0416  3000               	movlw	0
  1862  0417  00F5               	movwf	___flge@ff2+1
  1863  0418  3000               	movlw	0
  1864  0419  00F4               	movwf	___flge@ff2
  1865  041A  160A  118A  275E  120A  118A  	fcall	___flge
  1866  041F  1803               	btfsc	3,0
  1867  0420  2C22               	goto	u3641
  1868  0421  2C23               	goto	u3640
  1869  0422                     u3641:
  1870  0422  2C73               	goto	l2677
  1871  0423                     u3640:
  1872  0423                     l2667:
  1873                           
  1874                           ;ADCL3.c: 24:      {;ADCL3.c: 25:             a=a*-1;
  1875  0423  30BF               	movlw	191
  1876  0424  1283               	bcf	3,5	;RP0=0, select bank0
  1877  0425  1303               	bcf	3,6	;RP1=0, select bank0
  1878  0426  00CF               	movwf	___flmul@b+3
  1879  0427  3080               	movlw	128
  1880  0428  00CE               	movwf	___flmul@b+2
  1881  0429  3000               	movlw	0
  1882  042A  00CD               	movwf	___flmul@b+1
  1883  042B  3000               	movlw	0
  1884  042C  00CC               	movwf	___flmul@b
  1885  042D  086B               	movf	convert@a+3,w
  1886  042E  00D3               	movwf	___flmul@a+3
  1887  042F  086A               	movf	convert@a+2,w
  1888  0430  00D2               	movwf	___flmul@a+2
  1889  0431  0869               	movf	convert@a+1,w
  1890  0432  00D1               	movwf	___flmul@a+1
  1891  0433  0868               	movf	convert@a,w
  1892  0434  00D0               	movwf	___flmul@a
  1893  0435  120A  118A  208A  120A  118A  	fcall	___flmul
  1894  043A  1283               	bcf	3,5	;RP0=0, select bank0
  1895  043B  1303               	bcf	3,6	;RP1=0, select bank0
  1896  043C  084F               	movf	?___flmul+3,w
  1897  043D  00EB               	movwf	convert@a+3
  1898  043E  084E               	movf	?___flmul+2,w
  1899  043F  00EA               	movwf	convert@a+2
  1900  0440  084D               	movf	?___flmul+1,w
  1901  0441  00E9               	movwf	convert@a+1
  1902  0442  084C               	movf	?___flmul,w
  1903  0443  00E8               	movwf	convert@a
  1904  0444                     l2669:
  1905                           
  1906                           ;ADCL3.c: 26:             data[i]='-';
  1907  0444  302D               	movlw	45
  1908  0445  1683               	bsf	3,5	;RP0=1, select bank1
  1909  0446  1303               	bcf	3,6	;RP1=0, select bank1
  1910  0447  00A0               	movwf	??_convert^(0+128)
  1911  0448  1283               	bcf	3,5	;RP0=0, select bank0
  1912  0449  1303               	bcf	3,6	;RP1=0, select bank0
  1913  044A  0866               	movf	convert@data,w
  1914  044B  0084               	movwf	4
  1915  044C  1783               	bsf	3,7
  1916  044D  1C67               	btfss	convert@data+1,0
  1917  044E  1383               	bcf	3,7
  1918  044F  1683               	bsf	3,5	;RP0=1, select bank1
  1919  0450  1303               	bcf	3,6	;RP1=0, select bank1
  1920  0451  0820               	movf	??_convert^(0+128),w
  1921  0452  0080               	movwf	0
  1922  0453                     l2671:
  1923                           
  1924                           ;ADCL3.c: 27:             i++;
  1925  0453  3001               	movlw	1
  1926  0454  07AB               	addwf	convert@i^(0+128),f
  1927  0455  1803               	skipnc
  1928  0456  0AAC               	incf	(convert@i+1)^(0+128),f
  1929  0457  3000               	movlw	0
  1930  0458  07AC               	addwf	(convert@i+1)^(0+128),f
  1931  0459  2C73               	goto	l2677
  1932  045A                     l2673:
  1933                           
  1934                           ;ADCL3.c: 31:      {;ADCL3.c: 32:          temp=temp/10;
  1935  045A  300A               	movlw	10
  1936  045B  00F0               	movwf	___awdiv@divisor
  1937  045C  3000               	movlw	0
  1938  045D  00F1               	movwf	___awdiv@divisor+1
  1939  045E  0824               	movf	(convert@temp+1)^(0+128),w
  1940  045F  00F3               	movwf	___awdiv@dividend+1
  1941  0460  0823               	movf	convert@temp^(0+128),w
  1942  0461  00F2               	movwf	___awdiv@dividend
  1943  0462  160A  118A  26F7  120A  118A  	fcall	___awdiv
  1944  0467  0871               	movf	?___awdiv+1,w
  1945  0468  1683               	bsf	3,5	;RP0=1, select bank1
  1946  0469  1303               	bcf	3,6	;RP1=0, select bank1
  1947  046A  00A4               	movwf	(convert@temp+1)^(0+128)
  1948  046B  0870               	movf	?___awdiv,w
  1949  046C  00A3               	movwf	convert@temp^(0+128)
  1950  046D                     l2675:
  1951                           
  1952                           ;ADCL3.c: 33:          digits++;
  1953  046D  3001               	movlw	1
  1954  046E  07AD               	addwf	convert@digits^(0+128),f
  1955  046F  1803               	skipnc
  1956  0470  0AAE               	incf	(convert@digits+1)^(0+128),f
  1957  0471  3000               	movlw	0
  1958  0472  07AE               	addwf	(convert@digits+1)^(0+128),f
  1959  0473                     l2677:
  1960                           
  1961                           ;ADCL3.c: 30:      while(temp!=0)
  1962  0473  1683               	bsf	3,5	;RP0=1, select bank1
  1963  0474  1303               	bcf	3,6	;RP1=0, select bank1
  1964  0475  0823               	movf	convert@temp^(0+128),w
  1965  0476  0424               	iorwf	(convert@temp+1)^(0+128),w
  1966  0477  1D03               	btfss	3,2
  1967  0478  2C7A               	goto	u3651
  1968  0479  2C7B               	goto	u3650
  1969  047A                     u3651:
  1970  047A  2C5A               	goto	l2673
  1971  047B                     u3650:
  1972  047B  2D98               	goto	l2701
  1973  047C                     l2679:
  1974                           
  1975                           ;ADCL3.c: 36:      {;ADCL3.c: 37:          if(digits==1)mu=1;
  1976  047C  032D               	decf	convert@digits^(0+128),w
  1977  047D  042E               	iorwf	(convert@digits+1)^(0+128),w
  1978  047E  1D03               	btfss	3,2
  1979  047F  2C81               	goto	u3661
  1980  0480  2C82               	goto	u3660
  1981  0481                     u3661:
  1982  0481  2C87               	goto	l2683
  1983  0482                     u3660:
  1984  0482                     l2681:
  1985  0482  3001               	movlw	1
  1986  0483  00AF               	movwf	convert@mu^(0+128)
  1987  0484  3000               	movlw	0
  1988  0485  00B0               	movwf	(convert@mu^(0+128)+1)
  1989  0486  2CC1               	goto	l2691
  1990  0487                     l2683:
  1991  0487  3002               	movlw	2
  1992  0488  00A5               	movwf	convert@j^(0+128)
  1993  0489  3000               	movlw	0
  1994  048A  00A6               	movwf	(convert@j^(0+128)+1)
  1995  048B  2CB3               	goto	l2689
  1996  048C                     l2685:
  1997  048C  1683               	bsf	3,5	;RP0=1, select bank1
  1998  048D  1303               	bcf	3,6	;RP1=0, select bank1
  1999  048E  0830               	movf	(convert@mu+1)^(0+128),w
  2000  048F  1283               	bcf	3,5	;RP0=0, select bank0
  2001  0490  1303               	bcf	3,6	;RP1=0, select bank0
  2002  0491  00A1               	movwf	___wmul@multiplier+1
  2003  0492  1683               	bsf	3,5	;RP0=1, select bank1
  2004  0493  1303               	bcf	3,6	;RP1=0, select bank1
  2005  0494  082F               	movf	convert@mu^(0+128),w
  2006  0495  1283               	bcf	3,5	;RP0=0, select bank0
  2007  0496  1303               	bcf	3,6	;RP1=0, select bank0
  2008  0497  00A0               	movwf	___wmul@multiplier
  2009  0498  300A               	movlw	10
  2010  0499  00A2               	movwf	___wmul@multiplicand
  2011  049A  3000               	movlw	0
  2012  049B  00A3               	movwf	___wmul@multiplicand+1
  2013  049C  160A  118A  25EB  120A  118A  	fcall	___wmul
  2014  04A1  1283               	bcf	3,5	;RP0=0, select bank0
  2015  04A2  1303               	bcf	3,6	;RP1=0, select bank0
  2016  04A3  0821               	movf	?___wmul+1,w
  2017  04A4  1683               	bsf	3,5	;RP0=1, select bank1
  2018  04A5  1303               	bcf	3,6	;RP1=0, select bank1
  2019  04A6  00B0               	movwf	(convert@mu+1)^(0+128)
  2020  04A7  1283               	bcf	3,5	;RP0=0, select bank0
  2021  04A8  1303               	bcf	3,6	;RP1=0, select bank0
  2022  04A9  0820               	movf	?___wmul,w
  2023  04AA  1683               	bsf	3,5	;RP0=1, select bank1
  2024  04AB  1303               	bcf	3,6	;RP1=0, select bank1
  2025  04AC  00AF               	movwf	convert@mu^(0+128)
  2026  04AD                     l2687:
  2027  04AD  3001               	movlw	1
  2028  04AE  07A5               	addwf	convert@j^(0+128),f
  2029  04AF  1803               	skipnc
  2030  04B0  0AA6               	incf	(convert@j+1)^(0+128),f
  2031  04B1  3000               	movlw	0
  2032  04B2  07A6               	addwf	(convert@j+1)^(0+128),f
  2033  04B3                     l2689:
  2034  04B3  082E               	movf	(convert@digits+1)^(0+128),w
  2035  04B4  3A80               	xorlw	128
  2036  04B5  00A0               	movwf	??_convert^(0+128)
  2037  04B6  0826               	movf	(convert@j+1)^(0+128),w
  2038  04B7  3A80               	xorlw	128
  2039  04B8  0220               	subwf	??_convert^(0+128),w
  2040  04B9  1D03               	skipz
  2041  04BA  2CBD               	goto	u3675
  2042  04BB  0825               	movf	convert@j^(0+128),w
  2043  04BC  022D               	subwf	convert@digits^(0+128),w
  2044  04BD                     u3675:
  2045  04BD  1803               	skipnc
  2046  04BE  2CC0               	goto	u3671
  2047  04BF  2CC1               	goto	u3670
  2048  04C0                     u3671:
  2049  04C0  2C8C               	goto	l2685
  2050  04C1                     u3670:
  2051  04C1                     l2691:
  2052                           
  2053                           ;ADCL3.c: 40:          x=a/mu;
  2054  04C1  1683               	bsf	3,5	;RP0=1, select bank1
  2055  04C2  1303               	bcf	3,6	;RP1=0, select bank1
  2056  04C3  082F               	movf	convert@mu^(0+128),w
  2057  04C4  1283               	bcf	3,5	;RP0=0, select bank0
  2058  04C5  1303               	bcf	3,6	;RP1=0, select bank0
  2059  04C6  00A4               	movwf	___xxtofl@val
  2060  04C7  1683               	bsf	3,5	;RP0=1, select bank1
  2061  04C8  1303               	bcf	3,6	;RP1=0, select bank1
  2062  04C9  0830               	movf	(convert@mu+1)^(0+128),w
  2063  04CA  1283               	bcf	3,5	;RP0=0, select bank0
  2064  04CB  1303               	bcf	3,6	;RP1=0, select bank0
  2065  04CC  00A5               	movwf	___xxtofl@val+1
  2066  04CD  3000               	movlw	0
  2067  04CE  1BA5               	btfsc	___xxtofl@val+1,7
  2068  04CF  30FF               	movlw	255
  2069  04D0  00A6               	movwf	___xxtofl@val+2
  2070  04D1  00A7               	movwf	___xxtofl@val+3
  2071  04D2  3001               	movlw	1
  2072  04D3  120A  158A  2074  120A  118A  	fcall	___xxtofl
  2073  04D8  1283               	bcf	3,5	;RP0=0, select bank0
  2074  04D9  1303               	bcf	3,6	;RP1=0, select bank0
  2075  04DA  0827               	movf	?___xxtofl+3,w
  2076  04DB  00B5               	movwf	___fldiv@a+3
  2077  04DC  0826               	movf	?___xxtofl+2,w
  2078  04DD  00B4               	movwf	___fldiv@a+2
  2079  04DE  0825               	movf	?___xxtofl+1,w
  2080  04DF  00B3               	movwf	___fldiv@a+1
  2081  04E0  0824               	movf	?___xxtofl,w
  2082  04E1  00B2               	movwf	___fldiv@a
  2083  04E2  086B               	movf	convert@a+3,w
  2084  04E3  00B9               	movwf	___fldiv@b+3
  2085  04E4  086A               	movf	convert@a+2,w
  2086  04E5  00B8               	movwf	___fldiv@b+2
  2087  04E6  0869               	movf	convert@a+1,w
  2088  04E7  00B7               	movwf	___fldiv@b+1
  2089  04E8  0868               	movf	convert@a,w
  2090  04E9  00B6               	movwf	___fldiv@b
  2091  04EA  120A  158A  2130  120A  118A  	fcall	___fldiv
  2092  04EF  1283               	bcf	3,5	;RP0=0, select bank0
  2093  04F0  1303               	bcf	3,6	;RP1=0, select bank0
  2094  04F1  0835               	movf	?___fldiv+3,w
  2095  04F2  1683               	bsf	3,5	;RP0=1, select bank1
  2096  04F3  1303               	bcf	3,6	;RP1=0, select bank1
  2097  04F4  00AA               	movwf	(convert@x+3)^(0+128)
  2098  04F5  1283               	bcf	3,5	;RP0=0, select bank0
  2099  04F6  1303               	bcf	3,6	;RP1=0, select bank0
  2100  04F7  0834               	movf	?___fldiv+2,w
  2101  04F8  1683               	bsf	3,5	;RP0=1, select bank1
  2102  04F9  1303               	bcf	3,6	;RP1=0, select bank1
  2103  04FA  00A9               	movwf	(convert@x+2)^(0+128)
  2104  04FB  1283               	bcf	3,5	;RP0=0, select bank0
  2105  04FC  1303               	bcf	3,6	;RP1=0, select bank0
  2106  04FD  0833               	movf	?___fldiv+1,w
  2107  04FE  1683               	bsf	3,5	;RP0=1, select bank1
  2108  04FF  1303               	bcf	3,6	;RP1=0, select bank1
  2109  0500  00A8               	movwf	(convert@x+1)^(0+128)
  2110  0501  1283               	bcf	3,5	;RP0=0, select bank0
  2111  0502  1303               	bcf	3,6	;RP1=0, select bank0
  2112  0503  0832               	movf	?___fldiv,w
  2113  0504  1683               	bsf	3,5	;RP0=1, select bank1
  2114  0505  1303               	bcf	3,6	;RP1=0, select bank1
  2115  0506  00A7               	movwf	convert@x^(0+128)
  2116                           
  2117                           ;ADCL3.c: 41:          a=a-((int)x*mu);
  2118  0507  0830               	movf	(convert@mu+1)^(0+128),w
  2119  0508  1283               	bcf	3,5	;RP0=0, select bank0
  2120  0509  1303               	bcf	3,6	;RP1=0, select bank0
  2121  050A  00A3               	movwf	___wmul@multiplicand+1
  2122  050B  1683               	bsf	3,5	;RP0=1, select bank1
  2123  050C  1303               	bcf	3,6	;RP1=0, select bank1
  2124  050D  082F               	movf	convert@mu^(0+128),w
  2125  050E  1283               	bcf	3,5	;RP0=0, select bank0
  2126  050F  1303               	bcf	3,6	;RP1=0, select bank0
  2127  0510  00A2               	movwf	___wmul@multiplicand
  2128  0511  1683               	bsf	3,5	;RP0=1, select bank1
  2129  0512  1303               	bcf	3,6	;RP1=0, select bank1
  2130  0513  082A               	movf	(convert@x+3)^(0+128),w
  2131  0514  00F3               	movwf	___fltol@f1+3
  2132  0515  0829               	movf	(convert@x+2)^(0+128),w
  2133  0516  00F2               	movwf	___fltol@f1+2
  2134  0517  0828               	movf	(convert@x+1)^(0+128),w
  2135  0518  00F1               	movwf	___fltol@f1+1
  2136  0519  0827               	movf	convert@x^(0+128),w
  2137  051A  00F0               	movwf	___fltol@f1
  2138  051B  120A  118A  2010  120A  118A  	fcall	___fltol
  2139  0520  0871               	movf	?___fltol+1,w
  2140  0521  1283               	bcf	3,5	;RP0=0, select bank0
  2141  0522  1303               	bcf	3,6	;RP1=0, select bank0
  2142  0523  00A1               	movwf	___wmul@multiplier+1
  2143  0524  0870               	movf	?___fltol,w
  2144  0525  00A0               	movwf	___wmul@multiplier
  2145  0526  160A  118A  25EB  120A  118A  	fcall	___wmul
  2146  052B  1283               	bcf	3,5	;RP0=0, select bank0
  2147  052C  1303               	bcf	3,6	;RP1=0, select bank0
  2148  052D  0820               	movf	?___wmul,w
  2149  052E  00A4               	movwf	___xxtofl@val
  2150  052F  0821               	movf	?___wmul+1,w
  2151  0530  00A5               	movwf	___xxtofl@val+1
  2152  0531  3000               	movlw	0
  2153  0532  1BA5               	btfsc	___xxtofl@val+1,7
  2154  0533  30FF               	movlw	255
  2155  0534  00A6               	movwf	___xxtofl@val+2
  2156  0535  00A7               	movwf	___xxtofl@val+3
  2157  0536  3001               	movlw	1
  2158  0537  120A  158A  2074  120A  118A  	fcall	___xxtofl
  2159  053C  1283               	bcf	3,5	;RP0=0, select bank0
  2160  053D  1303               	bcf	3,6	;RP1=0, select bank0
  2161  053E  0827               	movf	?___xxtofl+3,w
  2162  053F  00B5               	movwf	___flsub@a+3
  2163  0540  0826               	movf	?___xxtofl+2,w
  2164  0541  00B4               	movwf	___flsub@a+2
  2165  0542  0825               	movf	?___xxtofl+1,w
  2166  0543  00B3               	movwf	___flsub@a+1
  2167  0544  0824               	movf	?___xxtofl,w
  2168  0545  00B2               	movwf	___flsub@a
  2169  0546  086B               	movf	convert@a+3,w
  2170  0547  00B9               	movwf	___flsub@b+3
  2171  0548  086A               	movf	convert@a+2,w
  2172  0549  00B8               	movwf	___flsub@b+2
  2173  054A  0869               	movf	convert@a+1,w
  2174  054B  00B7               	movwf	___flsub@b+1
  2175  054C  0868               	movf	convert@a,w
  2176  054D  00B6               	movwf	___flsub@b
  2177  054E  160A  118A  25A0  120A  118A  	fcall	___flsub
  2178  0553  1283               	bcf	3,5	;RP0=0, select bank0
  2179  0554  1303               	bcf	3,6	;RP1=0, select bank0
  2180  0555  0835               	movf	?___flsub+3,w
  2181  0556  00EB               	movwf	convert@a+3
  2182  0557  0834               	movf	?___flsub+2,w
  2183  0558  00EA               	movwf	convert@a+2
  2184  0559  0833               	movf	?___flsub+1,w
  2185  055A  00E9               	movwf	convert@a+1
  2186  055B  0832               	movf	?___flsub,w
  2187  055C  00E8               	movwf	convert@a
  2188  055D                     l2693:
  2189                           
  2190                           ;ADCL3.c: 42:          data[i]=0x30+((int)x);
  2191  055D  1683               	bsf	3,5	;RP0=1, select bank1
  2192  055E  1303               	bcf	3,6	;RP1=0, select bank1
  2193  055F  082A               	movf	(convert@x+3)^(0+128),w
  2194  0560  00F3               	movwf	___fltol@f1+3
  2195  0561  0829               	movf	(convert@x+2)^(0+128),w
  2196  0562  00F2               	movwf	___fltol@f1+2
  2197  0563  0828               	movf	(convert@x+1)^(0+128),w
  2198  0564  00F1               	movwf	___fltol@f1+1
  2199  0565  0827               	movf	convert@x^(0+128),w
  2200  0566  00F0               	movwf	___fltol@f1
  2201  0567  120A  118A  2010  120A  118A  	fcall	___fltol
  2202  056C  0870               	movf	?___fltol,w
  2203  056D  3E30               	addlw	48
  2204  056E  1683               	bsf	3,5	;RP0=1, select bank1
  2205  056F  1303               	bcf	3,6	;RP1=0, select bank1
  2206  0570  00A0               	movwf	??_convert^(0+128)
  2207  0571  082B               	movf	convert@i^(0+128),w
  2208  0572  1283               	bcf	3,5	;RP0=0, select bank0
  2209  0573  1303               	bcf	3,6	;RP1=0, select bank0
  2210  0574  0766               	addwf	convert@data,w
  2211  0575  1683               	bsf	3,5	;RP0=1, select bank1
  2212  0576  1303               	bcf	3,6	;RP1=0, select bank1
  2213  0577  00A1               	movwf	(??_convert+1)^(0+128)
  2214  0578  082C               	movf	(convert@i+1)^(0+128),w
  2215  0579  1803               	skipnc
  2216  057A  0A2C               	incf	(convert@i+1)^(0+128),w
  2217  057B  1283               	bcf	3,5	;RP0=0, select bank0
  2218  057C  1303               	bcf	3,6	;RP1=0, select bank0
  2219  057D  0767               	addwf	convert@data+1,w
  2220  057E  1683               	bsf	3,5	;RP0=1, select bank1
  2221  057F  1303               	bcf	3,6	;RP1=0, select bank1
  2222  0580  00A2               	movwf	(??_convert+2)^(0+128)
  2223  0581  0821               	movf	(??_convert+1)^(0+128),w
  2224  0582  0084               	movwf	4
  2225  0583  1783               	bsf	3,7
  2226  0584  1C22               	btfss	(??_convert+2)^(0+128),0
  2227  0585  1383               	bcf	3,7
  2228  0586  0820               	movf	??_convert^(0+128),w
  2229  0587  0080               	movwf	0
  2230  0588                     l2695:
  2231                           
  2232                           ;ADCL3.c: 43:          i++;
  2233  0588  3001               	movlw	1
  2234  0589  07AB               	addwf	convert@i^(0+128),f
  2235  058A  1803               	skipnc
  2236  058B  0AAC               	incf	(convert@i+1)^(0+128),f
  2237  058C  3000               	movlw	0
  2238  058D  07AC               	addwf	(convert@i+1)^(0+128),f
  2239  058E                     l2697:
  2240                           
  2241                           ;ADCL3.c: 44:          digits--;
  2242  058E  30FF               	movlw	255
  2243  058F  07AD               	addwf	convert@digits^(0+128),f
  2244  0590  1803               	skipnc
  2245  0591  0AAE               	incf	(convert@digits+1)^(0+128),f
  2246  0592  30FF               	movlw	255
  2247  0593  07AE               	addwf	(convert@digits+1)^(0+128),f
  2248  0594                     l2699:
  2249                           
  2250                           ;ADCL3.c: 45:          mu=1;
  2251  0594  3001               	movlw	1
  2252  0595  00AF               	movwf	convert@mu^(0+128)
  2253  0596  3000               	movlw	0
  2254  0597  00B0               	movwf	(convert@mu^(0+128)+1)
  2255  0598                     l2701:
  2256                           
  2257                           ;ADCL3.c: 35:      while(digits!=0)
  2258  0598  082D               	movf	convert@digits^(0+128),w
  2259  0599  042E               	iorwf	(convert@digits+1)^(0+128),w
  2260  059A  1D03               	btfss	3,2
  2261  059B  2D9D               	goto	u3681
  2262  059C  2D9E               	goto	u3680
  2263  059D                     u3681:
  2264  059D  2C7C               	goto	l2679
  2265  059E                     u3680:
  2266  059E                     l2703:
  2267                           
  2268                           ;ADCL3.c: 48:      data[i]='.';
  2269  059E  302E               	movlw	46
  2270  059F  00A0               	movwf	??_convert^(0+128)
  2271  05A0  082B               	movf	convert@i^(0+128),w
  2272  05A1  1283               	bcf	3,5	;RP0=0, select bank0
  2273  05A2  1303               	bcf	3,6	;RP1=0, select bank0
  2274  05A3  0766               	addwf	convert@data,w
  2275  05A4  1683               	bsf	3,5	;RP0=1, select bank1
  2276  05A5  1303               	bcf	3,6	;RP1=0, select bank1
  2277  05A6  00A1               	movwf	(??_convert+1)^(0+128)
  2278  05A7  082C               	movf	(convert@i+1)^(0+128),w
  2279  05A8  1803               	skipnc
  2280  05A9  0A2C               	incf	(convert@i+1)^(0+128),w
  2281  05AA  1283               	bcf	3,5	;RP0=0, select bank0
  2282  05AB  1303               	bcf	3,6	;RP1=0, select bank0
  2283  05AC  0767               	addwf	convert@data+1,w
  2284  05AD  1683               	bsf	3,5	;RP0=1, select bank1
  2285  05AE  1303               	bcf	3,6	;RP1=0, select bank1
  2286  05AF  00A2               	movwf	(??_convert+2)^(0+128)
  2287  05B0  0821               	movf	(??_convert+1)^(0+128),w
  2288  05B1  0084               	movwf	4
  2289  05B2  1783               	bsf	3,7
  2290  05B3  1C22               	btfss	(??_convert+2)^(0+128),0
  2291  05B4  1383               	bcf	3,7
  2292  05B5  0820               	movf	??_convert^(0+128),w
  2293  05B6  0080               	movwf	0
  2294  05B7                     l2705:
  2295                           
  2296                           ;ADCL3.c: 49:      i++;
  2297  05B7  3001               	movlw	1
  2298  05B8  07AB               	addwf	convert@i^(0+128),f
  2299  05B9  1803               	skipnc
  2300  05BA  0AAC               	incf	(convert@i+1)^(0+128),f
  2301  05BB  3000               	movlw	0
  2302  05BC  07AC               	addwf	(convert@i+1)^(0+128),f
  2303  05BD                     l2707:
  2304  05BD                     l2709:
  2305                           
  2306                           ;ADCL3.c: 51:      for(j=1;j<=place;j++)mu=mu*10;
  2307  05BD  3001               	movlw	1
  2308  05BE  00A5               	movwf	convert@j^(0+128)
  2309  05BF  3000               	movlw	0
  2310  05C0  00A6               	movwf	(convert@j^(0+128)+1)
  2311  05C1  2DE9               	goto	l2715
  2312  05C2                     l2711:
  2313  05C2  1683               	bsf	3,5	;RP0=1, select bank1
  2314  05C3  1303               	bcf	3,6	;RP1=0, select bank1
  2315  05C4  0830               	movf	(convert@mu+1)^(0+128),w
  2316  05C5  1283               	bcf	3,5	;RP0=0, select bank0
  2317  05C6  1303               	bcf	3,6	;RP1=0, select bank0
  2318  05C7  00A1               	movwf	___wmul@multiplier+1
  2319  05C8  1683               	bsf	3,5	;RP0=1, select bank1
  2320  05C9  1303               	bcf	3,6	;RP1=0, select bank1
  2321  05CA  082F               	movf	convert@mu^(0+128),w
  2322  05CB  1283               	bcf	3,5	;RP0=0, select bank0
  2323  05CC  1303               	bcf	3,6	;RP1=0, select bank0
  2324  05CD  00A0               	movwf	___wmul@multiplier
  2325  05CE  300A               	movlw	10
  2326  05CF  00A2               	movwf	___wmul@multiplicand
  2327  05D0  3000               	movlw	0
  2328  05D1  00A3               	movwf	___wmul@multiplicand+1
  2329  05D2  160A  118A  25EB  120A  118A  	fcall	___wmul
  2330  05D7  1283               	bcf	3,5	;RP0=0, select bank0
  2331  05D8  1303               	bcf	3,6	;RP1=0, select bank0
  2332  05D9  0821               	movf	?___wmul+1,w
  2333  05DA  1683               	bsf	3,5	;RP0=1, select bank1
  2334  05DB  1303               	bcf	3,6	;RP1=0, select bank1
  2335  05DC  00B0               	movwf	(convert@mu+1)^(0+128)
  2336  05DD  1283               	bcf	3,5	;RP0=0, select bank0
  2337  05DE  1303               	bcf	3,6	;RP1=0, select bank0
  2338  05DF  0820               	movf	?___wmul,w
  2339  05E0  1683               	bsf	3,5	;RP0=1, select bank1
  2340  05E1  1303               	bcf	3,6	;RP1=0, select bank1
  2341  05E2  00AF               	movwf	convert@mu^(0+128)
  2342  05E3                     l2713:
  2343  05E3  3001               	movlw	1
  2344  05E4  07A5               	addwf	convert@j^(0+128),f
  2345  05E5  1803               	skipnc
  2346  05E6  0AA6               	incf	(convert@j+1)^(0+128),f
  2347  05E7  3000               	movlw	0
  2348  05E8  07A6               	addwf	(convert@j+1)^(0+128),f
  2349  05E9                     l2715:
  2350  05E9  1283               	bcf	3,5	;RP0=0, select bank0
  2351  05EA  1303               	bcf	3,6	;RP1=0, select bank0
  2352  05EB  086D               	movf	convert@place+1,w
  2353  05EC  3A80               	xorlw	128
  2354  05ED  1683               	bsf	3,5	;RP0=1, select bank1
  2355  05EE  1303               	bcf	3,6	;RP1=0, select bank1
  2356  05EF  00A0               	movwf	??_convert^(0+128)
  2357  05F0  0826               	movf	(convert@j+1)^(0+128),w
  2358  05F1  3A80               	xorlw	128
  2359  05F2  0220               	subwf	??_convert^(0+128),w
  2360  05F3  1D03               	skipz
  2361  05F4  2DF9               	goto	u3695
  2362  05F5  0825               	movf	convert@j^(0+128),w
  2363  05F6  1283               	bcf	3,5	;RP0=0, select bank0
  2364  05F7  1303               	bcf	3,6	;RP1=0, select bank0
  2365  05F8  026C               	subwf	convert@place,w
  2366  05F9                     u3695:
  2367  05F9  1803               	skipnc
  2368  05FA  2DFC               	goto	u3691
  2369  05FB  2DFD               	goto	u3690
  2370  05FC                     u3691:
  2371  05FC  2DC2               	goto	l2711
  2372  05FD                     u3690:
  2373  05FD                     l2717:
  2374                           
  2375                           ;ADCL3.c: 52:      x=(a-(int)a)*mu;
  2376  05FD  1683               	bsf	3,5	;RP0=1, select bank1
  2377  05FE  1303               	bcf	3,6	;RP1=0, select bank1
  2378  05FF  082F               	movf	convert@mu^(0+128),w
  2379  0600  1283               	bcf	3,5	;RP0=0, select bank0
  2380  0601  1303               	bcf	3,6	;RP1=0, select bank0
  2381  0602  00A4               	movwf	___xxtofl@val
  2382  0603  1683               	bsf	3,5	;RP0=1, select bank1
  2383  0604  1303               	bcf	3,6	;RP1=0, select bank1
  2384  0605  0830               	movf	(convert@mu+1)^(0+128),w
  2385  0606  1283               	bcf	3,5	;RP0=0, select bank0
  2386  0607  1303               	bcf	3,6	;RP1=0, select bank0
  2387  0608  00A5               	movwf	___xxtofl@val+1
  2388  0609  3000               	movlw	0
  2389  060A  1BA5               	btfsc	___xxtofl@val+1,7
  2390  060B  30FF               	movlw	255
  2391  060C  00A6               	movwf	___xxtofl@val+2
  2392  060D  00A7               	movwf	___xxtofl@val+3
  2393  060E  3001               	movlw	1
  2394  060F  120A  158A  2074  120A  118A  	fcall	___xxtofl
  2395  0614  1283               	bcf	3,5	;RP0=0, select bank0
  2396  0615  1303               	bcf	3,6	;RP1=0, select bank0
  2397  0616  0827               	movf	?___xxtofl+3,w
  2398  0617  00CF               	movwf	___flmul@b+3
  2399  0618  0826               	movf	?___xxtofl+2,w
  2400  0619  00CE               	movwf	___flmul@b+2
  2401  061A  0825               	movf	?___xxtofl+1,w
  2402  061B  00CD               	movwf	___flmul@b+1
  2403  061C  0824               	movf	?___xxtofl,w
  2404  061D  00CC               	movwf	___flmul@b
  2405  061E  086B               	movf	convert@a+3,w
  2406  061F  00F3               	movwf	___fltol@f1+3
  2407  0620  086A               	movf	convert@a+2,w
  2408  0621  00F2               	movwf	___fltol@f1+2
  2409  0622  0869               	movf	convert@a+1,w
  2410  0623  00F1               	movwf	___fltol@f1+1
  2411  0624  0868               	movf	convert@a,w
  2412  0625  00F0               	movwf	___fltol@f1
  2413  0626  120A  118A  2010  120A  118A  	fcall	___fltol
  2414  062B  0870               	movf	?___fltol,w
  2415  062C  1283               	bcf	3,5	;RP0=0, select bank0
  2416  062D  1303               	bcf	3,6	;RP1=0, select bank0
  2417  062E  00A4               	movwf	___xxtofl@val
  2418  062F  0871               	movf	?___fltol+1,w
  2419  0630  00A5               	movwf	___xxtofl@val+1
  2420  0631  3000               	movlw	0
  2421  0632  1BA5               	btfsc	___xxtofl@val+1,7
  2422  0633  30FF               	movlw	255
  2423  0634  00A6               	movwf	___xxtofl@val+2
  2424  0635  00A7               	movwf	___xxtofl@val+3
  2425  0636  3001               	movlw	1
  2426  0637  120A  158A  2074  120A  118A  	fcall	___xxtofl
  2427  063C  1283               	bcf	3,5	;RP0=0, select bank0
  2428  063D  1303               	bcf	3,6	;RP1=0, select bank0
  2429  063E  0827               	movf	?___xxtofl+3,w
  2430  063F  00B5               	movwf	___flsub@a+3
  2431  0640  0826               	movf	?___xxtofl+2,w
  2432  0641  00B4               	movwf	___flsub@a+2
  2433  0642  0825               	movf	?___xxtofl+1,w
  2434  0643  00B3               	movwf	___flsub@a+1
  2435  0644  0824               	movf	?___xxtofl,w
  2436  0645  00B2               	movwf	___flsub@a
  2437  0646  086B               	movf	convert@a+3,w
  2438  0647  00B9               	movwf	___flsub@b+3
  2439  0648  086A               	movf	convert@a+2,w
  2440  0649  00B8               	movwf	___flsub@b+2
  2441  064A  0869               	movf	convert@a+1,w
  2442  064B  00B7               	movwf	___flsub@b+1
  2443  064C  0868               	movf	convert@a,w
  2444  064D  00B6               	movwf	___flsub@b
  2445  064E  160A  118A  25A0  120A  118A  	fcall	___flsub
  2446  0653  1283               	bcf	3,5	;RP0=0, select bank0
  2447  0654  1303               	bcf	3,6	;RP1=0, select bank0
  2448  0655  0835               	movf	?___flsub+3,w
  2449  0656  00D3               	movwf	___flmul@a+3
  2450  0657  0834               	movf	?___flsub+2,w
  2451  0658  00D2               	movwf	___flmul@a+2
  2452  0659  0833               	movf	?___flsub+1,w
  2453  065A  00D1               	movwf	___flmul@a+1
  2454  065B  0832               	movf	?___flsub,w
  2455  065C  00D0               	movwf	___flmul@a
  2456  065D  120A  118A  208A  120A  118A  	fcall	___flmul
  2457  0662  1283               	bcf	3,5	;RP0=0, select bank0
  2458  0663  1303               	bcf	3,6	;RP1=0, select bank0
  2459  0664  084F               	movf	?___flmul+3,w
  2460  0665  1683               	bsf	3,5	;RP0=1, select bank1
  2461  0666  1303               	bcf	3,6	;RP1=0, select bank1
  2462  0667  00AA               	movwf	(convert@x+3)^(0+128)
  2463  0668  1283               	bcf	3,5	;RP0=0, select bank0
  2464  0669  1303               	bcf	3,6	;RP1=0, select bank0
  2465  066A  084E               	movf	?___flmul+2,w
  2466  066B  1683               	bsf	3,5	;RP0=1, select bank1
  2467  066C  1303               	bcf	3,6	;RP1=0, select bank1
  2468  066D  00A9               	movwf	(convert@x+2)^(0+128)
  2469  066E  1283               	bcf	3,5	;RP0=0, select bank0
  2470  066F  1303               	bcf	3,6	;RP1=0, select bank0
  2471  0670  084D               	movf	?___flmul+1,w
  2472  0671  1683               	bsf	3,5	;RP0=1, select bank1
  2473  0672  1303               	bcf	3,6	;RP1=0, select bank1
  2474  0673  00A8               	movwf	(convert@x+1)^(0+128)
  2475  0674  1283               	bcf	3,5	;RP0=0, select bank0
  2476  0675  1303               	bcf	3,6	;RP1=0, select bank0
  2477  0676  084C               	movf	?___flmul,w
  2478  0677  1683               	bsf	3,5	;RP0=1, select bank1
  2479  0678  1303               	bcf	3,6	;RP1=0, select bank1
  2480  0679  00A7               	movwf	convert@x^(0+128)
  2481  067A                     l2719:
  2482                           
  2483                           ;ADCL3.c: 53:      a=x;
  2484  067A  082A               	movf	(convert@x+3)^(0+128),w
  2485  067B  1283               	bcf	3,5	;RP0=0, select bank0
  2486  067C  1303               	bcf	3,6	;RP1=0, select bank0
  2487  067D  00EB               	movwf	convert@a+3
  2488  067E  1683               	bsf	3,5	;RP0=1, select bank1
  2489  067F  1303               	bcf	3,6	;RP1=0, select bank1
  2490  0680  0829               	movf	(convert@x+2)^(0+128),w
  2491  0681  1283               	bcf	3,5	;RP0=0, select bank0
  2492  0682  1303               	bcf	3,6	;RP1=0, select bank0
  2493  0683  00EA               	movwf	convert@a+2
  2494  0684  1683               	bsf	3,5	;RP0=1, select bank1
  2495  0685  1303               	bcf	3,6	;RP1=0, select bank1
  2496  0686  0828               	movf	(convert@x+1)^(0+128),w
  2497  0687  1283               	bcf	3,5	;RP0=0, select bank0
  2498  0688  1303               	bcf	3,6	;RP1=0, select bank0
  2499  0689  00E9               	movwf	convert@a+1
  2500  068A  1683               	bsf	3,5	;RP0=1, select bank1
  2501  068B  1303               	bcf	3,6	;RP1=0, select bank1
  2502  068C  0827               	movf	convert@x^(0+128),w
  2503  068D  1283               	bcf	3,5	;RP0=0, select bank0
  2504  068E  1303               	bcf	3,6	;RP1=0, select bank0
  2505  068F  00E8               	movwf	convert@a
  2506  0690                     l2721:
  2507  0690  086B               	movf	convert@a+3,w
  2508  0691  00F3               	movwf	___fltol@f1+3
  2509  0692  086A               	movf	convert@a+2,w
  2510  0693  00F2               	movwf	___fltol@f1+2
  2511  0694  0869               	movf	convert@a+1,w
  2512  0695  00F1               	movwf	___fltol@f1+1
  2513  0696  0868               	movf	convert@a,w
  2514  0697  00F0               	movwf	___fltol@f1
  2515  0698  120A  118A  2010  120A  118A  	fcall	___fltol
  2516  069D                     l2723:
  2517  069D                     l2725:
  2518                           
  2519                           ;ADCL3.c: 56:      mu=1;
  2520  069D  3001               	movlw	1
  2521  069E  1683               	bsf	3,5	;RP0=1, select bank1
  2522  069F  1303               	bcf	3,6	;RP1=0, select bank1
  2523  06A0  00AF               	movwf	convert@mu^(0+128)
  2524  06A1  3000               	movlw	0
  2525  06A2  00B0               	movwf	(convert@mu^(0+128)+1)
  2526  06A3                     l2727:
  2527                           
  2528                           ;ADCL3.c: 57:      digits=place;
  2529  06A3  1283               	bcf	3,5	;RP0=0, select bank0
  2530  06A4  1303               	bcf	3,6	;RP1=0, select bank0
  2531  06A5  086D               	movf	convert@place+1,w
  2532  06A6  1683               	bsf	3,5	;RP0=1, select bank1
  2533  06A7  1303               	bcf	3,6	;RP1=0, select bank1
  2534  06A8  00AE               	movwf	(convert@digits+1)^(0+128)
  2535  06A9  1283               	bcf	3,5	;RP0=0, select bank0
  2536  06AA  1303               	bcf	3,6	;RP1=0, select bank0
  2537  06AB  086C               	movf	convert@place,w
  2538  06AC  1683               	bsf	3,5	;RP0=1, select bank1
  2539  06AD  1303               	bcf	3,6	;RP1=0, select bank1
  2540  06AE  00AD               	movwf	convert@digits^(0+128)
  2541                           
  2542                           ;ADCL3.c: 58:      while(digits!=0)
  2543  06AF  2FCC               	goto	l2751
  2544  06B0                     l2729:
  2545                           
  2546                           ;ADCL3.c: 59:      {;ADCL3.c: 60:          if(digits==1)mu=1;
  2547  06B0  032D               	decf	convert@digits^(0+128),w
  2548  06B1  042E               	iorwf	(convert@digits+1)^(0+128),w
  2549  06B2  1D03               	btfss	3,2
  2550  06B3  2EB5               	goto	u3701
  2551  06B4  2EB6               	goto	u3700
  2552  06B5                     u3701:
  2553  06B5  2EBB               	goto	l2733
  2554  06B6                     u3700:
  2555  06B6                     l2731:
  2556  06B6  3001               	movlw	1
  2557  06B7  00AF               	movwf	convert@mu^(0+128)
  2558  06B8  3000               	movlw	0
  2559  06B9  00B0               	movwf	(convert@mu^(0+128)+1)
  2560  06BA  2EF5               	goto	l2741
  2561  06BB                     l2733:
  2562  06BB  3002               	movlw	2
  2563  06BC  00A5               	movwf	convert@j^(0+128)
  2564  06BD  3000               	movlw	0
  2565  06BE  00A6               	movwf	(convert@j^(0+128)+1)
  2566  06BF  2EE7               	goto	l2739
  2567  06C0                     l2735:
  2568  06C0  1683               	bsf	3,5	;RP0=1, select bank1
  2569  06C1  1303               	bcf	3,6	;RP1=0, select bank1
  2570  06C2  0830               	movf	(convert@mu+1)^(0+128),w
  2571  06C3  1283               	bcf	3,5	;RP0=0, select bank0
  2572  06C4  1303               	bcf	3,6	;RP1=0, select bank0
  2573  06C5  00A1               	movwf	___wmul@multiplier+1
  2574  06C6  1683               	bsf	3,5	;RP0=1, select bank1
  2575  06C7  1303               	bcf	3,6	;RP1=0, select bank1
  2576  06C8  082F               	movf	convert@mu^(0+128),w
  2577  06C9  1283               	bcf	3,5	;RP0=0, select bank0
  2578  06CA  1303               	bcf	3,6	;RP1=0, select bank0
  2579  06CB  00A0               	movwf	___wmul@multiplier
  2580  06CC  300A               	movlw	10
  2581  06CD  00A2               	movwf	___wmul@multiplicand
  2582  06CE  3000               	movlw	0
  2583  06CF  00A3               	movwf	___wmul@multiplicand+1
  2584  06D0  160A  118A  25EB  120A  118A  	fcall	___wmul
  2585  06D5  1283               	bcf	3,5	;RP0=0, select bank0
  2586  06D6  1303               	bcf	3,6	;RP1=0, select bank0
  2587  06D7  0821               	movf	?___wmul+1,w
  2588  06D8  1683               	bsf	3,5	;RP0=1, select bank1
  2589  06D9  1303               	bcf	3,6	;RP1=0, select bank1
  2590  06DA  00B0               	movwf	(convert@mu+1)^(0+128)
  2591  06DB  1283               	bcf	3,5	;RP0=0, select bank0
  2592  06DC  1303               	bcf	3,6	;RP1=0, select bank0
  2593  06DD  0820               	movf	?___wmul,w
  2594  06DE  1683               	bsf	3,5	;RP0=1, select bank1
  2595  06DF  1303               	bcf	3,6	;RP1=0, select bank1
  2596  06E0  00AF               	movwf	convert@mu^(0+128)
  2597  06E1                     l2737:
  2598  06E1  3001               	movlw	1
  2599  06E2  07A5               	addwf	convert@j^(0+128),f
  2600  06E3  1803               	skipnc
  2601  06E4  0AA6               	incf	(convert@j+1)^(0+128),f
  2602  06E5  3000               	movlw	0
  2603  06E6  07A6               	addwf	(convert@j+1)^(0+128),f
  2604  06E7                     l2739:
  2605  06E7  082E               	movf	(convert@digits+1)^(0+128),w
  2606  06E8  3A80               	xorlw	128
  2607  06E9  00A0               	movwf	??_convert^(0+128)
  2608  06EA  0826               	movf	(convert@j+1)^(0+128),w
  2609  06EB  3A80               	xorlw	128
  2610  06EC  0220               	subwf	??_convert^(0+128),w
  2611  06ED  1D03               	skipz
  2612  06EE  2EF1               	goto	u3715
  2613  06EF  0825               	movf	convert@j^(0+128),w
  2614  06F0  022D               	subwf	convert@digits^(0+128),w
  2615  06F1                     u3715:
  2616  06F1  1803               	skipnc
  2617  06F2  2EF4               	goto	u3711
  2618  06F3  2EF5               	goto	u3710
  2619  06F4                     u3711:
  2620  06F4  2EC0               	goto	l2735
  2621  06F5                     u3710:
  2622  06F5                     l2741:
  2623                           
  2624                           ;ADCL3.c: 63:          x=a/mu;
  2625  06F5  1683               	bsf	3,5	;RP0=1, select bank1
  2626  06F6  1303               	bcf	3,6	;RP1=0, select bank1
  2627  06F7  082F               	movf	convert@mu^(0+128),w
  2628  06F8  1283               	bcf	3,5	;RP0=0, select bank0
  2629  06F9  1303               	bcf	3,6	;RP1=0, select bank0
  2630  06FA  00A4               	movwf	___xxtofl@val
  2631  06FB  1683               	bsf	3,5	;RP0=1, select bank1
  2632  06FC  1303               	bcf	3,6	;RP1=0, select bank1
  2633  06FD  0830               	movf	(convert@mu+1)^(0+128),w
  2634  06FE  1283               	bcf	3,5	;RP0=0, select bank0
  2635  06FF  1303               	bcf	3,6	;RP1=0, select bank0
  2636  0700  00A5               	movwf	___xxtofl@val+1
  2637  0701  3000               	movlw	0
  2638  0702  1BA5               	btfsc	___xxtofl@val+1,7
  2639  0703  30FF               	movlw	255
  2640  0704  00A6               	movwf	___xxtofl@val+2
  2641  0705  00A7               	movwf	___xxtofl@val+3
  2642  0706  3001               	movlw	1
  2643  0707  120A  158A  2074  120A  118A  	fcall	___xxtofl
  2644  070C  1283               	bcf	3,5	;RP0=0, select bank0
  2645  070D  1303               	bcf	3,6	;RP1=0, select bank0
  2646  070E  0827               	movf	?___xxtofl+3,w
  2647  070F  00B5               	movwf	___fldiv@a+3
  2648  0710  0826               	movf	?___xxtofl+2,w
  2649  0711  00B4               	movwf	___fldiv@a+2
  2650  0712  0825               	movf	?___xxtofl+1,w
  2651  0713  00B3               	movwf	___fldiv@a+1
  2652  0714  0824               	movf	?___xxtofl,w
  2653  0715  00B2               	movwf	___fldiv@a
  2654  0716  086B               	movf	convert@a+3,w
  2655  0717  00B9               	movwf	___fldiv@b+3
  2656  0718  086A               	movf	convert@a+2,w
  2657  0719  00B8               	movwf	___fldiv@b+2
  2658  071A  0869               	movf	convert@a+1,w
  2659  071B  00B7               	movwf	___fldiv@b+1
  2660  071C  0868               	movf	convert@a,w
  2661  071D  00B6               	movwf	___fldiv@b
  2662  071E  120A  158A  2130  120A  118A  	fcall	___fldiv
  2663  0723  1283               	bcf	3,5	;RP0=0, select bank0
  2664  0724  1303               	bcf	3,6	;RP1=0, select bank0
  2665  0725  0835               	movf	?___fldiv+3,w
  2666  0726  1683               	bsf	3,5	;RP0=1, select bank1
  2667  0727  1303               	bcf	3,6	;RP1=0, select bank1
  2668  0728  00AA               	movwf	(convert@x+3)^(0+128)
  2669  0729  1283               	bcf	3,5	;RP0=0, select bank0
  2670  072A  1303               	bcf	3,6	;RP1=0, select bank0
  2671  072B  0834               	movf	?___fldiv+2,w
  2672  072C  1683               	bsf	3,5	;RP0=1, select bank1
  2673  072D  1303               	bcf	3,6	;RP1=0, select bank1
  2674  072E  00A9               	movwf	(convert@x+2)^(0+128)
  2675  072F  1283               	bcf	3,5	;RP0=0, select bank0
  2676  0730  1303               	bcf	3,6	;RP1=0, select bank0
  2677  0731  0833               	movf	?___fldiv+1,w
  2678  0732  1683               	bsf	3,5	;RP0=1, select bank1
  2679  0733  1303               	bcf	3,6	;RP1=0, select bank1
  2680  0734  00A8               	movwf	(convert@x+1)^(0+128)
  2681  0735  1283               	bcf	3,5	;RP0=0, select bank0
  2682  0736  1303               	bcf	3,6	;RP1=0, select bank0
  2683  0737  0832               	movf	?___fldiv,w
  2684  0738  1683               	bsf	3,5	;RP0=1, select bank1
  2685  0739  1303               	bcf	3,6	;RP1=0, select bank1
  2686  073A  00A7               	movwf	convert@x^(0+128)
  2687                           
  2688                           ;ADCL3.c: 64:          a=a-((int)x*mu);
  2689  073B  0830               	movf	(convert@mu+1)^(0+128),w
  2690  073C  1283               	bcf	3,5	;RP0=0, select bank0
  2691  073D  1303               	bcf	3,6	;RP1=0, select bank0
  2692  073E  00A3               	movwf	___wmul@multiplicand+1
  2693  073F  1683               	bsf	3,5	;RP0=1, select bank1
  2694  0740  1303               	bcf	3,6	;RP1=0, select bank1
  2695  0741  082F               	movf	convert@mu^(0+128),w
  2696  0742  1283               	bcf	3,5	;RP0=0, select bank0
  2697  0743  1303               	bcf	3,6	;RP1=0, select bank0
  2698  0744  00A2               	movwf	___wmul@multiplicand
  2699  0745  1683               	bsf	3,5	;RP0=1, select bank1
  2700  0746  1303               	bcf	3,6	;RP1=0, select bank1
  2701  0747  082A               	movf	(convert@x+3)^(0+128),w
  2702  0748  00F3               	movwf	___fltol@f1+3
  2703  0749  0829               	movf	(convert@x+2)^(0+128),w
  2704  074A  00F2               	movwf	___fltol@f1+2
  2705  074B  0828               	movf	(convert@x+1)^(0+128),w
  2706  074C  00F1               	movwf	___fltol@f1+1
  2707  074D  0827               	movf	convert@x^(0+128),w
  2708  074E  00F0               	movwf	___fltol@f1
  2709  074F  120A  118A  2010  120A  118A  	fcall	___fltol
  2710  0754  0871               	movf	?___fltol+1,w
  2711  0755  1283               	bcf	3,5	;RP0=0, select bank0
  2712  0756  1303               	bcf	3,6	;RP1=0, select bank0
  2713  0757  00A1               	movwf	___wmul@multiplier+1
  2714  0758  0870               	movf	?___fltol,w
  2715  0759  00A0               	movwf	___wmul@multiplier
  2716  075A  160A  118A  25EB  120A  118A  	fcall	___wmul
  2717  075F  1283               	bcf	3,5	;RP0=0, select bank0
  2718  0760  1303               	bcf	3,6	;RP1=0, select bank0
  2719  0761  0820               	movf	?___wmul,w
  2720  0762  00A4               	movwf	___xxtofl@val
  2721  0763  0821               	movf	?___wmul+1,w
  2722  0764  00A5               	movwf	___xxtofl@val+1
  2723  0765  3000               	movlw	0
  2724  0766  1BA5               	btfsc	___xxtofl@val+1,7
  2725  0767  30FF               	movlw	255
  2726  0768  00A6               	movwf	___xxtofl@val+2
  2727  0769  00A7               	movwf	___xxtofl@val+3
  2728  076A  3001               	movlw	1
  2729  076B  120A  158A  2074  120A  118A  	fcall	___xxtofl
  2730  0770  1283               	bcf	3,5	;RP0=0, select bank0
  2731  0771  1303               	bcf	3,6	;RP1=0, select bank0
  2732  0772  0827               	movf	?___xxtofl+3,w
  2733  0773  00B5               	movwf	___flsub@a+3
  2734  0774  0826               	movf	?___xxtofl+2,w
  2735  0775  00B4               	movwf	___flsub@a+2
  2736  0776  0825               	movf	?___xxtofl+1,w
  2737  0777  00B3               	movwf	___flsub@a+1
  2738  0778  0824               	movf	?___xxtofl,w
  2739  0779  00B2               	movwf	___flsub@a
  2740  077A  086B               	movf	convert@a+3,w
  2741  077B  00B9               	movwf	___flsub@b+3
  2742  077C  086A               	movf	convert@a+2,w
  2743  077D  00B8               	movwf	___flsub@b+2
  2744  077E  0869               	movf	convert@a+1,w
  2745  077F  00B7               	movwf	___flsub@b+1
  2746  0780  0868               	movf	convert@a,w
  2747  0781  00B6               	movwf	___flsub@b
  2748  0782  160A  118A  25A0  120A  118A  	fcall	___flsub
  2749  0787  1283               	bcf	3,5	;RP0=0, select bank0
  2750  0788  1303               	bcf	3,6	;RP1=0, select bank0
  2751  0789  0835               	movf	?___flsub+3,w
  2752  078A  00EB               	movwf	convert@a+3
  2753  078B  0834               	movf	?___flsub+2,w
  2754  078C  00EA               	movwf	convert@a+2
  2755  078D  0833               	movf	?___flsub+1,w
  2756  078E  00E9               	movwf	convert@a+1
  2757  078F  0832               	movf	?___flsub,w
  2758  0790  00E8               	movwf	convert@a
  2759  0791                     l2743:
  2760                           
  2761                           ;ADCL3.c: 65:          data[i]=0x30+((int)x);
  2762  0791  1683               	bsf	3,5	;RP0=1, select bank1
  2763  0792  1303               	bcf	3,6	;RP1=0, select bank1
  2764  0793  082A               	movf	(convert@x+3)^(0+128),w
  2765  0794  00F3               	movwf	___fltol@f1+3
  2766  0795  0829               	movf	(convert@x+2)^(0+128),w
  2767  0796  00F2               	movwf	___fltol@f1+2
  2768  0797  0828               	movf	(convert@x+1)^(0+128),w
  2769  0798  00F1               	movwf	___fltol@f1+1
  2770  0799  0827               	movf	convert@x^(0+128),w
  2771  079A  00F0               	movwf	___fltol@f1
  2772  079B  120A  118A  2010  120A  118A  	fcall	___fltol
  2773  07A0  0870               	movf	?___fltol,w
  2774  07A1  3E30               	addlw	48
  2775  07A2  1683               	bsf	3,5	;RP0=1, select bank1
  2776  07A3  1303               	bcf	3,6	;RP1=0, select bank1
  2777  07A4  00A0               	movwf	??_convert^(0+128)
  2778  07A5  082B               	movf	convert@i^(0+128),w
  2779  07A6  1283               	bcf	3,5	;RP0=0, select bank0
  2780  07A7  1303               	bcf	3,6	;RP1=0, select bank0
  2781  07A8  0766               	addwf	convert@data,w
  2782  07A9  1683               	bsf	3,5	;RP0=1, select bank1
  2783  07AA  1303               	bcf	3,6	;RP1=0, select bank1
  2784  07AB  00A1               	movwf	(??_convert+1)^(0+128)
  2785  07AC  082C               	movf	(convert@i+1)^(0+128),w
  2786  07AD  1803               	skipnc
  2787  07AE  0A2C               	incf	(convert@i+1)^(0+128),w
  2788  07AF  1283               	bcf	3,5	;RP0=0, select bank0
  2789  07B0  1303               	bcf	3,6	;RP1=0, select bank0
  2790  07B1  0767               	addwf	convert@data+1,w
  2791  07B2  1683               	bsf	3,5	;RP0=1, select bank1
  2792  07B3  1303               	bcf	3,6	;RP1=0, select bank1
  2793  07B4  00A2               	movwf	(??_convert+2)^(0+128)
  2794  07B5  0821               	movf	(??_convert+1)^(0+128),w
  2795  07B6  0084               	movwf	4
  2796  07B7  1783               	bsf	3,7
  2797  07B8  1C22               	btfss	(??_convert+2)^(0+128),0
  2798  07B9  1383               	bcf	3,7
  2799  07BA  0820               	movf	??_convert^(0+128),w
  2800  07BB  0080               	movwf	0
  2801  07BC                     l2745:
  2802                           
  2803                           ;ADCL3.c: 66:          i++;
  2804  07BC  3001               	movlw	1
  2805  07BD  07AB               	addwf	convert@i^(0+128),f
  2806  07BE  1803               	skipnc
  2807  07BF  0AAC               	incf	(convert@i+1)^(0+128),f
  2808  07C0  3000               	movlw	0
  2809  07C1  07AC               	addwf	(convert@i+1)^(0+128),f
  2810  07C2                     l2747:
  2811                           
  2812                           ;ADCL3.c: 67:          digits--;
  2813  07C2  30FF               	movlw	255
  2814  07C3  07AD               	addwf	convert@digits^(0+128),f
  2815  07C4  1803               	skipnc
  2816  07C5  0AAE               	incf	(convert@digits+1)^(0+128),f
  2817  07C6  30FF               	movlw	255
  2818  07C7  07AE               	addwf	(convert@digits+1)^(0+128),f
  2819  07C8                     l2749:
  2820                           
  2821                           ;ADCL3.c: 68:          mu=1;
  2822  07C8  3001               	movlw	1
  2823  07C9  00AF               	movwf	convert@mu^(0+128)
  2824  07CA  3000               	movlw	0
  2825  07CB  00B0               	movwf	(convert@mu^(0+128)+1)
  2826  07CC                     l2751:
  2827                           
  2828                           ;ADCL3.c: 58:      while(digits!=0)
  2829  07CC  082D               	movf	convert@digits^(0+128),w
  2830  07CD  042E               	iorwf	(convert@digits+1)^(0+128),w
  2831  07CE  1D03               	btfss	3,2
  2832  07CF  2FD1               	goto	u3721
  2833  07D0  2FD2               	goto	u3720
  2834  07D1                     u3721:
  2835  07D1  2EB0               	goto	l2729
  2836  07D2                     u3720:
  2837  07D2                     l2753:
  2838                           
  2839                           ;ADCL3.c: 71:     data[i]='\n';
  2840  07D2  300A               	movlw	10
  2841  07D3  00A0               	movwf	??_convert^(0+128)
  2842  07D4  082B               	movf	convert@i^(0+128),w
  2843  07D5  1283               	bcf	3,5	;RP0=0, select bank0
  2844  07D6  1303               	bcf	3,6	;RP1=0, select bank0
  2845  07D7  0766               	addwf	convert@data,w
  2846  07D8  1683               	bsf	3,5	;RP0=1, select bank1
  2847  07D9  1303               	bcf	3,6	;RP1=0, select bank1
  2848  07DA  00A1               	movwf	(??_convert+1)^(0+128)
  2849  07DB  082C               	movf	(convert@i+1)^(0+128),w
  2850  07DC  1803               	skipnc
  2851  07DD  0A2C               	incf	(convert@i+1)^(0+128),w
  2852  07DE  1283               	bcf	3,5	;RP0=0, select bank0
  2853  07DF  1303               	bcf	3,6	;RP1=0, select bank0
  2854  07E0  0767               	addwf	convert@data+1,w
  2855  07E1  1683               	bsf	3,5	;RP0=1, select bank1
  2856  07E2  1303               	bcf	3,6	;RP1=0, select bank1
  2857  07E3  00A2               	movwf	(??_convert+2)^(0+128)
  2858  07E4  0821               	movf	(??_convert+1)^(0+128),w
  2859  07E5  0084               	movwf	4
  2860  07E6  1783               	bsf	3,7
  2861  07E7  1C22               	btfss	(??_convert+2)^(0+128),0
  2862  07E8  1383               	bcf	3,7
  2863  07E9  0820               	movf	??_convert^(0+128),w
  2864  07EA  0080               	movwf	0
  2865  07EB                     l148:
  2866  07EB  0008               	return
  2867  07EC                     __end_of_convert:
  2868                           
  2869                           	psect	text5
  2870  0874                     __ptext5:	
  2871 ;; *************** function ___xxtofl *****************
  2872 ;; Defined at:
  2873 ;;		line 10 in file "C:\Program Files\Microchip\xc8\v2.32\pic\sources\c90\common\xxtofl.c"
  2874 ;; Parameters:    Size  Location     Type
  2875 ;;  sign            1    wreg     unsigned char 
  2876 ;;  val             4    4[BANK0 ] long 
  2877 ;; Auto vars:     Size  Location     Type
  2878 ;;  sign            1   12[BANK0 ] unsigned char 
  2879 ;;  arg             4   14[BANK0 ] unsigned long 
  2880 ;;  exp             1   13[BANK0 ] unsigned char 
  2881 ;; Return value:  Size  Location     Type
  2882 ;;                  4    4[BANK0 ] unsigned char 
  2883 ;; Registers used:
  2884 ;;		wreg, status,2, status,0
  2885 ;; Tracked objects:
  2886 ;;		On entry : 0/0
  2887 ;;		On exit  : 0/0
  2888 ;;		Unchanged: 0/0
  2889 ;; Data sizes:     COMMON   BANK0   BANK1   BANK3   BANK2
  2890 ;;      Params:         0       4       0       0       0
  2891 ;;      Locals:         0       6       0       0       0
  2892 ;;      Temps:          0       4       0       0       0
  2893 ;;      Totals:         0      14       0       0       0
  2894 ;;Total ram usage:       14 bytes
  2895 ;; Hardware stack levels used: 1
  2896 ;; This function calls:
  2897 ;;		Nothing
  2898 ;; This function is called by:
  2899 ;;		_main
  2900 ;;		_convert
  2901 ;; This function uses a non-reentrant model
  2902 ;;
  2903                           
  2904                           
  2905                           ;psect for function ___xxtofl
  2906  0874                     ___xxtofl:
  2907                           
  2908                           ;incstack = 0
  2909                           ; Regs used in ___xxtofl: [wreg+status,2+status,0]
  2910                           ;___xxtofl@sign stored from wreg
  2911  0874  1283               	bcf	3,5	;RP0=0, select bank0
  2912  0875  1303               	bcf	3,6	;RP1=0, select bank0
  2913  0876  00AC               	movwf	___xxtofl@sign
  2914  0877                     l2561:
  2915  0877  082C               	movf	___xxtofl@sign,w
  2916  0878  1903               	btfsc	3,2
  2917  0879  287B               	goto	u3471
  2918  087A  287C               	goto	u3470
  2919  087B                     u3471:
  2920  087B  2890               	goto	l2567
  2921  087C                     u3470:
  2922  087C                     l2563:
  2923  087C  1FA7               	btfss	___xxtofl@val+3,7
  2924  087D  287F               	goto	u3481
  2925  087E  2880               	goto	u3480
  2926  087F                     u3481:
  2927  087F  2890               	goto	l2567
  2928  0880                     u3480:
  2929  0880                     l2565:
  2930  0880  0924               	comf	___xxtofl@val,w
  2931  0881  00AE               	movwf	___xxtofl@arg
  2932  0882  0925               	comf	___xxtofl@val+1,w
  2933  0883  00AF               	movwf	___xxtofl@arg+1
  2934  0884  0926               	comf	___xxtofl@val+2,w
  2935  0885  00B0               	movwf	___xxtofl@arg+2
  2936  0886  0927               	comf	___xxtofl@val+3,w
  2937  0887  00B1               	movwf	___xxtofl@arg+3
  2938  0888  0AAE               	incf	___xxtofl@arg,f
  2939  0889  1903               	skipnz
  2940  088A  0AAF               	incf	___xxtofl@arg+1,f
  2941  088B  1903               	skipnz
  2942  088C  0AB0               	incf	___xxtofl@arg+2,f
  2943  088D  1903               	skipnz
  2944  088E  0AB1               	incf	___xxtofl@arg+3,f
  2945  088F  2898               	goto	l774
  2946  0890                     l2567:
  2947  0890  0827               	movf	___xxtofl@val+3,w
  2948  0891  00B1               	movwf	___xxtofl@arg+3
  2949  0892  0826               	movf	___xxtofl@val+2,w
  2950  0893  00B0               	movwf	___xxtofl@arg+2
  2951  0894  0825               	movf	___xxtofl@val+1,w
  2952  0895  00AF               	movwf	___xxtofl@arg+1
  2953  0896  0824               	movf	___xxtofl@val,w
  2954  0897  00AE               	movwf	___xxtofl@arg
  2955  0898                     l774:
  2956  0898  0827               	movf	___xxtofl@val+3,w
  2957  0899  0426               	iorwf	___xxtofl@val+2,w
  2958  089A  0425               	iorwf	___xxtofl@val+1,w
  2959  089B  0424               	iorwf	___xxtofl@val,w
  2960  089C  1D03               	skipz
  2961  089D  289F               	goto	u3491
  2962  089E  28A0               	goto	u3490
  2963  089F                     u3491:
  2964  089F  28A9               	goto	l2573
  2965  08A0                     u3490:
  2966  08A0                     l2569:
  2967  08A0  3000               	movlw	0
  2968  08A1  00A7               	movwf	?___xxtofl+3
  2969  08A2  3000               	movlw	0
  2970  08A3  00A6               	movwf	?___xxtofl+2
  2971  08A4  3000               	movlw	0
  2972  08A5  00A5               	movwf	?___xxtofl+1
  2973  08A6  3000               	movlw	0
  2974  08A7  00A4               	movwf	?___xxtofl
  2975  08A8  292F               	goto	l776
  2976  08A9                     l2573:
  2977  08A9  3096               	movlw	150
  2978  08AA  00A8               	movwf	??___xxtofl
  2979  08AB  0828               	movf	??___xxtofl,w
  2980  08AC  00AD               	movwf	___xxtofl@exp
  2981  08AD  28BB               	goto	l2577
  2982  08AE                     l2575:
  2983  08AE  3001               	movlw	1
  2984  08AF  00A8               	movwf	??___xxtofl
  2985  08B0  0828               	movf	??___xxtofl,w
  2986  08B1  07AD               	addwf	___xxtofl@exp,f
  2987  08B2  3001               	movlw	1
  2988  08B3                     u3505:
  2989  08B3  1003               	clrc
  2990  08B4  0CB1               	rrf	___xxtofl@arg+3,f
  2991  08B5  0CB0               	rrf	___xxtofl@arg+2,f
  2992  08B6  0CAF               	rrf	___xxtofl@arg+1,f
  2993  08B7  0CAE               	rrf	___xxtofl@arg,f
  2994  08B8  3EFF               	addlw	-1
  2995  08B9  1D03               	skipz
  2996  08BA  28B3               	goto	u3505
  2997  08BB                     l2577:
  2998  08BB  30FE               	movlw	254
  2999  08BC  0531               	andwf	___xxtofl@arg+3,w
  3000  08BD  1D03               	btfss	3,2
  3001  08BE  28C0               	goto	u3511
  3002  08BF  28C1               	goto	u3510
  3003  08C0                     u3511:
  3004  08C0  28AE               	goto	l2575
  3005  08C1                     u3510:
  3006  08C1  28DD               	goto	l780
  3007  08C2                     l2579:
  3008  08C2  3001               	movlw	1
  3009  08C3  00A8               	movwf	??___xxtofl
  3010  08C4  0828               	movf	??___xxtofl,w
  3011  08C5  07AD               	addwf	___xxtofl@exp,f
  3012  08C6                     l2581:
  3013  08C6  3001               	movlw	1
  3014  08C7  07AE               	addwf	___xxtofl@arg,f
  3015  08C8  3000               	movlw	0
  3016  08C9  1803               	skipnc
  3017  08CA  3001               	movlw	1
  3018  08CB  07AF               	addwf	___xxtofl@arg+1,f
  3019  08CC  3000               	movlw	0
  3020  08CD  1803               	skipnc
  3021  08CE  3001               	movlw	1
  3022  08CF  07B0               	addwf	___xxtofl@arg+2,f
  3023  08D0  3000               	movlw	0
  3024  08D1  1803               	skipnc
  3025  08D2  3001               	movlw	1
  3026  08D3  07B1               	addwf	___xxtofl@arg+3,f
  3027  08D4                     l2583:
  3028  08D4  3001               	movlw	1
  3029  08D5                     u3525:
  3030  08D5  1003               	clrc
  3031  08D6  0CB1               	rrf	___xxtofl@arg+3,f
  3032  08D7  0CB0               	rrf	___xxtofl@arg+2,f
  3033  08D8  0CAF               	rrf	___xxtofl@arg+1,f
  3034  08D9  0CAE               	rrf	___xxtofl@arg,f
  3035  08DA  3EFF               	addlw	-1
  3036  08DB  1D03               	skipz
  3037  08DC  28D5               	goto	u3525
  3038  08DD                     l780:
  3039  08DD  30FF               	movlw	255
  3040  08DE  0531               	andwf	___xxtofl@arg+3,w
  3041  08DF  1D03               	btfss	3,2
  3042  08E0  28E2               	goto	u3531
  3043  08E1  28E3               	goto	u3530
  3044  08E2                     u3531:
  3045  08E2  28C2               	goto	l2579
  3046  08E3                     u3530:
  3047  08E3  28EF               	goto	l2587
  3048  08E4                     l2585:
  3049  08E4  3001               	movlw	1
  3050  08E5  02AD               	subwf	___xxtofl@exp,f
  3051  08E6  3001               	movlw	1
  3052  08E7  00A8               	movwf	??___xxtofl
  3053  08E8                     u3545:
  3054  08E8  1003               	clrc
  3055  08E9  0DAE               	rlf	___xxtofl@arg,f
  3056  08EA  0DAF               	rlf	___xxtofl@arg+1,f
  3057  08EB  0DB0               	rlf	___xxtofl@arg+2,f
  3058  08EC  0DB1               	rlf	___xxtofl@arg+3,f
  3059  08ED  0BA8               	decfsz	??___xxtofl,f
  3060  08EE  28E8               	goto	u3545
  3061  08EF                     l2587:
  3062  08EF  1BB0               	btfsc	___xxtofl@arg+2,7
  3063  08F0  28F2               	goto	u3551
  3064  08F1  28F3               	goto	u3550
  3065  08F2                     u3551:
  3066  08F2  28F9               	goto	l787
  3067  08F3                     u3550:
  3068  08F3                     l2589:
  3069  08F3  3002               	movlw	2
  3070  08F4  022D               	subwf	___xxtofl@exp,w
  3071  08F5  1803               	skipnc
  3072  08F6  28F8               	goto	u3561
  3073  08F7  28F9               	goto	u3560
  3074  08F8                     u3561:
  3075  08F8  28E4               	goto	l2585
  3076  08F9                     u3560:
  3077  08F9                     l787:
  3078  08F9  182D               	btfsc	___xxtofl@exp,0
  3079  08FA  28FC               	goto	u3571
  3080  08FB  28FD               	goto	u3570
  3081  08FC                     u3571:
  3082  08FC  2905               	goto	l788
  3083  08FD                     u3570:
  3084  08FD                     l2591:
  3085  08FD  30FF               	movlw	255
  3086  08FE  05AE               	andwf	___xxtofl@arg,f
  3087  08FF  30FF               	movlw	255
  3088  0900  05AF               	andwf	___xxtofl@arg+1,f
  3089  0901  307F               	movlw	127
  3090  0902  05B0               	andwf	___xxtofl@arg+2,f
  3091  0903  30FF               	movlw	255
  3092  0904  05B1               	andwf	___xxtofl@arg+3,f
  3093  0905                     l788:
  3094  0905  1003               	clrc
  3095  0906  0CAD               	rrf	___xxtofl@exp,f
  3096  0907                     l2593:
  3097  0907  082D               	movf	___xxtofl@exp,w
  3098  0908  00A8               	movwf	??___xxtofl
  3099  0909  01A9               	clrf	??___xxtofl+1
  3100  090A  01AA               	clrf	??___xxtofl+2
  3101  090B  01AB               	clrf	??___xxtofl+3
  3102  090C  3018               	movlw	24
  3103  090D                     u3585:
  3104  090D  1003               	clrc
  3105  090E  0DA8               	rlf	??___xxtofl,f
  3106  090F  0DA9               	rlf	??___xxtofl+1,f
  3107  0910  0DAA               	rlf	??___xxtofl+2,f
  3108  0911  0DAB               	rlf	??___xxtofl+3,f
  3109  0912                     u3580:
  3110  0912  3EFF               	addlw	-1
  3111  0913  1D03               	skipz
  3112  0914  290D               	goto	u3585
  3113  0915  0828               	movf	??___xxtofl,w
  3114  0916  04AE               	iorwf	___xxtofl@arg,f
  3115  0917  0829               	movf	??___xxtofl+1,w
  3116  0918  04AF               	iorwf	___xxtofl@arg+1,f
  3117  0919  082A               	movf	??___xxtofl+2,w
  3118  091A  04B0               	iorwf	___xxtofl@arg+2,f
  3119  091B  082B               	movf	??___xxtofl+3,w
  3120  091C  04B1               	iorwf	___xxtofl@arg+3,f
  3121  091D                     l2595:
  3122  091D  082C               	movf	___xxtofl@sign,w
  3123  091E  1903               	btfsc	3,2
  3124  091F  2921               	goto	u3591
  3125  0920  2922               	goto	u3590
  3126  0921                     u3591:
  3127  0921  2927               	goto	l2601
  3128  0922                     u3590:
  3129  0922                     l2597:
  3130  0922  1FA7               	btfss	___xxtofl@val+3,7
  3131  0923  2925               	goto	u3601
  3132  0924  2926               	goto	u3600
  3133  0925                     u3601:
  3134  0925  2927               	goto	l2601
  3135  0926                     u3600:
  3136  0926                     l2599:
  3137  0926  17B1               	bsf	___xxtofl@arg+3,7
  3138  0927                     l2601:
  3139  0927  0831               	movf	___xxtofl@arg+3,w
  3140  0928  00A7               	movwf	?___xxtofl+3
  3141  0929  0830               	movf	___xxtofl@arg+2,w
  3142  092A  00A6               	movwf	?___xxtofl+2
  3143  092B  082F               	movf	___xxtofl@arg+1,w
  3144  092C  00A5               	movwf	?___xxtofl+1
  3145  092D  082E               	movf	___xxtofl@arg,w
  3146  092E  00A4               	movwf	?___xxtofl
  3147  092F                     l776:
  3148  092F  0008               	return
  3149  0930                     __end_of___xxtofl:
  3150                           
  3151                           	psect	text6
  3152  15EB                     __ptext6:	
  3153 ;; *************** function ___wmul *****************
  3154 ;; Defined at:
  3155 ;;		line 15 in file "C:\Program Files\Microchip\xc8\v2.32\pic\sources\c90\common\Umul16.c"
  3156 ;; Parameters:    Size  Location     Type
  3157 ;;  multiplier      2    0[BANK0 ] unsigned int 
  3158 ;;  multiplicand    2    2[BANK0 ] unsigned int 
  3159 ;; Auto vars:     Size  Location     Type
  3160 ;;  product         2   11[COMMON] unsigned int 
  3161 ;; Return value:  Size  Location     Type
  3162 ;;                  2    0[BANK0 ] unsigned int 
  3163 ;; Registers used:
  3164 ;;		wreg, status,2, status,0
  3165 ;; Tracked objects:
  3166 ;;		On entry : 0/0
  3167 ;;		On exit  : 0/0
  3168 ;;		Unchanged: 0/0
  3169 ;; Data sizes:     COMMON   BANK0   BANK1   BANK3   BANK2
  3170 ;;      Params:         0       4       0       0       0
  3171 ;;      Locals:         2       0       0       0       0
  3172 ;;      Temps:          0       0       0       0       0
  3173 ;;      Totals:         2       4       0       0       0
  3174 ;;Total ram usage:        6 bytes
  3175 ;; Hardware stack levels used: 1
  3176 ;; This function calls:
  3177 ;;		Nothing
  3178 ;; This function is called by:
  3179 ;;		_convert
  3180 ;; This function uses a non-reentrant model
  3181 ;;
  3182                           
  3183                           
  3184                           ;psect for function ___wmul
  3185  15EB                     ___wmul:
  3186  15EB                     l2135:	
  3187                           ;incstack = 0
  3188                           ; Regs used in ___wmul: [wreg+status,2+status,0]
  3189                           
  3190  15EB  01FB               	clrf	___wmul@product
  3191  15EC  01FC               	clrf	___wmul@product+1
  3192  15ED                     l2137:
  3193  15ED  1283               	bcf	3,5	;RP0=0, select bank0
  3194  15EE  1303               	bcf	3,6	;RP1=0, select bank0
  3195  15EF  1C20               	btfss	___wmul@multiplier,0
  3196  15F0  2DF2               	goto	u2431
  3197  15F1  2DF3               	goto	u2430
  3198  15F2                     u2431:
  3199  15F2  2DF9               	goto	l341
  3200  15F3                     u2430:
  3201  15F3                     l2139:
  3202  15F3  0822               	movf	___wmul@multiplicand,w
  3203  15F4  07FB               	addwf	___wmul@product,f
  3204  15F5  1803               	skipnc
  3205  15F6  0AFC               	incf	___wmul@product+1,f
  3206  15F7  0823               	movf	___wmul@multiplicand+1,w
  3207  15F8  07FC               	addwf	___wmul@product+1,f
  3208  15F9                     l341:
  3209  15F9  3001               	movlw	1
  3210  15FA                     u2445:
  3211  15FA  1003               	clrc
  3212  15FB  0DA2               	rlf	___wmul@multiplicand,f
  3213  15FC  0DA3               	rlf	___wmul@multiplicand+1,f
  3214  15FD  3EFF               	addlw	-1
  3215  15FE  1D03               	skipz
  3216  15FF  2DFA               	goto	u2445
  3217  1600                     l2141:
  3218  1600  3001               	movlw	1
  3219  1601                     u2455:
  3220  1601  1003               	clrc
  3221  1602  0CA1               	rrf	___wmul@multiplier+1,f
  3222  1603  0CA0               	rrf	___wmul@multiplier,f
  3223  1604  3EFF               	addlw	-1
  3224  1605  1D03               	skipz
  3225  1606  2E01               	goto	u2455
  3226  1607                     l2143:
  3227  1607  0820               	movf	___wmul@multiplier,w
  3228  1608  0421               	iorwf	___wmul@multiplier+1,w
  3229  1609  1D03               	btfss	3,2
  3230  160A  2E0C               	goto	u2461
  3231  160B  2E0D               	goto	u2460
  3232  160C                     u2461:
  3233  160C  2DED               	goto	l2137
  3234  160D                     u2460:
  3235  160D                     l2145:
  3236  160D  087C               	movf	___wmul@product+1,w
  3237  160E  00A1               	movwf	?___wmul+1
  3238  160F  087B               	movf	___wmul@product,w
  3239  1610  00A0               	movwf	?___wmul
  3240  1611                     l343:
  3241  1611  0008               	return
  3242  1612                     __end_of___wmul:
  3243                           
  3244                           	psect	text7
  3245  0010                     __ptext7:	
  3246 ;; *************** function ___fltol *****************
  3247 ;; Defined at:
  3248 ;;		line 43 in file "C:\Program Files\Microchip\xc8\v2.32\pic\sources\c90\common\fltol.c"
  3249 ;; Parameters:    Size  Location     Type
  3250 ;;  f1              4    0[COMMON] unsigned int 
  3251 ;; Auto vars:     Size  Location     Type
  3252 ;;  exp1            1   10[COMMON] unsigned char 
  3253 ;;  sign1           1    9[COMMON] unsigned char 
  3254 ;; Return value:  Size  Location     Type
  3255 ;;                  4    0[COMMON] long 
  3256 ;; Registers used:
  3257 ;;		wreg, status,2, status,0
  3258 ;; Tracked objects:
  3259 ;;		On entry : 0/0
  3260 ;;		On exit  : 0/0
  3261 ;;		Unchanged: 0/0
  3262 ;; Data sizes:     COMMON   BANK0   BANK1   BANK3   BANK2
  3263 ;;      Params:         4       0       0       0       0
  3264 ;;      Locals:         2       0       0       0       0
  3265 ;;      Temps:          5       0       0       0       0
  3266 ;;      Totals:        11       0       0       0       0
  3267 ;;Total ram usage:       11 bytes
  3268 ;; Hardware stack levels used: 1
  3269 ;; This function calls:
  3270 ;;		Nothing
  3271 ;; This function is called by:
  3272 ;;		_convert
  3273 ;; This function uses a non-reentrant model
  3274 ;;
  3275                           
  3276                           
  3277                           ;psect for function ___fltol
  3278  0010                     ___fltol:
  3279  0010                     l2237:	
  3280                           ;incstack = 0
  3281                           ; Regs used in ___fltol: [wreg+status,2+status,0]
  3282                           
  3283  0010  1003               	clrc
  3284  0011  0D72               	rlf	___fltol@f1+2,w
  3285  0012  0D73               	rlf	___fltol@f1+3,w
  3286  0013  00F4               	movwf	??___fltol
  3287  0014  0874               	movf	??___fltol,w
  3288  0015  00FA               	movwf	___fltol@exp1
  3289  0016  087A               	movf	___fltol@exp1,w
  3290  0017  1D03               	btfss	3,2
  3291  0018  281A               	goto	u2711
  3292  0019  281B               	goto	u2710
  3293  001A                     u2711:
  3294  001A  2824               	goto	l2243
  3295  001B                     u2710:
  3296  001B                     l2239:
  3297  001B  3000               	movlw	0
  3298  001C  00F3               	movwf	?___fltol+3
  3299  001D  3000               	movlw	0
  3300  001E  00F2               	movwf	?___fltol+2
  3301  001F  3000               	movlw	0
  3302  0020  00F1               	movwf	?___fltol+1
  3303  0021  3000               	movlw	0
  3304  0022  00F0               	movwf	?___fltol
  3305  0023  2889               	goto	l527
  3306  0024                     l2243:
  3307  0024  0870               	movf	___fltol@f1,w
  3308  0025  00F4               	movwf	??___fltol
  3309  0026  0871               	movf	___fltol@f1+1,w
  3310  0027  00F5               	movwf	??___fltol+1
  3311  0028  0872               	movf	___fltol@f1+2,w
  3312  0029  00F6               	movwf	??___fltol+2
  3313  002A  0873               	movf	___fltol@f1+3,w
  3314  002B  00F7               	movwf	??___fltol+3
  3315  002C  301F               	movlw	31
  3316  002D                     u2725:
  3317  002D  1003               	clrc
  3318  002E  0CF7               	rrf	??___fltol+3,f
  3319  002F  0CF6               	rrf	??___fltol+2,f
  3320  0030  0CF5               	rrf	??___fltol+1,f
  3321  0031  0CF4               	rrf	??___fltol,f
  3322  0032                     u2720:
  3323  0032  3EFF               	addlw	-1
  3324  0033  1D03               	skipz
  3325  0034  282D               	goto	u2725
  3326  0035  0874               	movf	??___fltol,w
  3327  0036  00F8               	movwf	??___fltol+4
  3328  0037  0878               	movf	??___fltol+4,w
  3329  0038  00F9               	movwf	___fltol@sign1
  3330  0039                     l2245:
  3331  0039  17F2               	bsf	___fltol@f1+2,7
  3332  003A                     l2247:
  3333  003A  30FF               	movlw	255
  3334  003B  05F0               	andwf	___fltol@f1,f
  3335  003C  30FF               	movlw	255
  3336  003D  05F1               	andwf	___fltol@f1+1,f
  3337  003E  30FF               	movlw	255
  3338  003F  05F2               	andwf	___fltol@f1+2,f
  3339  0040  3000               	movlw	0
  3340  0041  05F3               	andwf	___fltol@f1+3,f
  3341  0042                     l2249:
  3342  0042  3096               	movlw	150
  3343  0043  02FA               	subwf	___fltol@exp1,f
  3344  0044                     l2251:
  3345  0044  1FFA               	btfss	___fltol@exp1,7
  3346  0045  2847               	goto	u2731
  3347  0046  2848               	goto	u2730
  3348  0047                     u2731:
  3349  0047  2862               	goto	l2261
  3350  0048                     u2730:
  3351  0048                     l2253:
  3352  0048  087A               	movf	___fltol@exp1,w
  3353  0049  3A80               	xorlw	128
  3354  004A  3E97               	addlw	151
  3355  004B  1803               	skipnc
  3356  004C  284E               	goto	u2741
  3357  004D  284F               	goto	u2740
  3358  004E                     u2741:
  3359  004E  2850               	goto	l2259
  3360  004F                     u2740:
  3361  004F  281B               	goto	l2239
  3362  0050                     l2259:
  3363  0050  3001               	movlw	1
  3364  0051                     u2755:
  3365  0051  1003               	clrc
  3366  0052  0CF3               	rrf	___fltol@f1+3,f
  3367  0053  0CF2               	rrf	___fltol@f1+2,f
  3368  0054  0CF1               	rrf	___fltol@f1+1,f
  3369  0055  0CF0               	rrf	___fltol@f1,f
  3370  0056  3EFF               	addlw	-1
  3371  0057  1D03               	skipz
  3372  0058  2851               	goto	u2755
  3373  0059  3001               	movlw	1
  3374  005A  00F4               	movwf	??___fltol
  3375  005B  0874               	movf	??___fltol,w
  3376  005C  07FA               	addwf	___fltol@exp1,f
  3377  005D  1D03               	btfss	3,2
  3378  005E  2860               	goto	u2761
  3379  005F  2861               	goto	u2760
  3380  0060                     u2761:
  3381  0060  2850               	goto	l2259
  3382  0061                     u2760:
  3383  0061  2879               	goto	l2269
  3384  0062                     l2261:
  3385  0062  3020               	movlw	32
  3386  0063  027A               	subwf	___fltol@exp1,w
  3387  0064  1C03               	skipc
  3388  0065  2867               	goto	u2771
  3389  0066  2868               	goto	u2770
  3390  0067                     u2771:
  3391  0067  2874               	goto	l534
  3392  0068                     u2770:
  3393  0068  281B               	goto	l2239
  3394  0069                     l2267:
  3395  0069  3001               	movlw	1
  3396  006A  00F4               	movwf	??___fltol
  3397  006B                     u2785:
  3398  006B  1003               	clrc
  3399  006C  0DF0               	rlf	___fltol@f1,f
  3400  006D  0DF1               	rlf	___fltol@f1+1,f
  3401  006E  0DF2               	rlf	___fltol@f1+2,f
  3402  006F  0DF3               	rlf	___fltol@f1+3,f
  3403  0070  0BF4               	decfsz	??___fltol,f
  3404  0071  286B               	goto	u2785
  3405  0072  3001               	movlw	1
  3406  0073  02FA               	subwf	___fltol@exp1,f
  3407  0074                     l534:
  3408  0074  087A               	movf	___fltol@exp1,w
  3409  0075  1D03               	btfss	3,2
  3410  0076  2878               	goto	u2791
  3411  0077  2879               	goto	u2790
  3412  0078                     u2791:
  3413  0078  2869               	goto	l2267
  3414  0079                     u2790:
  3415  0079                     l2269:
  3416  0079  0879               	movf	___fltol@sign1,w
  3417  007A  1903               	btfsc	3,2
  3418  007B  287D               	goto	u2801
  3419  007C  287E               	goto	u2800
  3420  007D                     u2801:
  3421  007D  2889               	goto	l537
  3422  007E                     u2800:
  3423  007E                     l2271:
  3424  007E  09F0               	comf	___fltol@f1,f
  3425  007F  09F1               	comf	___fltol@f1+1,f
  3426  0080  09F2               	comf	___fltol@f1+2,f
  3427  0081  09F3               	comf	___fltol@f1+3,f
  3428  0082  0AF0               	incf	___fltol@f1,f
  3429  0083  1903               	skipnz
  3430  0084  0AF1               	incf	___fltol@f1+1,f
  3431  0085  1903               	skipnz
  3432  0086  0AF2               	incf	___fltol@f1+2,f
  3433  0087  1903               	skipnz
  3434  0088  0AF3               	incf	___fltol@f1+3,f
  3435  0089                     l537:
  3436  0089                     l527:
  3437  0089  0008               	return
  3438  008A                     __end_of___fltol:
  3439                           
  3440                           	psect	text8
  3441  15A0                     __ptext8:	
  3442 ;; *************** function ___flsub *****************
  3443 ;; Defined at:
  3444 ;;		line 242 in file "C:\Program Files\Microchip\xc8\v2.32\pic\sources\c90\common\sprcadd.c"
  3445 ;; Parameters:    Size  Location     Type
  3446 ;;  a               4   18[BANK0 ] long 
  3447 ;;  b               4   22[BANK0 ] long 
  3448 ;; Auto vars:     Size  Location     Type
  3449 ;;		None
  3450 ;; Return value:  Size  Location     Type
  3451 ;;                  4   18[BANK0 ] long 
  3452 ;; Registers used:
  3453 ;;		wreg, status,2, status,0, btemp+1, pclath, cstack
  3454 ;; Tracked objects:
  3455 ;;		On entry : 0/0
  3456 ;;		On exit  : 0/0
  3457 ;;		Unchanged: 0/0
  3458 ;; Data sizes:     COMMON   BANK0   BANK1   BANK3   BANK2
  3459 ;;      Params:         0       8       0       0       0
  3460 ;;      Locals:         0       0       0       0       0
  3461 ;;      Temps:          0       0       0       0       0
  3462 ;;      Totals:         0       8       0       0       0
  3463 ;;Total ram usage:        8 bytes
  3464 ;; Hardware stack levels used: 1
  3465 ;; Hardware stack levels required when called: 1
  3466 ;; This function calls:
  3467 ;;		___fladd
  3468 ;; This function is called by:
  3469 ;;		_convert
  3470 ;; This function uses a non-reentrant model
  3471 ;;
  3472                           
  3473                           
  3474                           ;psect for function ___flsub
  3475  15A0                     ___flsub:
  3476  15A0                     l2273:	
  3477                           ;incstack = 0
  3478                           ; Regs used in ___flsub: [wreg+status,2+status,0+btemp+1+pclath+cstack]
  3479                           
  3480  15A0  3080               	movlw	128
  3481  15A1  1283               	bcf	3,5	;RP0=0, select bank0
  3482  15A2  1303               	bcf	3,6	;RP1=0, select bank0
  3483  15A3  06B5               	xorwf	___flsub@a+3,f
  3484  15A4                     l2275:
  3485  15A4  0839               	movf	___flsub@b+3,w
  3486  15A5  00F3               	movwf	___fladd@b+3
  3487  15A6  0838               	movf	___flsub@b+2,w
  3488  15A7  00F2               	movwf	___fladd@b+2
  3489  15A8  0837               	movf	___flsub@b+1,w
  3490  15A9  00F1               	movwf	___fladd@b+1
  3491  15AA  0836               	movf	___flsub@b,w
  3492  15AB  00F0               	movwf	___fladd@b
  3493  15AC  0835               	movf	___flsub@a+3,w
  3494  15AD  00F7               	movwf	___fladd@a+3
  3495  15AE  0834               	movf	___flsub@a+2,w
  3496  15AF  00F6               	movwf	___fladd@a+2
  3497  15B0  0833               	movf	___flsub@a+1,w
  3498  15B1  00F5               	movwf	___fladd@a+1
  3499  15B2  0832               	movf	___flsub@a,w
  3500  15B3  00F4               	movwf	___fladd@a
  3501  15B4  120A  158A  2568  160A  118A  	fcall	___fladd
  3502  15B9  0873               	movf	?___fladd+3,w
  3503  15BA  1283               	bcf	3,5	;RP0=0, select bank0
  3504  15BB  1303               	bcf	3,6	;RP1=0, select bank0
  3505  15BC  00B5               	movwf	?___flsub+3
  3506  15BD  0872               	movf	?___fladd+2,w
  3507  15BE  00B4               	movwf	?___flsub+2
  3508  15BF  0871               	movf	?___fladd+1,w
  3509  15C0  00B3               	movwf	?___flsub+1
  3510  15C1  0870               	movf	?___fladd,w
  3511  15C2  00B2               	movwf	?___flsub
  3512  15C3                     l680:
  3513  15C3  0008               	return
  3514  15C4                     __end_of___flsub:
  3515                           
  3516                           	psect	text9
  3517  0D68                     __ptext9:	
  3518 ;; *************** function ___fladd *****************
  3519 ;; Defined at:
  3520 ;;		line 10 in file "C:\Program Files\Microchip\xc8\v2.32\pic\sources\c90\common\sprcadd.c"
  3521 ;; Parameters:    Size  Location     Type
  3522 ;;  b               4    0[COMMON] long 
  3523 ;;  a               4    4[COMMON] long 
  3524 ;; Auto vars:     Size  Location     Type
  3525 ;;  grs             1   11[COMMON] unsigned char 
  3526 ;;  bexp            1   10[COMMON] unsigned char 
  3527 ;;  aexp            1    9[COMMON] unsigned char 
  3528 ;;  signs           1    8[COMMON] unsigned char 
  3529 ;; Return value:  Size  Location     Type
  3530 ;;                  4    0[COMMON] unsigned char 
  3531 ;; Registers used:
  3532 ;;		wreg, status,2, status,0, btemp+1
  3533 ;; Tracked objects:
  3534 ;;		On entry : 0/0
  3535 ;;		On exit  : 0/0
  3536 ;;		Unchanged: 0/0
  3537 ;; Data sizes:     COMMON   BANK0   BANK1   BANK3   BANK2
  3538 ;;      Params:         8       0       0       0       0
  3539 ;;      Locals:         4       0       0       0       0
  3540 ;;      Temps:          0       8       0       0       0
  3541 ;;      Totals:        12       8       0       0       0
  3542 ;;Total ram usage:       20 bytes
  3543 ;; Hardware stack levels used: 1
  3544 ;; This function calls:
  3545 ;;		Nothing
  3546 ;; This function is called by:
  3547 ;;		___flsub
  3548 ;; This function uses a non-reentrant model
  3549 ;;
  3550                           
  3551                           
  3552                           ;psect for function ___fladd
  3553  0D68                     ___fladd:
  3554  0D68                     l1885:	
  3555                           ;incstack = 0
  3556                           ; Regs used in ___fladd: [wreg+status,2+status,0+btemp+1]
  3557                           
  3558  0D68  0873               	movf	___fladd@b+3,w
  3559  0D69  3980               	andlw	128
  3560  0D6A  1283               	bcf	3,5	;RP0=0, select bank0
  3561  0D6B  1303               	bcf	3,6	;RP1=0, select bank0
  3562  0D6C  00A0               	movwf	??___fladd
  3563  0D6D  0820               	movf	??___fladd,w
  3564  0D6E  00F8               	movwf	___fladd@signs
  3565  0D6F                     l1887:
  3566  0D6F  0873               	movf	___fladd@b+3,w
  3567  0D70  00A0               	movwf	??___fladd
  3568  0D71  0720               	addwf	??___fladd,w
  3569  0D72  00A1               	movwf	??___fladd+1
  3570  0D73  0821               	movf	??___fladd+1,w
  3571  0D74  00FA               	movwf	___fladd@bexp
  3572  0D75                     l1889:
  3573  0D75  1FF2               	btfss	___fladd@b+2,7
  3574  0D76  2D78               	goto	u1911
  3575  0D77  2D79               	goto	u1910
  3576  0D78                     u1911:
  3577  0D78  2D7A               	goto	l1893
  3578  0D79                     u1910:
  3579  0D79                     l1891:
  3580  0D79  147A               	bsf	___fladd@bexp,0
  3581  0D7A                     l1893:
  3582  0D7A  087A               	movf	___fladd@bexp,w
  3583  0D7B  1903               	btfsc	3,2
  3584  0D7C  2D7E               	goto	u1921
  3585  0D7D  2D7F               	goto	u1920
  3586  0D7E                     u1921:
  3587  0D7E  2D8F               	goto	l1903
  3588  0D7F                     u1920:
  3589  0D7F                     l1895:
  3590  0D7F  0A7A               	incf	___fladd@bexp,w
  3591  0D80  1D03               	btfss	3,2
  3592  0D81  2D83               	goto	u1931
  3593  0D82  2D84               	goto	u1930
  3594  0D83                     u1931:
  3595  0D83  2D8C               	goto	l1899
  3596  0D84                     u1930:
  3597  0D84                     l1897:
  3598  0D84  3000               	movlw	0
  3599  0D85  00F3               	movwf	___fladd@b+3
  3600  0D86  3000               	movlw	0
  3601  0D87  00F2               	movwf	___fladd@b+2
  3602  0D88  3000               	movlw	0
  3603  0D89  00F1               	movwf	___fladd@b+1
  3604  0D8A  3000               	movlw	0
  3605  0D8B  00F0               	movwf	___fladd@b
  3606  0D8C                     l1899:
  3607  0D8C  17F2               	bsf	___fladd@b+2,7
  3608  0D8D                     l1901:
  3609  0D8D  01F3               	clrf	___fladd@b+3
  3610  0D8E  2D97               	goto	l1905
  3611  0D8F                     l1903:
  3612  0D8F  3000               	movlw	0
  3613  0D90  00F3               	movwf	___fladd@b+3
  3614  0D91  3000               	movlw	0
  3615  0D92  00F2               	movwf	___fladd@b+2
  3616  0D93  3000               	movlw	0
  3617  0D94  00F1               	movwf	___fladd@b+1
  3618  0D95  3000               	movlw	0
  3619  0D96  00F0               	movwf	___fladd@b
  3620  0D97                     l1905:
  3621  0D97  0877               	movf	___fladd@a+3,w
  3622  0D98  3980               	andlw	128
  3623  0D99  00A0               	movwf	??___fladd
  3624  0D9A  0820               	movf	??___fladd,w
  3625  0D9B  00F9               	movwf	___fladd@aexp
  3626  0D9C                     l1907:
  3627  0D9C  0879               	movf	___fladd@aexp,w
  3628  0D9D  0678               	xorwf	___fladd@signs,w
  3629  0D9E  1903               	skipnz
  3630  0D9F  2DA1               	goto	u1941
  3631  0DA0  2DA2               	goto	u1940
  3632  0DA1                     u1941:
  3633  0DA1  2DA3               	goto	l1911
  3634  0DA2                     u1940:
  3635  0DA2                     l1909:
  3636  0DA2  1778               	bsf	___fladd@signs,6
  3637  0DA3                     l1911:
  3638  0DA3  0877               	movf	___fladd@a+3,w
  3639  0DA4  00A0               	movwf	??___fladd
  3640  0DA5  0720               	addwf	??___fladd,w
  3641  0DA6  00A1               	movwf	??___fladd+1
  3642  0DA7  0821               	movf	??___fladd+1,w
  3643  0DA8  00F9               	movwf	___fladd@aexp
  3644  0DA9                     l1913:
  3645  0DA9  1FF6               	btfss	___fladd@a+2,7
  3646  0DAA  2DAC               	goto	u1951
  3647  0DAB  2DAD               	goto	u1950
  3648  0DAC                     u1951:
  3649  0DAC  2DAE               	goto	l1917
  3650  0DAD                     u1950:
  3651  0DAD                     l1915:
  3652  0DAD  1479               	bsf	___fladd@aexp,0
  3653  0DAE                     l1917:
  3654  0DAE  0879               	movf	___fladd@aexp,w
  3655  0DAF  1903               	btfsc	3,2
  3656  0DB0  2DB2               	goto	u1961
  3657  0DB1  2DB3               	goto	u1960
  3658  0DB2                     u1961:
  3659  0DB2  2DC3               	goto	l1927
  3660  0DB3                     u1960:
  3661  0DB3                     l1919:
  3662  0DB3  0A79               	incf	___fladd@aexp,w
  3663  0DB4  1D03               	btfss	3,2
  3664  0DB5  2DB7               	goto	u1971
  3665  0DB6  2DB8               	goto	u1970
  3666  0DB7                     u1971:
  3667  0DB7  2DC0               	goto	l1923
  3668  0DB8                     u1970:
  3669  0DB8                     l1921:
  3670  0DB8  3000               	movlw	0
  3671  0DB9  00F7               	movwf	___fladd@a+3
  3672  0DBA  3000               	movlw	0
  3673  0DBB  00F6               	movwf	___fladd@a+2
  3674  0DBC  3000               	movlw	0
  3675  0DBD  00F5               	movwf	___fladd@a+1
  3676  0DBE  3000               	movlw	0
  3677  0DBF  00F4               	movwf	___fladd@a
  3678  0DC0                     l1923:
  3679  0DC0  17F6               	bsf	___fladd@a+2,7
  3680  0DC1                     l1925:
  3681  0DC1  01F7               	clrf	___fladd@a+3
  3682  0DC2  2DCB               	goto	l634
  3683  0DC3                     l1927:
  3684  0DC3  3000               	movlw	0
  3685  0DC4  00F7               	movwf	___fladd@a+3
  3686  0DC5  3000               	movlw	0
  3687  0DC6  00F6               	movwf	___fladd@a+2
  3688  0DC7  3000               	movlw	0
  3689  0DC8  00F5               	movwf	___fladd@a+1
  3690  0DC9  3000               	movlw	0
  3691  0DCA  00F4               	movwf	___fladd@a
  3692  0DCB                     l634:
  3693  0DCB  087A               	movf	___fladd@bexp,w
  3694  0DCC  0279               	subwf	___fladd@aexp,w
  3695  0DCD  1803               	skipnc
  3696  0DCE  2DD0               	goto	u1981
  3697  0DCF  2DD1               	goto	u1980
  3698  0DD0                     u1981:
  3699  0DD0  2E15               	goto	l1963
  3700  0DD1                     u1980:
  3701  0DD1                     l1929:
  3702  0DD1  1F78               	btfss	___fladd@signs,6
  3703  0DD2  2DD4               	goto	u1991
  3704  0DD3  2DD5               	goto	u1990
  3705  0DD4                     u1991:
  3706  0DD4  2DD9               	goto	l1933
  3707  0DD5                     u1990:
  3708  0DD5                     l1931:
  3709  0DD5  3080               	movlw	128
  3710  0DD6  00A0               	movwf	??___fladd
  3711  0DD7  0820               	movf	??___fladd,w
  3712  0DD8  06F8               	xorwf	___fladd@signs,f
  3713  0DD9                     l1933:
  3714  0DD9  087A               	movf	___fladd@bexp,w
  3715  0DDA  00A0               	movwf	??___fladd
  3716  0DDB  0820               	movf	??___fladd,w
  3717  0DDC  00FB               	movwf	___fladd@grs
  3718  0DDD                     l1935:
  3719  0DDD  0879               	movf	___fladd@aexp,w
  3720  0DDE  00A0               	movwf	??___fladd
  3721  0DDF  0820               	movf	??___fladd,w
  3722  0DE0  00FA               	movwf	___fladd@bexp
  3723  0DE1                     l1937:
  3724  0DE1  087B               	movf	___fladd@grs,w
  3725  0DE2  00A0               	movwf	??___fladd
  3726  0DE3  0820               	movf	??___fladd,w
  3727  0DE4  00F9               	movwf	___fladd@aexp
  3728  0DE5                     l1939:
  3729  0DE5  0870               	movf	___fladd@b,w
  3730  0DE6  00A0               	movwf	??___fladd
  3731  0DE7  0820               	movf	??___fladd,w
  3732  0DE8  00FB               	movwf	___fladd@grs
  3733  0DE9                     l1941:
  3734  0DE9  0874               	movf	___fladd@a,w
  3735  0DEA  00A0               	movwf	??___fladd
  3736  0DEB  0820               	movf	??___fladd,w
  3737  0DEC  00F0               	movwf	___fladd@b
  3738  0DED                     l1943:
  3739  0DED  087B               	movf	___fladd@grs,w
  3740  0DEE  00A0               	movwf	??___fladd
  3741  0DEF  0820               	movf	??___fladd,w
  3742  0DF0  00F4               	movwf	___fladd@a
  3743  0DF1                     l1945:
  3744  0DF1  0871               	movf	___fladd@b+1,w
  3745  0DF2  00A0               	movwf	??___fladd
  3746  0DF3  0820               	movf	??___fladd,w
  3747  0DF4  00FB               	movwf	___fladd@grs
  3748  0DF5                     l1947:
  3749  0DF5  0875               	movf	___fladd@a+1,w
  3750  0DF6  00A0               	movwf	??___fladd
  3751  0DF7  0820               	movf	??___fladd,w
  3752  0DF8  00F1               	movwf	___fladd@b+1
  3753  0DF9                     l1949:
  3754  0DF9  087B               	movf	___fladd@grs,w
  3755  0DFA  00A0               	movwf	??___fladd
  3756  0DFB  0820               	movf	??___fladd,w
  3757  0DFC  00F5               	movwf	___fladd@a+1
  3758  0DFD                     l1951:
  3759  0DFD  0872               	movf	___fladd@b+2,w
  3760  0DFE  00A0               	movwf	??___fladd
  3761  0DFF  0820               	movf	??___fladd,w
  3762  0E00  00FB               	movwf	___fladd@grs
  3763  0E01                     l1953:
  3764  0E01  0876               	movf	___fladd@a+2,w
  3765  0E02  00A0               	movwf	??___fladd
  3766  0E03  0820               	movf	??___fladd,w
  3767  0E04  00F2               	movwf	___fladd@b+2
  3768  0E05                     l1955:
  3769  0E05  087B               	movf	___fladd@grs,w
  3770  0E06  00A0               	movwf	??___fladd
  3771  0E07  0820               	movf	??___fladd,w
  3772  0E08  00F6               	movwf	___fladd@a+2
  3773  0E09                     l1957:
  3774  0E09  0873               	movf	___fladd@b+3,w
  3775  0E0A  00A0               	movwf	??___fladd
  3776  0E0B  0820               	movf	??___fladd,w
  3777  0E0C  00FB               	movwf	___fladd@grs
  3778  0E0D                     l1959:
  3779  0E0D  0877               	movf	___fladd@a+3,w
  3780  0E0E  00A0               	movwf	??___fladd
  3781  0E0F  0820               	movf	??___fladd,w
  3782  0E10  00F3               	movwf	___fladd@b+3
  3783  0E11                     l1961:
  3784  0E11  087B               	movf	___fladd@grs,w
  3785  0E12  00A0               	movwf	??___fladd
  3786  0E13  0820               	movf	??___fladd,w
  3787  0E14  00F7               	movwf	___fladd@a+3
  3788  0E15                     l1963:
  3789  0E15  01FB               	clrf	___fladd@grs
  3790  0E16                     l1965:
  3791  0E16  0879               	movf	___fladd@aexp,w
  3792  0E17  00A0               	movwf	??___fladd
  3793  0E18  01A1               	clrf	??___fladd+1
  3794  0E19  0821               	movf	??___fladd+1,w
  3795  0E1A  00A3               	movwf	??___fladd+3
  3796  0E1B  087A               	movf	___fladd@bexp,w
  3797  0E1C  0220               	subwf	??___fladd,w
  3798  0E1D  00A2               	movwf	??___fladd+2
  3799  0E1E  1C03               	skipc
  3800  0E1F  03A3               	decf	??___fladd+3,f
  3801  0E20  0823               	movf	??___fladd+3,w
  3802  0E21  3A80               	xorlw	128
  3803  0E22  00FF               	movwf	btemp+1
  3804  0E23  3080               	movlw	128
  3805  0E24  027F               	subwf	btemp+1,w
  3806  0E25  1D03               	skipz
  3807  0E26  2E29               	goto	u2005
  3808  0E27  301A               	movlw	26
  3809  0E28  0222               	subwf	??___fladd+2,w
  3810  0E29                     u2005:
  3811  0E29  1C03               	skipc
  3812  0E2A  2E2C               	goto	u2001
  3813  0E2B  2E2D               	goto	u2000
  3814  0E2C                     u2001:
  3815  0E2C  2E6E               	goto	l1981
  3816  0E2D                     u2000:
  3817  0E2D                     l1967:
  3818  0E2D  0873               	movf	___fladd@b+3,w
  3819  0E2E  0472               	iorwf	___fladd@b+2,w
  3820  0E2F  0471               	iorwf	___fladd@b+1,w
  3821  0E30  0470               	iorwf	___fladd@b,w
  3822  0E31  1D03               	skipz
  3823  0E32  2E34               	goto	u2011
  3824  0E33  2E36               	goto	u2010
  3825  0E34                     u2011:
  3826  0E34  3001               	movlw	1
  3827  0E35  2E37               	goto	u2020
  3828  0E36                     u2010:
  3829  0E36  3000               	movlw	0
  3830  0E37                     u2020:
  3831  0E37  1283               	bcf	3,5	;RP0=0, select bank0
  3832  0E38  1303               	bcf	3,6	;RP1=0, select bank0
  3833  0E39  00A0               	movwf	??___fladd
  3834  0E3A  0820               	movf	??___fladd,w
  3835  0E3B  00FB               	movwf	___fladd@grs
  3836  0E3C  3000               	movlw	0
  3837  0E3D  00F3               	movwf	___fladd@b+3
  3838  0E3E  3000               	movlw	0
  3839  0E3F  00F2               	movwf	___fladd@b+2
  3840  0E40  3000               	movlw	0
  3841  0E41  00F1               	movwf	___fladd@b+1
  3842  0E42  3000               	movlw	0
  3843  0E43  00F0               	movwf	___fladd@b
  3844  0E44  0879               	movf	___fladd@aexp,w
  3845  0E45  00A0               	movwf	??___fladd
  3846  0E46  0820               	movf	??___fladd,w
  3847  0E47  00FA               	movwf	___fladd@bexp
  3848  0E48  2E74               	goto	l638
  3849  0E49                     l640:
  3850  0E49  1C7B               	btfss	___fladd@grs,0
  3851  0E4A  2E4C               	goto	u2031
  3852  0E4B  2E4D               	goto	u2030
  3853  0E4C                     u2031:
  3854  0E4C  2E58               	goto	l1971
  3855  0E4D                     u2030:
  3856  0E4D                     l1969:
  3857  0E4D  087B               	movf	___fladd@grs,w
  3858  0E4E  1283               	bcf	3,5	;RP0=0, select bank0
  3859  0E4F  1303               	bcf	3,6	;RP1=0, select bank0
  3860  0E50  00A0               	movwf	??___fladd
  3861  0E51  1003               	clrc
  3862  0E52  0C20               	rrf	??___fladd,w
  3863  0E53  3801               	iorlw	1
  3864  0E54  00A1               	movwf	??___fladd+1
  3865  0E55  0821               	movf	??___fladd+1,w
  3866  0E56  00FB               	movwf	___fladd@grs
  3867  0E57  2E5A               	goto	l1973
  3868  0E58                     l1971:
  3869  0E58  1003               	clrc
  3870  0E59  0CFB               	rrf	___fladd@grs,f
  3871  0E5A                     l1973:
  3872  0E5A  1C70               	btfss	___fladd@b,0
  3873  0E5B  2E5D               	goto	u2041
  3874  0E5C  2E5E               	goto	u2040
  3875  0E5D                     u2041:
  3876  0E5D  2E5F               	goto	l1977
  3877  0E5E                     u2040:
  3878  0E5E                     l1975:
  3879  0E5E  17FB               	bsf	___fladd@grs,7
  3880  0E5F                     l1977:
  3881  0E5F  3001               	movlw	1
  3882  0E60  1283               	bcf	3,5	;RP0=0, select bank0
  3883  0E61  1303               	bcf	3,6	;RP1=0, select bank0
  3884  0E62  00A0               	movwf	??___fladd
  3885  0E63                     u2055:
  3886  0E63  0D73               	rlf	___fladd@b+3,w
  3887  0E64  0CF3               	rrf	___fladd@b+3,f
  3888  0E65  0CF2               	rrf	___fladd@b+2,f
  3889  0E66  0CF1               	rrf	___fladd@b+1,f
  3890  0E67  0CF0               	rrf	___fladd@b,f
  3891  0E68  0BA0               	decfsz	??___fladd& (0+127),f
  3892  0E69  2E63               	goto	u2055
  3893  0E6A                     l1979:
  3894  0E6A  3001               	movlw	1
  3895  0E6B  00A0               	movwf	??___fladd
  3896  0E6C  0820               	movf	??___fladd,w
  3897  0E6D  07FA               	addwf	___fladd@bexp,f
  3898  0E6E                     l1981:
  3899  0E6E  0879               	movf	___fladd@aexp,w
  3900  0E6F  027A               	subwf	___fladd@bexp,w
  3901  0E70  1C03               	skipc
  3902  0E71  2E73               	goto	u2061
  3903  0E72  2E74               	goto	u2060
  3904  0E73                     u2061:
  3905  0E73  2E49               	goto	l640
  3906  0E74                     u2060:
  3907  0E74                     l638:
  3908  0E74  1B78               	btfsc	___fladd@signs,6
  3909  0E75  2E77               	goto	u2071
  3910  0E76  2E78               	goto	u2070
  3911  0E77                     u2071:
  3912  0E77  2EC7               	goto	l2007
  3913  0E78                     u2070:
  3914  0E78                     l1983:
  3915  0E78  087A               	movf	___fladd@bexp,w
  3916  0E79  1D03               	btfss	3,2
  3917  0E7A  2E7C               	goto	u2081
  3918  0E7B  2E7D               	goto	u2080
  3919  0E7C                     u2081:
  3920  0E7C  2E86               	goto	l1989
  3921  0E7D                     u2080:
  3922  0E7D                     l1985:
  3923  0E7D  3000               	movlw	0
  3924  0E7E  00F3               	movwf	?___fladd+3
  3925  0E7F  3000               	movlw	0
  3926  0E80  00F2               	movwf	?___fladd+2
  3927  0E81  3000               	movlw	0
  3928  0E82  00F1               	movwf	?___fladd+1
  3929  0E83  3000               	movlw	0
  3930  0E84  00F0               	movwf	?___fladd
  3931  0E85  2FFF               	goto	l647
  3932  0E86                     l1989:
  3933  0E86  0874               	movf	___fladd@a,w
  3934  0E87  07F0               	addwf	___fladd@b,f
  3935  0E88  0875               	movf	___fladd@a+1,w
  3936  0E89  1103               	clrz
  3937  0E8A  1803               	skipnc
  3938  0E8B  3E01               	addlw	1
  3939  0E8C  1903               	skipnz
  3940  0E8D  2E8F               	goto	u2091
  3941  0E8E  07F1               	addwf	___fladd@b+1,f
  3942  0E8F                     u2091:
  3943  0E8F  0876               	movf	___fladd@a+2,w
  3944  0E90  1103               	clrz
  3945  0E91  1803               	skipnc
  3946  0E92  3E01               	addlw	1
  3947  0E93  1903               	skipnz
  3948  0E94  2E96               	goto	u2092
  3949  0E95  07F2               	addwf	___fladd@b+2,f
  3950  0E96                     u2092:
  3951  0E96  0877               	movf	___fladd@a+3,w
  3952  0E97  1103               	clrz
  3953  0E98  1803               	skipnc
  3954  0E99  3E01               	addlw	1
  3955  0E9A  1903               	skipnz
  3956  0E9B  2E9D               	goto	u2093
  3957  0E9C  07F3               	addwf	___fladd@b+3,f
  3958  0E9D                     u2093:
  3959  0E9D                     l1991:
  3960  0E9D  1C73               	btfss	___fladd@b+3,0
  3961  0E9E  2EA0               	goto	u2101
  3962  0E9F  2EA1               	goto	u2100
  3963  0EA0                     u2101:
  3964  0EA0  2F7F               	goto	l2041
  3965  0EA1                     u2100:
  3966  0EA1                     l1993:
  3967  0EA1  1C7B               	btfss	___fladd@grs,0
  3968  0EA2  2EA4               	goto	u2111
  3969  0EA3  2EA5               	goto	u2110
  3970  0EA4                     u2111:
  3971  0EA4  2EB0               	goto	l1997
  3972  0EA5                     u2110:
  3973  0EA5                     l1995:
  3974  0EA5  087B               	movf	___fladd@grs,w
  3975  0EA6  1283               	bcf	3,5	;RP0=0, select bank0
  3976  0EA7  1303               	bcf	3,6	;RP1=0, select bank0
  3977  0EA8  00A0               	movwf	??___fladd
  3978  0EA9  1003               	clrc
  3979  0EAA  0C20               	rrf	??___fladd,w
  3980  0EAB  3801               	iorlw	1
  3981  0EAC  00A1               	movwf	??___fladd+1
  3982  0EAD  0821               	movf	??___fladd+1,w
  3983  0EAE  00FB               	movwf	___fladd@grs
  3984  0EAF  2EB2               	goto	l1999
  3985  0EB0                     l1997:
  3986  0EB0  1003               	clrc
  3987  0EB1  0CFB               	rrf	___fladd@grs,f
  3988  0EB2                     l1999:
  3989  0EB2  1C70               	btfss	___fladd@b,0
  3990  0EB3  2EB5               	goto	u2121
  3991  0EB4  2EB6               	goto	u2120
  3992  0EB5                     u2121:
  3993  0EB5  2EB7               	goto	l2003
  3994  0EB6                     u2120:
  3995  0EB6                     l2001:
  3996  0EB6  17FB               	bsf	___fladd@grs,7
  3997  0EB7                     l2003:
  3998  0EB7  3001               	movlw	1
  3999  0EB8  1283               	bcf	3,5	;RP0=0, select bank0
  4000  0EB9  1303               	bcf	3,6	;RP1=0, select bank0
  4001  0EBA  00A0               	movwf	??___fladd
  4002  0EBB                     u2135:
  4003  0EBB  0D73               	rlf	___fladd@b+3,w
  4004  0EBC  0CF3               	rrf	___fladd@b+3,f
  4005  0EBD  0CF2               	rrf	___fladd@b+2,f
  4006  0EBE  0CF1               	rrf	___fladd@b+1,f
  4007  0EBF  0CF0               	rrf	___fladd@b,f
  4008  0EC0  0BA0               	decfsz	??___fladd& (0+127),f
  4009  0EC1  2EBB               	goto	u2135
  4010  0EC2                     l2005:
  4011  0EC2  3001               	movlw	1
  4012  0EC3  00A0               	movwf	??___fladd
  4013  0EC4  0820               	movf	??___fladd,w
  4014  0EC5  07FA               	addwf	___fladd@bexp,f
  4015  0EC6  2F7F               	goto	l2041
  4016  0EC7                     l2007:
  4017  0EC7  0873               	movf	___fladd@b+3,w
  4018  0EC8  3A80               	xorlw	128
  4019  0EC9  00FF               	movwf	btemp+1
  4020  0ECA  0877               	movf	___fladd@a+3,w
  4021  0ECB  3A80               	xorlw	128
  4022  0ECC  027F               	subwf	btemp+1,w
  4023  0ECD  1D03               	skipz
  4024  0ECE  2ED9               	goto	u2143
  4025  0ECF  0876               	movf	___fladd@a+2,w
  4026  0ED0  0272               	subwf	___fladd@b+2,w
  4027  0ED1  1D03               	skipz
  4028  0ED2  2ED9               	goto	u2143
  4029  0ED3  0875               	movf	___fladd@a+1,w
  4030  0ED4  0271               	subwf	___fladd@b+1,w
  4031  0ED5  1D03               	skipz
  4032  0ED6  2ED9               	goto	u2143
  4033  0ED7  0874               	movf	___fladd@a,w
  4034  0ED8  0270               	subwf	___fladd@b,w
  4035  0ED9                     u2143:
  4036  0ED9  1803               	skipnc
  4037  0EDA  2EDC               	goto	u2141
  4038  0EDB  2EDD               	goto	u2140
  4039  0EDC                     u2141:
  4040  0EDC  2F37               	goto	l2017
  4041  0EDD                     u2140:
  4042  0EDD                     l2009:
  4043  0EDD  30FF               	movlw	255
  4044  0EDE  1283               	bcf	3,5	;RP0=0, select bank0
  4045  0EDF  1303               	bcf	3,6	;RP1=0, select bank0
  4046  0EE0  00A0               	movwf	??___fladd
  4047  0EE1  30FF               	movlw	255
  4048  0EE2  00A1               	movwf	??___fladd+1
  4049  0EE3  30FF               	movlw	255
  4050  0EE4  00A2               	movwf	??___fladd+2
  4051  0EE5  30FF               	movlw	255
  4052  0EE6  00A3               	movwf	??___fladd+3
  4053  0EE7  0874               	movf	___fladd@a,w
  4054  0EE8  00A4               	movwf	??___fladd+4
  4055  0EE9  0875               	movf	___fladd@a+1,w
  4056  0EEA  00A5               	movwf	??___fladd+5
  4057  0EEB  0876               	movf	___fladd@a+2,w
  4058  0EEC  00A6               	movwf	??___fladd+6
  4059  0EED  0877               	movf	___fladd@a+3,w
  4060  0EEE  00A7               	movwf	??___fladd+7
  4061  0EEF  0870               	movf	___fladd@b,w
  4062  0EF0  02A4               	subwf	??___fladd+4,f
  4063  0EF1  0871               	movf	___fladd@b+1,w
  4064  0EF2  1C03               	skipc
  4065  0EF3  0F71               	incfsz	___fladd@b+1,w
  4066  0EF4  2EF6               	goto	u2151
  4067  0EF5  2EF7               	goto	u2152
  4068  0EF6                     u2151:
  4069  0EF6  02A5               	subwf	??___fladd+5,f
  4070  0EF7                     u2152:
  4071  0EF7  0872               	movf	___fladd@b+2,w
  4072  0EF8  1C03               	skipc
  4073  0EF9  0F72               	incfsz	___fladd@b+2,w
  4074  0EFA  2EFC               	goto	u2153
  4075  0EFB  2EFD               	goto	u2154
  4076  0EFC                     u2153:
  4077  0EFC  02A6               	subwf	??___fladd+6,f
  4078  0EFD                     u2154:
  4079  0EFD  0873               	movf	___fladd@b+3,w
  4080  0EFE  1C03               	skipc
  4081  0EFF  0F73               	incfsz	___fladd@b+3,w
  4082  0F00  2F02               	goto	u2155
  4083  0F01  2F03               	goto	u2156
  4084  0F02                     u2155:
  4085  0F02  02A7               	subwf	??___fladd+7,f
  4086  0F03                     u2156:
  4087  0F03  0824               	movf	??___fladd+4,w
  4088  0F04  07A0               	addwf	??___fladd,f
  4089  0F05  0825               	movf	??___fladd+5,w
  4090  0F06  1803               	skipnc
  4091  0F07  0F25               	incfsz	??___fladd+5,w
  4092  0F08  2F0A               	goto	u2160
  4093  0F09  2F0B               	goto	u2161
  4094  0F0A                     u2160:
  4095  0F0A  07A1               	addwf	??___fladd+1,f
  4096  0F0B                     u2161:
  4097  0F0B  0826               	movf	??___fladd+6,w
  4098  0F0C  1803               	skipnc
  4099  0F0D  0F26               	incfsz	??___fladd+6,w
  4100  0F0E  2F10               	goto	u2162
  4101  0F0F  2F11               	goto	u2163
  4102  0F10                     u2162:
  4103  0F10  07A2               	addwf	??___fladd+2,f
  4104  0F11                     u2163:
  4105  0F11  0827               	movf	??___fladd+7,w
  4106  0F12  1803               	skipnc
  4107  0F13  0A27               	incf	??___fladd+7,w
  4108  0F14  07A3               	addwf	??___fladd+3,f
  4109  0F15  0823               	movf	??___fladd+3,w
  4110  0F16  00F3               	movwf	___fladd@b+3
  4111  0F17  0822               	movf	??___fladd+2,w
  4112  0F18  00F2               	movwf	___fladd@b+2
  4113  0F19  0821               	movf	??___fladd+1,w
  4114  0F1A  00F1               	movwf	___fladd@b+1
  4115  0F1B  0820               	movf	??___fladd,w
  4116  0F1C  00F0               	movwf	___fladd@b
  4117  0F1D                     l2011:
  4118  0F1D  3080               	movlw	128
  4119  0F1E  00A0               	movwf	??___fladd
  4120  0F1F  0820               	movf	??___fladd,w
  4121  0F20  06F8               	xorwf	___fladd@signs,f
  4122  0F21  09FB               	comf	___fladd@grs,f
  4123  0F22  0AFB               	incf	___fladd@grs,f
  4124  0F23                     l2013:
  4125  0F23  087B               	movf	___fladd@grs,w
  4126  0F24  1D03               	btfss	3,2
  4127  0F25  2F27               	goto	u2171
  4128  0F26  2F28               	goto	u2170
  4129  0F27                     u2171:
  4130  0F27  2F45               	goto	l655
  4131  0F28                     u2170:
  4132  0F28                     l2015:
  4133  0F28  3001               	movlw	1
  4134  0F29  07F0               	addwf	___fladd@b,f
  4135  0F2A  3000               	movlw	0
  4136  0F2B  1803               	skipnc
  4137  0F2C  3001               	movlw	1
  4138  0F2D  07F1               	addwf	___fladd@b+1,f
  4139  0F2E  3000               	movlw	0
  4140  0F2F  1803               	skipnc
  4141  0F30  3001               	movlw	1
  4142  0F31  07F2               	addwf	___fladd@b+2,f
  4143  0F32  3000               	movlw	0
  4144  0F33  1803               	skipnc
  4145  0F34  3001               	movlw	1
  4146  0F35  07F3               	addwf	___fladd@b+3,f
  4147  0F36  2F45               	goto	l655
  4148  0F37                     l2017:
  4149  0F37  0874               	movf	___fladd@a,w
  4150  0F38  02F0               	subwf	___fladd@b,f
  4151  0F39  0875               	movf	___fladd@a+1,w
  4152  0F3A  1C03               	skipc
  4153  0F3B  0F75               	incfsz	___fladd@a+1,w
  4154  0F3C  02F1               	subwf	___fladd@b+1,f
  4155  0F3D  0876               	movf	___fladd@a+2,w
  4156  0F3E  1C03               	skipc
  4157  0F3F  0F76               	incfsz	___fladd@a+2,w
  4158  0F40  02F2               	subwf	___fladd@b+2,f
  4159  0F41  0877               	movf	___fladd@a+3,w
  4160  0F42  1C03               	skipc
  4161  0F43  0F77               	incfsz	___fladd@a+3,w
  4162  0F44  02F3               	subwf	___fladd@b+3,f
  4163  0F45                     l655:
  4164  0F45  0873               	movf	___fladd@b+3,w
  4165  0F46  0472               	iorwf	___fladd@b+2,w
  4166  0F47  0471               	iorwf	___fladd@b+1,w
  4167  0F48  0470               	iorwf	___fladd@b,w
  4168  0F49  1D03               	skipz
  4169  0F4A  2F4C               	goto	u2181
  4170  0F4B  2F4D               	goto	u2180
  4171  0F4C                     u2181:
  4172  0F4C  2F7B               	goto	l2039
  4173  0F4D                     u2180:
  4174  0F4D                     l2019:
  4175  0F4D  087B               	movf	___fladd@grs,w
  4176  0F4E  1D03               	btfss	3,2
  4177  0F4F  2F51               	goto	u2191
  4178  0F50  2F52               	goto	u2190
  4179  0F51                     u2191:
  4180  0F51  2F7B               	goto	l2039
  4181  0F52                     u2190:
  4182  0F52                     l2021:
  4183  0F52  3000               	movlw	0
  4184  0F53  00F3               	movwf	?___fladd+3
  4185  0F54  3000               	movlw	0
  4186  0F55  00F2               	movwf	?___fladd+2
  4187  0F56  3000               	movlw	0
  4188  0F57  00F1               	movwf	?___fladd+1
  4189  0F58  3000               	movlw	0
  4190  0F59  00F0               	movwf	?___fladd
  4191  0F5A  2FFF               	goto	l647
  4192  0F5B                     l2025:
  4193  0F5B  3001               	movlw	1
  4194  0F5C  1283               	bcf	3,5	;RP0=0, select bank0
  4195  0F5D  1303               	bcf	3,6	;RP1=0, select bank0
  4196  0F5E  00A0               	movwf	??___fladd
  4197  0F5F                     u2205:
  4198  0F5F  1003               	clrc
  4199  0F60  0DF0               	rlf	___fladd@b,f
  4200  0F61  0DF1               	rlf	___fladd@b+1,f
  4201  0F62  0DF2               	rlf	___fladd@b+2,f
  4202  0F63  0DF3               	rlf	___fladd@b+3,f
  4203  0F64  0BA0               	decfsz	??___fladd,f
  4204  0F65  2F5F               	goto	u2205
  4205  0F66                     l2027:
  4206  0F66  1FFB               	btfss	___fladd@grs,7
  4207  0F67  2F69               	goto	u2211
  4208  0F68  2F6A               	goto	u2210
  4209  0F69                     u2211:
  4210  0F69  2F6B               	goto	l659
  4211  0F6A                     u2210:
  4212  0F6A                     l2029:
  4213  0F6A  1470               	bsf	___fladd@b,0
  4214  0F6B                     l659:
  4215  0F6B  1C7B               	btfss	___fladd@grs,0
  4216  0F6C  2F6E               	goto	u2221
  4217  0F6D  2F6F               	goto	u2220
  4218  0F6E                     u2221:
  4219  0F6E  2F72               	goto	l2033
  4220  0F6F                     u2220:
  4221  0F6F                     l2031:
  4222  0F6F  1403               	setc
  4223  0F70  0DFB               	rlf	___fladd@grs,f
  4224  0F71  2F74               	goto	l2035
  4225  0F72                     l2033:
  4226  0F72  1003               	clrc
  4227  0F73  0DFB               	rlf	___fladd@grs,f
  4228  0F74                     l2035:
  4229  0F74  087A               	movf	___fladd@bexp,w
  4230  0F75  1903               	btfsc	3,2
  4231  0F76  2F78               	goto	u2231
  4232  0F77  2F79               	goto	u2230
  4233  0F78                     u2231:
  4234  0F78  2F7B               	goto	l2039
  4235  0F79                     u2230:
  4236  0F79                     l2037:
  4237  0F79  3001               	movlw	1
  4238  0F7A  02FA               	subwf	___fladd@bexp,f
  4239  0F7B                     l2039:
  4240  0F7B  1FF2               	btfss	___fladd@b+2,7
  4241  0F7C  2F7E               	goto	u2241
  4242  0F7D  2F7F               	goto	u2240
  4243  0F7E                     u2241:
  4244  0F7E  2F5B               	goto	l2025
  4245  0F7F                     u2240:
  4246  0F7F                     l2041:
  4247  0F7F  01F9               	clrf	___fladd@aexp
  4248  0F80                     l2043:
  4249  0F80  1FFB               	btfss	___fladd@grs,7
  4250  0F81  2F83               	goto	u2251
  4251  0F82  2F84               	goto	u2250
  4252  0F83                     u2251:
  4253  0F83  2F92               	goto	l2051
  4254  0F84                     u2250:
  4255  0F84                     l2045:
  4256  0F84  087B               	movf	___fladd@grs,w
  4257  0F85  397F               	andlw	127
  4258  0F86  1903               	btfsc	3,2
  4259  0F87  2F89               	goto	u2261
  4260  0F88  2F8A               	goto	u2260
  4261  0F89                     u2261:
  4262  0F89  2F8D               	goto	l665
  4263  0F8A                     u2260:
  4264  0F8A                     l2047:
  4265  0F8A  01F9               	clrf	___fladd@aexp
  4266  0F8B  0AF9               	incf	___fladd@aexp,f
  4267  0F8C  2F92               	goto	l2051
  4268  0F8D                     l665:
  4269  0F8D  1C70               	btfss	___fladd@b,0
  4270  0F8E  2F90               	goto	u2271
  4271  0F8F  2F91               	goto	u2270
  4272  0F90                     u2271:
  4273  0F90  2F92               	goto	l2051
  4274  0F91                     u2270:
  4275  0F91  2F8A               	goto	l2047
  4276  0F92                     l2051:
  4277  0F92  0879               	movf	___fladd@aexp,w
  4278  0F93  1903               	btfsc	3,2
  4279  0F94  2F96               	goto	u2281
  4280  0F95  2F97               	goto	u2280
  4281  0F96                     u2281:
  4282  0F96  2FCD               	goto	l668
  4283  0F97                     u2280:
  4284  0F97                     l2053:
  4285  0F97  3001               	movlw	1
  4286  0F98  07F0               	addwf	___fladd@b,f
  4287  0F99  3000               	movlw	0
  4288  0F9A  1803               	skipnc
  4289  0F9B  3001               	movlw	1
  4290  0F9C  07F1               	addwf	___fladd@b+1,f
  4291  0F9D  3000               	movlw	0
  4292  0F9E  1803               	skipnc
  4293  0F9F  3001               	movlw	1
  4294  0FA0  07F2               	addwf	___fladd@b+2,f
  4295  0FA1  3000               	movlw	0
  4296  0FA2  1803               	skipnc
  4297  0FA3  3001               	movlw	1
  4298  0FA4  07F3               	addwf	___fladd@b+3,f
  4299  0FA5                     l2055:
  4300  0FA5  1C73               	btfss	___fladd@b+3,0
  4301  0FA6  2FA8               	goto	u2291
  4302  0FA7  2FA9               	goto	u2290
  4303  0FA8                     u2291:
  4304  0FA8  2FCD               	goto	l668
  4305  0FA9                     u2290:
  4306  0FA9                     l2057:
  4307  0FA9  0870               	movf	___fladd@b,w
  4308  0FAA  1283               	bcf	3,5	;RP0=0, select bank0
  4309  0FAB  1303               	bcf	3,6	;RP1=0, select bank0
  4310  0FAC  00A0               	movwf	??___fladd
  4311  0FAD  0871               	movf	___fladd@b+1,w
  4312  0FAE  00A1               	movwf	??___fladd+1
  4313  0FAF  0872               	movf	___fladd@b+2,w
  4314  0FB0  00A2               	movwf	??___fladd+2
  4315  0FB1  0873               	movf	___fladd@b+3,w
  4316  0FB2  00A3               	movwf	??___fladd+3
  4317  0FB3  3001               	movlw	1
  4318  0FB4  00A4               	movwf	??___fladd+4
  4319  0FB5                     u2305:
  4320  0FB5  0D23               	rlf	??___fladd+3,w
  4321  0FB6  0CA3               	rrf	??___fladd+3,f
  4322  0FB7  0CA2               	rrf	??___fladd+2,f
  4323  0FB8  0CA1               	rrf	??___fladd+1,f
  4324  0FB9  0CA0               	rrf	??___fladd,f
  4325  0FBA                     u2300:
  4326  0FBA  0BA4               	decfsz	??___fladd+4,f
  4327  0FBB  2FB5               	goto	u2305
  4328  0FBC  0823               	movf	??___fladd+3,w
  4329  0FBD  00F3               	movwf	___fladd@b+3
  4330  0FBE  0822               	movf	??___fladd+2,w
  4331  0FBF  00F2               	movwf	___fladd@b+2
  4332  0FC0  0821               	movf	??___fladd+1,w
  4333  0FC1  00F1               	movwf	___fladd@b+1
  4334  0FC2  0820               	movf	??___fladd,w
  4335  0FC3  00F0               	movwf	___fladd@b
  4336  0FC4  0A7A               	incf	___fladd@bexp,w
  4337  0FC5  1903               	btfsc	3,2
  4338  0FC6  2FC8               	goto	u2311
  4339  0FC7  2FC9               	goto	u2310
  4340  0FC8                     u2311:
  4341  0FC8  2FCD               	goto	l668
  4342  0FC9                     u2310:
  4343  0FC9                     l2059:
  4344  0FC9  3001               	movlw	1
  4345  0FCA  00A0               	movwf	??___fladd
  4346  0FCB  0820               	movf	??___fladd,w
  4347  0FCC  07FA               	addwf	___fladd@bexp,f
  4348  0FCD                     l668:
  4349  0FCD  0A7A               	incf	___fladd@bexp,w
  4350  0FCE  1903               	btfsc	3,2
  4351  0FCF  2FD1               	goto	u2321
  4352  0FD0  2FD2               	goto	u2320
  4353  0FD1                     u2321:
  4354  0FD1  2FD7               	goto	l2063
  4355  0FD2                     u2320:
  4356  0FD2                     l2061:
  4357  0FD2  087A               	movf	___fladd@bexp,w
  4358  0FD3  1D03               	btfss	3,2
  4359  0FD4  2FD6               	goto	u2331
  4360  0FD5  2FD7               	goto	u2330
  4361  0FD6                     u2331:
  4362  0FD6  2FE5               	goto	l2069
  4363  0FD7                     u2330:
  4364  0FD7                     l2063:
  4365  0FD7  3000               	movlw	0
  4366  0FD8  00F3               	movwf	___fladd@b+3
  4367  0FD9  3000               	movlw	0
  4368  0FDA  00F2               	movwf	___fladd@b+2
  4369  0FDB  3000               	movlw	0
  4370  0FDC  00F1               	movwf	___fladd@b+1
  4371  0FDD  3000               	movlw	0
  4372  0FDE  00F0               	movwf	___fladd@b
  4373  0FDF                     l2065:
  4374  0FDF  087A               	movf	___fladd@bexp,w
  4375  0FE0  1D03               	btfss	3,2
  4376  0FE1  2FE3               	goto	u2341
  4377  0FE2  2FE4               	goto	u2340
  4378  0FE3                     u2341:
  4379  0FE3  2FE5               	goto	l2069
  4380  0FE4                     u2340:
  4381  0FE4                     l2067:
  4382  0FE4  01F8               	clrf	___fladd@signs
  4383  0FE5                     l2069:
  4384  0FE5  1C7A               	btfss	___fladd@bexp,0
  4385  0FE6  2FE8               	goto	u2351
  4386  0FE7  2FE9               	goto	u2350
  4387  0FE8                     u2351:
  4388  0FE8  2FEB               	goto	l2073
  4389  0FE9                     u2350:
  4390  0FE9                     l2071:
  4391  0FE9  17F2               	bsf	___fladd@b+2,7
  4392  0FEA  2FF1               	goto	l676
  4393  0FEB                     l2073:
  4394  0FEB  307F               	movlw	127
  4395  0FEC  1283               	bcf	3,5	;RP0=0, select bank0
  4396  0FED  1303               	bcf	3,6	;RP1=0, select bank0
  4397  0FEE  00A0               	movwf	??___fladd
  4398  0FEF  0820               	movf	??___fladd,w
  4399  0FF0  05F2               	andwf	___fladd@b+2,f
  4400  0FF1                     l676:
  4401  0FF1  087A               	movf	___fladd@bexp,w
  4402  0FF2  1283               	bcf	3,5	;RP0=0, select bank0
  4403  0FF3  1303               	bcf	3,6	;RP1=0, select bank0
  4404  0FF4  00A0               	movwf	??___fladd
  4405  0FF5  1003               	clrc
  4406  0FF6  0C20               	rrf	??___fladd,w
  4407  0FF7  00A1               	movwf	??___fladd+1
  4408  0FF8  0821               	movf	??___fladd+1,w
  4409  0FF9  00F3               	movwf	___fladd@b+3
  4410  0FFA                     l2075:
  4411  0FFA  1FF8               	btfss	___fladd@signs,7
  4412  0FFB  2FFD               	goto	u2361
  4413  0FFC  2FFE               	goto	u2360
  4414  0FFD                     u2361:
  4415  0FFD  2FFF               	goto	l677
  4416  0FFE                     u2360:
  4417  0FFE                     l2077:
  4418  0FFE  17F3               	bsf	___fladd@b+3,7
  4419  0FFF                     l677:
  4420  0FFF                     l647:
  4421  0FFF  0008               	return
  4422  1000                     __end_of___fladd:
  4423                           
  4424                           	psect	text10
  4425  008A                     __ptext10:	
  4426 ;; *************** function ___flmul *****************
  4427 ;; Defined at:
  4428 ;;		line 8 in file "C:\Program Files\Microchip\xc8\v2.32\pic\sources\c90\common\sprcmul.c"
  4429 ;; Parameters:    Size  Location     Type
  4430 ;;  b               4   44[BANK0 ] unsigned char 
  4431 ;;  a               4   48[BANK0 ] unsigned char 
  4432 ;; Auto vars:     Size  Location     Type
  4433 ;;  prod            4   64[BANK0 ] struct .
  4434 ;;  grs             4   58[BANK0 ] unsigned long 
  4435 ;;  temp            2   68[BANK0 ] struct .
  4436 ;;  bexp            1   63[BANK0 ] unsigned char 
  4437 ;;  aexp            1   62[BANK0 ] unsigned char 
  4438 ;;  sign            1   57[BANK0 ] unsigned char 
  4439 ;; Return value:  Size  Location     Type
  4440 ;;                  4   44[BANK0 ] unsigned char 
  4441 ;; Registers used:
  4442 ;;		wreg, status,2, status,0, btemp+1, pclath, cstack
  4443 ;; Tracked objects:
  4444 ;;		On entry : 0/0
  4445 ;;		On exit  : 0/0
  4446 ;;		Unchanged: 0/0
  4447 ;; Data sizes:     COMMON   BANK0   BANK1   BANK3   BANK2
  4448 ;;      Params:         0       8       0       0       0
  4449 ;;      Locals:         0      13       0       0       0
  4450 ;;      Temps:          0       5       0       0       0
  4451 ;;      Totals:         0      26       0       0       0
  4452 ;;Total ram usage:       26 bytes
  4453 ;; Hardware stack levels used: 1
  4454 ;; Hardware stack levels required when called: 1
  4455 ;; This function calls:
  4456 ;;		__Umul8_16
  4457 ;; This function is called by:
  4458 ;;		_main
  4459 ;;		_convert
  4460 ;; This function uses a non-reentrant model
  4461 ;;
  4462                           
  4463                           
  4464                           ;psect for function ___flmul
  4465  008A                     ___flmul:
  4466  008A                     l2421:	
  4467                           ;incstack = 0
  4468                           ; Regs used in ___flmul: [wreg+status,2+status,0+btemp+1+pclath+cstack]
  4469                           
  4470  008A  1283               	bcf	3,5	;RP0=0, select bank0
  4471  008B  1303               	bcf	3,6	;RP1=0, select bank0
  4472  008C  084F               	movf	___flmul@b+3,w
  4473  008D  3980               	andlw	128
  4474  008E  00D4               	movwf	??___flmul
  4475  008F  0854               	movf	??___flmul,w
  4476  0090  00D9               	movwf	___flmul@sign
  4477  0091                     l2423:
  4478  0091  084F               	movf	___flmul@b+3,w
  4479  0092  00D4               	movwf	??___flmul
  4480  0093  0754               	addwf	??___flmul,w
  4481  0094  00D5               	movwf	??___flmul+1
  4482  0095  0855               	movf	??___flmul+1,w
  4483  0096  00DF               	movwf	___flmul@bexp
  4484  0097                     l2425:
  4485  0097  1FCE               	btfss	___flmul@b+2,7
  4486  0098  289A               	goto	u3101
  4487  0099  289B               	goto	u3100
  4488  009A                     u3101:
  4489  009A  289C               	goto	l2429
  4490  009B                     u3100:
  4491  009B                     l2427:
  4492  009B  145F               	bsf	___flmul@bexp,0
  4493  009C                     l2429:
  4494  009C  085F               	movf	___flmul@bexp,w
  4495  009D  1903               	btfsc	3,2
  4496  009E  28A0               	goto	u3111
  4497  009F  28A1               	goto	u3110
  4498  00A0                     u3111:
  4499  00A0  28B0               	goto	l2437
  4500  00A1                     u3110:
  4501  00A1                     l2431:
  4502  00A1  0A5F               	incf	___flmul@bexp,w
  4503  00A2  1D03               	btfss	3,2
  4504  00A3  28A5               	goto	u3121
  4505  00A4  28A6               	goto	u3120
  4506  00A5                     u3121:
  4507  00A5  28AE               	goto	l2435
  4508  00A6                     u3120:
  4509  00A6                     l2433:
  4510  00A6  3000               	movlw	0
  4511  00A7  00CF               	movwf	___flmul@b+3
  4512  00A8  3000               	movlw	0
  4513  00A9  00CE               	movwf	___flmul@b+2
  4514  00AA  3000               	movlw	0
  4515  00AB  00CD               	movwf	___flmul@b+1
  4516  00AC  3000               	movlw	0
  4517  00AD  00CC               	movwf	___flmul@b
  4518  00AE                     l2435:
  4519  00AE  17CE               	bsf	___flmul@b+2,7
  4520  00AF  28B8               	goto	l2439
  4521  00B0                     l2437:
  4522  00B0  3000               	movlw	0
  4523  00B1  00CF               	movwf	___flmul@b+3
  4524  00B2  3000               	movlw	0
  4525  00B3  00CE               	movwf	___flmul@b+2
  4526  00B4  3000               	movlw	0
  4527  00B5  00CD               	movwf	___flmul@b+1
  4528  00B6  3000               	movlw	0
  4529  00B7  00CC               	movwf	___flmul@b
  4530  00B8                     l2439:
  4531  00B8  0853               	movf	___flmul@a+3,w
  4532  00B9  3980               	andlw	128
  4533  00BA  00D4               	movwf	??___flmul
  4534  00BB  0854               	movf	??___flmul,w
  4535  00BC  06D9               	xorwf	___flmul@sign,f
  4536  00BD                     l2441:
  4537  00BD  0853               	movf	___flmul@a+3,w
  4538  00BE  00D4               	movwf	??___flmul
  4539  00BF  0754               	addwf	??___flmul,w
  4540  00C0  00D5               	movwf	??___flmul+1
  4541  00C1  0855               	movf	??___flmul+1,w
  4542  00C2  00DE               	movwf	___flmul@aexp
  4543  00C3                     l2443:
  4544  00C3  1FD2               	btfss	___flmul@a+2,7
  4545  00C4  28C6               	goto	u3131
  4546  00C5  28C7               	goto	u3130
  4547  00C6                     u3131:
  4548  00C6  28C8               	goto	l2447
  4549  00C7                     u3130:
  4550  00C7                     l2445:
  4551  00C7  145E               	bsf	___flmul@aexp,0
  4552  00C8                     l2447:
  4553  00C8  085E               	movf	___flmul@aexp,w
  4554  00C9  1903               	btfsc	3,2
  4555  00CA  28CC               	goto	u3141
  4556  00CB  28CD               	goto	u3140
  4557  00CC                     u3141:
  4558  00CC  28DC               	goto	l2455
  4559  00CD                     u3140:
  4560  00CD                     l2449:
  4561  00CD  0A5E               	incf	___flmul@aexp,w
  4562  00CE  1D03               	btfss	3,2
  4563  00CF  28D1               	goto	u3151
  4564  00D0  28D2               	goto	u3150
  4565  00D1                     u3151:
  4566  00D1  28DA               	goto	l2453
  4567  00D2                     u3150:
  4568  00D2                     l2451:
  4569  00D2  3000               	movlw	0
  4570  00D3  00D3               	movwf	___flmul@a+3
  4571  00D4  3000               	movlw	0
  4572  00D5  00D2               	movwf	___flmul@a+2
  4573  00D6  3000               	movlw	0
  4574  00D7  00D1               	movwf	___flmul@a+1
  4575  00D8  3000               	movlw	0
  4576  00D9  00D0               	movwf	___flmul@a
  4577  00DA                     l2453:
  4578  00DA  17D2               	bsf	___flmul@a+2,7
  4579  00DB  28E4               	goto	l2457
  4580  00DC                     l2455:
  4581  00DC  3000               	movlw	0
  4582  00DD  00D3               	movwf	___flmul@a+3
  4583  00DE  3000               	movlw	0
  4584  00DF  00D2               	movwf	___flmul@a+2
  4585  00E0  3000               	movlw	0
  4586  00E1  00D1               	movwf	___flmul@a+1
  4587  00E2  3000               	movlw	0
  4588  00E3  00D0               	movwf	___flmul@a
  4589  00E4                     l2457:
  4590  00E4  085E               	movf	___flmul@aexp,w
  4591  00E5  1903               	btfsc	3,2
  4592  00E6  28E8               	goto	u3161
  4593  00E7  28E9               	goto	u3160
  4594  00E8                     u3161:
  4595  00E8  28EE               	goto	l2461
  4596  00E9                     u3160:
  4597  00E9                     l2459:
  4598  00E9  085F               	movf	___flmul@bexp,w
  4599  00EA  1D03               	btfss	3,2
  4600  00EB  28ED               	goto	u3171
  4601  00EC  28EE               	goto	u3170
  4602  00ED                     u3171:
  4603  00ED  28F7               	goto	l2465
  4604  00EE                     u3170:
  4605  00EE                     l2461:
  4606  00EE  3000               	movlw	0
  4607  00EF  00CF               	movwf	?___flmul+3
  4608  00F0  3000               	movlw	0
  4609  00F1  00CE               	movwf	?___flmul+2
  4610  00F2  3000               	movlw	0
  4611  00F3  00CD               	movwf	?___flmul+1
  4612  00F4  3000               	movlw	0
  4613  00F5  00CC               	movwf	?___flmul
  4614  00F6  2BEA               	goto	l730
  4615  00F7                     l2465:
  4616  00F7  084C               	movf	___flmul@b,w
  4617  00F8  00D4               	movwf	??___flmul
  4618  00F9  0854               	movf	??___flmul,w
  4619  00FA  00F0               	movwf	__Umul8_16@multiplicand
  4620  00FB  0852               	movf	___flmul@a+2,w
  4621  00FC  160A  118A  25C4  120A  118A  	fcall	__Umul8_16
  4622  0101  0871               	movf	?__Umul8_16+1,w
  4623  0102  1283               	bcf	3,5	;RP0=0, select bank0
  4624  0103  1303               	bcf	3,6	;RP1=0, select bank0
  4625  0104  00E5               	movwf	___flmul@temp+1
  4626  0105  0870               	movf	?__Umul8_16,w
  4627  0106  00E4               	movwf	___flmul@temp
  4628  0107                     l2467:
  4629  0107  0864               	movf	___flmul@temp,w
  4630  0108  00D4               	movwf	??___flmul
  4631  0109  01D5               	clrf	??___flmul+1
  4632  010A  01D6               	clrf	??___flmul+2
  4633  010B  01D7               	clrf	??___flmul+3
  4634  010C  0857               	movf	??___flmul+3,w
  4635  010D  00DD               	movwf	___flmul@grs+3
  4636  010E  0856               	movf	??___flmul+2,w
  4637  010F  00DC               	movwf	___flmul@grs+2
  4638  0110  0855               	movf	??___flmul+1,w
  4639  0111  00DB               	movwf	___flmul@grs+1
  4640  0112  0854               	movf	??___flmul,w
  4641  0113  00DA               	movwf	___flmul@grs
  4642  0114                     l2469:
  4643  0114  0865               	movf	___flmul@temp+1,w
  4644  0115  00D4               	movwf	??___flmul
  4645  0116  01D5               	clrf	??___flmul+1
  4646  0117  01D6               	clrf	??___flmul+2
  4647  0118  01D7               	clrf	??___flmul+3
  4648  0119  0857               	movf	??___flmul+3,w
  4649  011A  00E3               	movwf	___flmul@prod+3
  4650  011B  0856               	movf	??___flmul+2,w
  4651  011C  00E2               	movwf	___flmul@prod+2
  4652  011D  0855               	movf	??___flmul+1,w
  4653  011E  00E1               	movwf	___flmul@prod+1
  4654  011F  0854               	movf	??___flmul,w
  4655  0120  00E0               	movwf	___flmul@prod
  4656  0121  084D               	movf	___flmul@b+1,w
  4657  0122  00D4               	movwf	??___flmul
  4658  0123  0854               	movf	??___flmul,w
  4659  0124  00F0               	movwf	__Umul8_16@multiplicand
  4660  0125  0851               	movf	___flmul@a+1,w
  4661  0126  160A  118A  25C4  120A  118A  	fcall	__Umul8_16
  4662  012B  0871               	movf	?__Umul8_16+1,w
  4663  012C  1283               	bcf	3,5	;RP0=0, select bank0
  4664  012D  1303               	bcf	3,6	;RP1=0, select bank0
  4665  012E  00E5               	movwf	___flmul@temp+1
  4666  012F  0870               	movf	?__Umul8_16,w
  4667  0130  00E4               	movwf	___flmul@temp
  4668  0131                     l2471:
  4669  0131  0864               	movf	___flmul@temp,w
  4670  0132  00D4               	movwf	??___flmul
  4671  0133  01D5               	clrf	??___flmul+1
  4672  0134  01D6               	clrf	??___flmul+2
  4673  0135  01D7               	clrf	??___flmul+3
  4674  0136  0854               	movf	??___flmul,w
  4675  0137  07DA               	addwf	___flmul@grs,f
  4676  0138  0855               	movf	??___flmul+1,w
  4677  0139  1103               	clrz
  4678  013A  1803               	skipnc
  4679  013B  3E01               	addlw	1
  4680  013C  1903               	skipnz
  4681  013D  293F               	goto	u3181
  4682  013E  07DB               	addwf	___flmul@grs+1,f
  4683  013F                     u3181:
  4684  013F  0856               	movf	??___flmul+2,w
  4685  0140  1103               	clrz
  4686  0141  1803               	skipnc
  4687  0142  3E01               	addlw	1
  4688  0143  1903               	skipnz
  4689  0144  2946               	goto	u3182
  4690  0145  07DC               	addwf	___flmul@grs+2,f
  4691  0146                     u3182:
  4692  0146  0857               	movf	??___flmul+3,w
  4693  0147  1103               	clrz
  4694  0148  1803               	skipnc
  4695  0149  3E01               	addlw	1
  4696  014A  1903               	skipnz
  4697  014B  294D               	goto	u3183
  4698  014C  07DD               	addwf	___flmul@grs+3,f
  4699  014D                     u3183:
  4700  014D                     l2473:
  4701  014D  0865               	movf	___flmul@temp+1,w
  4702  014E  00D4               	movwf	??___flmul
  4703  014F  01D5               	clrf	??___flmul+1
  4704  0150  01D6               	clrf	??___flmul+2
  4705  0151  01D7               	clrf	??___flmul+3
  4706  0152  0854               	movf	??___flmul,w
  4707  0153  07E0               	addwf	___flmul@prod,f
  4708  0154  0855               	movf	??___flmul+1,w
  4709  0155  1103               	clrz
  4710  0156  1803               	skipnc
  4711  0157  3E01               	addlw	1
  4712  0158  1903               	skipnz
  4713  0159  295B               	goto	u3191
  4714  015A  07E1               	addwf	___flmul@prod+1,f
  4715  015B                     u3191:
  4716  015B  0856               	movf	??___flmul+2,w
  4717  015C  1103               	clrz
  4718  015D  1803               	skipnc
  4719  015E  3E01               	addlw	1
  4720  015F  1903               	skipnz
  4721  0160  2962               	goto	u3192
  4722  0161  07E2               	addwf	___flmul@prod+2,f
  4723  0162                     u3192:
  4724  0162  0857               	movf	??___flmul+3,w
  4725  0163  1103               	clrz
  4726  0164  1803               	skipnc
  4727  0165  3E01               	addlw	1
  4728  0166  1903               	skipnz
  4729  0167  2969               	goto	u3193
  4730  0168  07E3               	addwf	___flmul@prod+3,f
  4731  0169                     u3193:
  4732  0169  084E               	movf	___flmul@b+2,w
  4733  016A  00D4               	movwf	??___flmul
  4734  016B  0854               	movf	??___flmul,w
  4735  016C  00F0               	movwf	__Umul8_16@multiplicand
  4736  016D  0850               	movf	___flmul@a,w
  4737  016E  160A  118A  25C4  120A  118A  	fcall	__Umul8_16
  4738  0173  0871               	movf	?__Umul8_16+1,w
  4739  0174  1283               	bcf	3,5	;RP0=0, select bank0
  4740  0175  1303               	bcf	3,6	;RP1=0, select bank0
  4741  0176  00E5               	movwf	___flmul@temp+1
  4742  0177  0870               	movf	?__Umul8_16,w
  4743  0178  00E4               	movwf	___flmul@temp
  4744  0179                     l2475:
  4745  0179  0864               	movf	___flmul@temp,w
  4746  017A  00D4               	movwf	??___flmul
  4747  017B  01D5               	clrf	??___flmul+1
  4748  017C  01D6               	clrf	??___flmul+2
  4749  017D  01D7               	clrf	??___flmul+3
  4750  017E  0854               	movf	??___flmul,w
  4751  017F  07DA               	addwf	___flmul@grs,f
  4752  0180  0855               	movf	??___flmul+1,w
  4753  0181  1103               	clrz
  4754  0182  1803               	skipnc
  4755  0183  3E01               	addlw	1
  4756  0184  1903               	skipnz
  4757  0185  2987               	goto	u3201
  4758  0186  07DB               	addwf	___flmul@grs+1,f
  4759  0187                     u3201:
  4760  0187  0856               	movf	??___flmul+2,w
  4761  0188  1103               	clrz
  4762  0189  1803               	skipnc
  4763  018A  3E01               	addlw	1
  4764  018B  1903               	skipnz
  4765  018C  298E               	goto	u3202
  4766  018D  07DC               	addwf	___flmul@grs+2,f
  4767  018E                     u3202:
  4768  018E  0857               	movf	??___flmul+3,w
  4769  018F  1103               	clrz
  4770  0190  1803               	skipnc
  4771  0191  3E01               	addlw	1
  4772  0192  1903               	skipnz
  4773  0193  2995               	goto	u3203
  4774  0194  07DD               	addwf	___flmul@grs+3,f
  4775  0195                     u3203:
  4776  0195                     l2477:
  4777  0195  0865               	movf	___flmul@temp+1,w
  4778  0196  00D4               	movwf	??___flmul
  4779  0197  01D5               	clrf	??___flmul+1
  4780  0198  01D6               	clrf	??___flmul+2
  4781  0199  01D7               	clrf	??___flmul+3
  4782  019A  0854               	movf	??___flmul,w
  4783  019B  07E0               	addwf	___flmul@prod,f
  4784  019C  0855               	movf	??___flmul+1,w
  4785  019D  1103               	clrz
  4786  019E  1803               	skipnc
  4787  019F  3E01               	addlw	1
  4788  01A0  1903               	skipnz
  4789  01A1  29A3               	goto	u3211
  4790  01A2  07E1               	addwf	___flmul@prod+1,f
  4791  01A3                     u3211:
  4792  01A3  0856               	movf	??___flmul+2,w
  4793  01A4  1103               	clrz
  4794  01A5  1803               	skipnc
  4795  01A6  3E01               	addlw	1
  4796  01A7  1903               	skipnz
  4797  01A8  29AA               	goto	u3212
  4798  01A9  07E2               	addwf	___flmul@prod+2,f
  4799  01AA                     u3212:
  4800  01AA  0857               	movf	??___flmul+3,w
  4801  01AB  1103               	clrz
  4802  01AC  1803               	skipnc
  4803  01AD  3E01               	addlw	1
  4804  01AE  1903               	skipnz
  4805  01AF  29B1               	goto	u3213
  4806  01B0  07E3               	addwf	___flmul@prod+3,f
  4807  01B1                     u3213:
  4808  01B1                     l2479:
  4809  01B1  3008               	movlw	8
  4810  01B2  00D4               	movwf	??___flmul
  4811  01B3                     u3225:
  4812  01B3  1003               	clrc
  4813  01B4  0DDA               	rlf	___flmul@grs,f
  4814  01B5  0DDB               	rlf	___flmul@grs+1,f
  4815  01B6  0DDC               	rlf	___flmul@grs+2,f
  4816  01B7  0DDD               	rlf	___flmul@grs+3,f
  4817  01B8  0BD4               	decfsz	??___flmul,f
  4818  01B9  29B3               	goto	u3225
  4819  01BA                     l2481:
  4820  01BA  084D               	movf	___flmul@b+1,w
  4821  01BB  00D4               	movwf	??___flmul
  4822  01BC  0854               	movf	??___flmul,w
  4823  01BD  00F0               	movwf	__Umul8_16@multiplicand
  4824  01BE  0850               	movf	___flmul@a,w
  4825  01BF  160A  118A  25C4  120A  118A  	fcall	__Umul8_16
  4826  01C4  0871               	movf	?__Umul8_16+1,w
  4827  01C5  1283               	bcf	3,5	;RP0=0, select bank0
  4828  01C6  1303               	bcf	3,6	;RP1=0, select bank0
  4829  01C7  00E5               	movwf	___flmul@temp+1
  4830  01C8  0870               	movf	?__Umul8_16,w
  4831  01C9  00E4               	movwf	___flmul@temp
  4832  01CA                     l2483:
  4833  01CA  0864               	movf	___flmul@temp,w
  4834  01CB  00D4               	movwf	??___flmul
  4835  01CC  0865               	movf	___flmul@temp+1,w
  4836  01CD  00D5               	movwf	??___flmul+1
  4837  01CE  01D6               	clrf	??___flmul+2
  4838  01CF  01D7               	clrf	??___flmul+3
  4839  01D0  0854               	movf	??___flmul,w
  4840  01D1  07DA               	addwf	___flmul@grs,f
  4841  01D2  0855               	movf	??___flmul+1,w
  4842  01D3  1103               	clrz
  4843  01D4  1803               	skipnc
  4844  01D5  3E01               	addlw	1
  4845  01D6  1903               	skipnz
  4846  01D7  29D9               	goto	u3231
  4847  01D8  07DB               	addwf	___flmul@grs+1,f
  4848  01D9                     u3231:
  4849  01D9  0856               	movf	??___flmul+2,w
  4850  01DA  1103               	clrz
  4851  01DB  1803               	skipnc
  4852  01DC  3E01               	addlw	1
  4853  01DD  1903               	skipnz
  4854  01DE  29E0               	goto	u3232
  4855  01DF  07DC               	addwf	___flmul@grs+2,f
  4856  01E0                     u3232:
  4857  01E0  0857               	movf	??___flmul+3,w
  4858  01E1  1103               	clrz
  4859  01E2  1803               	skipnc
  4860  01E3  3E01               	addlw	1
  4861  01E4  1903               	skipnz
  4862  01E5  29E7               	goto	u3233
  4863  01E6  07DD               	addwf	___flmul@grs+3,f
  4864  01E7                     u3233:
  4865  01E7                     l2485:
  4866  01E7  084C               	movf	___flmul@b,w
  4867  01E8  00D4               	movwf	??___flmul
  4868  01E9  0854               	movf	??___flmul,w
  4869  01EA  00F0               	movwf	__Umul8_16@multiplicand
  4870  01EB  0851               	movf	___flmul@a+1,w
  4871  01EC  160A  118A  25C4  120A  118A  	fcall	__Umul8_16
  4872  01F1  0871               	movf	?__Umul8_16+1,w
  4873  01F2  1283               	bcf	3,5	;RP0=0, select bank0
  4874  01F3  1303               	bcf	3,6	;RP1=0, select bank0
  4875  01F4  00E5               	movwf	___flmul@temp+1
  4876  01F5  0870               	movf	?__Umul8_16,w
  4877  01F6  00E4               	movwf	___flmul@temp
  4878  01F7                     l2487:
  4879  01F7  0864               	movf	___flmul@temp,w
  4880  01F8  00D4               	movwf	??___flmul
  4881  01F9  0865               	movf	___flmul@temp+1,w
  4882  01FA  00D5               	movwf	??___flmul+1
  4883  01FB  01D6               	clrf	??___flmul+2
  4884  01FC  01D7               	clrf	??___flmul+3
  4885  01FD  0854               	movf	??___flmul,w
  4886  01FE  07DA               	addwf	___flmul@grs,f
  4887  01FF  0855               	movf	??___flmul+1,w
  4888  0200  1103               	clrz
  4889  0201  1803               	skipnc
  4890  0202  3E01               	addlw	1
  4891  0203  1903               	skipnz
  4892  0204  2A06               	goto	u3241
  4893  0205  07DB               	addwf	___flmul@grs+1,f
  4894  0206                     u3241:
  4895  0206  0856               	movf	??___flmul+2,w
  4896  0207  1103               	clrz
  4897  0208  1803               	skipnc
  4898  0209  3E01               	addlw	1
  4899  020A  1903               	skipnz
  4900  020B  2A0D               	goto	u3242
  4901  020C  07DC               	addwf	___flmul@grs+2,f
  4902  020D                     u3242:
  4903  020D  0857               	movf	??___flmul+3,w
  4904  020E  1103               	clrz
  4905  020F  1803               	skipnc
  4906  0210  3E01               	addlw	1
  4907  0211  1903               	skipnz
  4908  0212  2A14               	goto	u3243
  4909  0213  07DD               	addwf	___flmul@grs+3,f
  4910  0214                     u3243:
  4911  0214                     l2489:
  4912  0214  3008               	movlw	8
  4913  0215  00D4               	movwf	??___flmul
  4914  0216                     u3255:
  4915  0216  1003               	clrc
  4916  0217  0DDA               	rlf	___flmul@grs,f
  4917  0218  0DDB               	rlf	___flmul@grs+1,f
  4918  0219  0DDC               	rlf	___flmul@grs+2,f
  4919  021A  0DDD               	rlf	___flmul@grs+3,f
  4920  021B  0BD4               	decfsz	??___flmul,f
  4921  021C  2A16               	goto	u3255
  4922  021D  084C               	movf	___flmul@b,w
  4923  021E  00D4               	movwf	??___flmul
  4924  021F  0854               	movf	??___flmul,w
  4925  0220  00F0               	movwf	__Umul8_16@multiplicand
  4926  0221  0850               	movf	___flmul@a,w
  4927  0222  160A  118A  25C4  120A  118A  	fcall	__Umul8_16
  4928  0227  0871               	movf	?__Umul8_16+1,w
  4929  0228  1283               	bcf	3,5	;RP0=0, select bank0
  4930  0229  1303               	bcf	3,6	;RP1=0, select bank0
  4931  022A  00E5               	movwf	___flmul@temp+1
  4932  022B  0870               	movf	?__Umul8_16,w
  4933  022C  00E4               	movwf	___flmul@temp
  4934  022D                     l2491:
  4935  022D  0864               	movf	___flmul@temp,w
  4936  022E  00D4               	movwf	??___flmul
  4937  022F  0865               	movf	___flmul@temp+1,w
  4938  0230  00D5               	movwf	??___flmul+1
  4939  0231  01D6               	clrf	??___flmul+2
  4940  0232  01D7               	clrf	??___flmul+3
  4941  0233  0854               	movf	??___flmul,w
  4942  0234  07DA               	addwf	___flmul@grs,f
  4943  0235  0855               	movf	??___flmul+1,w
  4944  0236  1103               	clrz
  4945  0237  1803               	skipnc
  4946  0238  3E01               	addlw	1
  4947  0239  1903               	skipnz
  4948  023A  2A3C               	goto	u3261
  4949  023B  07DB               	addwf	___flmul@grs+1,f
  4950  023C                     u3261:
  4951  023C  0856               	movf	??___flmul+2,w
  4952  023D  1103               	clrz
  4953  023E  1803               	skipnc
  4954  023F  3E01               	addlw	1
  4955  0240  1903               	skipnz
  4956  0241  2A43               	goto	u3262
  4957  0242  07DC               	addwf	___flmul@grs+2,f
  4958  0243                     u3262:
  4959  0243  0857               	movf	??___flmul+3,w
  4960  0244  1103               	clrz
  4961  0245  1803               	skipnc
  4962  0246  3E01               	addlw	1
  4963  0247  1903               	skipnz
  4964  0248  2A4A               	goto	u3263
  4965  0249  07DD               	addwf	___flmul@grs+3,f
  4966  024A                     u3263:
  4967  024A                     l2493:
  4968  024A  084D               	movf	___flmul@b+1,w
  4969  024B  00D4               	movwf	??___flmul
  4970  024C  0854               	movf	??___flmul,w
  4971  024D  00F0               	movwf	__Umul8_16@multiplicand
  4972  024E  0852               	movf	___flmul@a+2,w
  4973  024F  160A  118A  25C4  120A  118A  	fcall	__Umul8_16
  4974  0254  0871               	movf	?__Umul8_16+1,w
  4975  0255  1283               	bcf	3,5	;RP0=0, select bank0
  4976  0256  1303               	bcf	3,6	;RP1=0, select bank0
  4977  0257  00E5               	movwf	___flmul@temp+1
  4978  0258  0870               	movf	?__Umul8_16,w
  4979  0259  00E4               	movwf	___flmul@temp
  4980  025A  0864               	movf	___flmul@temp,w
  4981  025B  00D4               	movwf	??___flmul
  4982  025C  0865               	movf	___flmul@temp+1,w
  4983  025D  00D5               	movwf	??___flmul+1
  4984  025E  01D6               	clrf	??___flmul+2
  4985  025F  01D7               	clrf	??___flmul+3
  4986  0260  0854               	movf	??___flmul,w
  4987  0261  07E0               	addwf	___flmul@prod,f
  4988  0262  0855               	movf	??___flmul+1,w
  4989  0263  1103               	clrz
  4990  0264  1803               	skipnc
  4991  0265  3E01               	addlw	1
  4992  0266  1903               	skipnz
  4993  0267  2A69               	goto	u3271
  4994  0268  07E1               	addwf	___flmul@prod+1,f
  4995  0269                     u3271:
  4996  0269  0856               	movf	??___flmul+2,w
  4997  026A  1103               	clrz
  4998  026B  1803               	skipnc
  4999  026C  3E01               	addlw	1
  5000  026D  1903               	skipnz
  5001  026E  2A70               	goto	u3272
  5002  026F  07E2               	addwf	___flmul@prod+2,f
  5003  0270                     u3272:
  5004  0270  0857               	movf	??___flmul+3,w
  5005  0271  1103               	clrz
  5006  0272  1803               	skipnc
  5007  0273  3E01               	addlw	1
  5008  0274  1903               	skipnz
  5009  0275  2A77               	goto	u3273
  5010  0276  07E3               	addwf	___flmul@prod+3,f
  5011  0277                     u3273:
  5012  0277                     l2495:
  5013  0277  084E               	movf	___flmul@b+2,w
  5014  0278  00D4               	movwf	??___flmul
  5015  0279  0854               	movf	??___flmul,w
  5016  027A  00F0               	movwf	__Umul8_16@multiplicand
  5017  027B  0851               	movf	___flmul@a+1,w
  5018  027C  160A  118A  25C4  120A  118A  	fcall	__Umul8_16
  5019  0281  0871               	movf	?__Umul8_16+1,w
  5020  0282  1283               	bcf	3,5	;RP0=0, select bank0
  5021  0283  1303               	bcf	3,6	;RP1=0, select bank0
  5022  0284  00E5               	movwf	___flmul@temp+1
  5023  0285  0870               	movf	?__Umul8_16,w
  5024  0286  00E4               	movwf	___flmul@temp
  5025  0287                     l2497:
  5026  0287  0864               	movf	___flmul@temp,w
  5027  0288  00D4               	movwf	??___flmul
  5028  0289  0865               	movf	___flmul@temp+1,w
  5029  028A  00D5               	movwf	??___flmul+1
  5030  028B  01D6               	clrf	??___flmul+2
  5031  028C  01D7               	clrf	??___flmul+3
  5032  028D  0854               	movf	??___flmul,w
  5033  028E  07E0               	addwf	___flmul@prod,f
  5034  028F  0855               	movf	??___flmul+1,w
  5035  0290  1103               	clrz
  5036  0291  1803               	skipnc
  5037  0292  3E01               	addlw	1
  5038  0293  1903               	skipnz
  5039  0294  2A96               	goto	u3281
  5040  0295  07E1               	addwf	___flmul@prod+1,f
  5041  0296                     u3281:
  5042  0296  0856               	movf	??___flmul+2,w
  5043  0297  1103               	clrz
  5044  0298  1803               	skipnc
  5045  0299  3E01               	addlw	1
  5046  029A  1903               	skipnz
  5047  029B  2A9D               	goto	u3282
  5048  029C  07E2               	addwf	___flmul@prod+2,f
  5049  029D                     u3282:
  5050  029D  0857               	movf	??___flmul+3,w
  5051  029E  1103               	clrz
  5052  029F  1803               	skipnc
  5053  02A0  3E01               	addlw	1
  5054  02A1  1903               	skipnz
  5055  02A2  2AA4               	goto	u3283
  5056  02A3  07E3               	addwf	___flmul@prod+3,f
  5057  02A4                     u3283:
  5058  02A4  084E               	movf	___flmul@b+2,w
  5059  02A5  00D4               	movwf	??___flmul
  5060  02A6  0854               	movf	??___flmul,w
  5061  02A7  00F0               	movwf	__Umul8_16@multiplicand
  5062  02A8  0852               	movf	___flmul@a+2,w
  5063  02A9  160A  118A  25C4  120A  118A  	fcall	__Umul8_16
  5064  02AE  0871               	movf	?__Umul8_16+1,w
  5065  02AF  1283               	bcf	3,5	;RP0=0, select bank0
  5066  02B0  1303               	bcf	3,6	;RP1=0, select bank0
  5067  02B1  00E5               	movwf	___flmul@temp+1
  5068  02B2  0870               	movf	?__Umul8_16,w
  5069  02B3  00E4               	movwf	___flmul@temp
  5070  02B4                     l2499:
  5071  02B4  0864               	movf	___flmul@temp,w
  5072  02B5  00D4               	movwf	??___flmul
  5073  02B6  0865               	movf	___flmul@temp+1,w
  5074  02B7  00D5               	movwf	??___flmul+1
  5075  02B8  01D6               	clrf	??___flmul+2
  5076  02B9  01D7               	clrf	??___flmul+3
  5077  02BA  3008               	movlw	8
  5078  02BB                     u3295:
  5079  02BB  1003               	clrc
  5080  02BC  0DD4               	rlf	??___flmul,f
  5081  02BD  0DD5               	rlf	??___flmul+1,f
  5082  02BE  0DD6               	rlf	??___flmul+2,f
  5083  02BF  0DD7               	rlf	??___flmul+3,f
  5084  02C0                     u3290:
  5085  02C0  3EFF               	addlw	-1
  5086  02C1  1D03               	skipz
  5087  02C2  2ABB               	goto	u3295
  5088  02C3  0854               	movf	??___flmul,w
  5089  02C4  07E0               	addwf	___flmul@prod,f
  5090  02C5  0855               	movf	??___flmul+1,w
  5091  02C6  1103               	clrz
  5092  02C7  1803               	skipnc
  5093  02C8  3E01               	addlw	1
  5094  02C9  1903               	skipnz
  5095  02CA  2ACC               	goto	u3301
  5096  02CB  07E1               	addwf	___flmul@prod+1,f
  5097  02CC                     u3301:
  5098  02CC  0856               	movf	??___flmul+2,w
  5099  02CD  1103               	clrz
  5100  02CE  1803               	skipnc
  5101  02CF  3E01               	addlw	1
  5102  02D0  1903               	skipnz
  5103  02D1  2AD3               	goto	u3302
  5104  02D2  07E2               	addwf	___flmul@prod+2,f
  5105  02D3                     u3302:
  5106  02D3  0857               	movf	??___flmul+3,w
  5107  02D4  1103               	clrz
  5108  02D5  1803               	skipnc
  5109  02D6  3E01               	addlw	1
  5110  02D7  1903               	skipnz
  5111  02D8  2ADA               	goto	u3303
  5112  02D9  07E3               	addwf	___flmul@prod+3,f
  5113  02DA                     u3303:
  5114  02DA                     l2501:
  5115  02DA  085A               	movf	___flmul@grs,w
  5116  02DB  00D4               	movwf	??___flmul
  5117  02DC  085B               	movf	___flmul@grs+1,w
  5118  02DD  00D5               	movwf	??___flmul+1
  5119  02DE  085C               	movf	___flmul@grs+2,w
  5120  02DF  00D6               	movwf	??___flmul+2
  5121  02E0  085D               	movf	___flmul@grs+3,w
  5122  02E1  00D7               	movwf	??___flmul+3
  5123  02E2  3018               	movlw	24
  5124  02E3                     u3315:
  5125  02E3  1003               	clrc
  5126  02E4  0CD7               	rrf	??___flmul+3,f
  5127  02E5  0CD6               	rrf	??___flmul+2,f
  5128  02E6  0CD5               	rrf	??___flmul+1,f
  5129  02E7  0CD4               	rrf	??___flmul,f
  5130  02E8                     u3310:
  5131  02E8  3EFF               	addlw	-1
  5132  02E9  1D03               	skipz
  5133  02EA  2AE3               	goto	u3315
  5134  02EB  0854               	movf	??___flmul,w
  5135  02EC  07E0               	addwf	___flmul@prod,f
  5136  02ED  0855               	movf	??___flmul+1,w
  5137  02EE  1103               	clrz
  5138  02EF  1803               	skipnc
  5139  02F0  3E01               	addlw	1
  5140  02F1  1903               	skipnz
  5141  02F2  2AF4               	goto	u3321
  5142  02F3  07E1               	addwf	___flmul@prod+1,f
  5143  02F4                     u3321:
  5144  02F4  0856               	movf	??___flmul+2,w
  5145  02F5  1103               	clrz
  5146  02F6  1803               	skipnc
  5147  02F7  3E01               	addlw	1
  5148  02F8  1903               	skipnz
  5149  02F9  2AFB               	goto	u3322
  5150  02FA  07E2               	addwf	___flmul@prod+2,f
  5151  02FB                     u3322:
  5152  02FB  0857               	movf	??___flmul+3,w
  5153  02FC  1103               	clrz
  5154  02FD  1803               	skipnc
  5155  02FE  3E01               	addlw	1
  5156  02FF  1903               	skipnz
  5157  0300  2B02               	goto	u3323
  5158  0301  07E3               	addwf	___flmul@prod+3,f
  5159  0302                     u3323:
  5160  0302                     l2503:
  5161  0302  3008               	movlw	8
  5162  0303  00D4               	movwf	??___flmul
  5163  0304                     u3335:
  5164  0304  1003               	clrc
  5165  0305  0DDA               	rlf	___flmul@grs,f
  5166  0306  0DDB               	rlf	___flmul@grs+1,f
  5167  0307  0DDC               	rlf	___flmul@grs+2,f
  5168  0308  0DDD               	rlf	___flmul@grs+3,f
  5169  0309  0BD4               	decfsz	??___flmul,f
  5170  030A  2B04               	goto	u3335
  5171  030B                     l2505:
  5172  030B  085F               	movf	___flmul@bexp,w
  5173  030C  075E               	addwf	___flmul@aexp,w
  5174  030D  00D4               	movwf	??___flmul
  5175  030E  01D5               	clrf	??___flmul+1
  5176  030F  0DD5               	rlf	??___flmul+1,f
  5177  0310  0854               	movf	??___flmul,w
  5178  0311  3E82               	addlw	130
  5179  0312  00E4               	movwf	___flmul@temp
  5180  0313  0855               	movf	??___flmul+1,w
  5181  0314  1803               	skipnc
  5182  0315  3E01               	addlw	1
  5183  0316  3EFF               	addlw	255
  5184  0317  00E5               	movwf	___flmul@temp+1
  5185  0318  2B36               	goto	l2517
  5186  0319                     l2507:
  5187  0319  3001               	movlw	1
  5188  031A  00D4               	movwf	??___flmul
  5189  031B                     u3345:
  5190  031B  1003               	clrc
  5191  031C  0DE0               	rlf	___flmul@prod,f
  5192  031D  0DE1               	rlf	___flmul@prod+1,f
  5193  031E  0DE2               	rlf	___flmul@prod+2,f
  5194  031F  0DE3               	rlf	___flmul@prod+3,f
  5195  0320  0BD4               	decfsz	??___flmul,f
  5196  0321  2B1B               	goto	u3345
  5197  0322                     l2509:
  5198  0322  1FDD               	btfss	___flmul@grs+3,7
  5199  0323  2B25               	goto	u3351
  5200  0324  2B26               	goto	u3350
  5201  0325                     u3351:
  5202  0325  2B27               	goto	l2513
  5203  0326                     u3350:
  5204  0326                     l2511:
  5205  0326  1460               	bsf	___flmul@prod,0
  5206  0327                     l2513:
  5207  0327  3001               	movlw	1
  5208  0328  00D4               	movwf	??___flmul
  5209  0329                     u3365:
  5210  0329  1003               	clrc
  5211  032A  0DDA               	rlf	___flmul@grs,f
  5212  032B  0DDB               	rlf	___flmul@grs+1,f
  5213  032C  0DDC               	rlf	___flmul@grs+2,f
  5214  032D  0DDD               	rlf	___flmul@grs+3,f
  5215  032E  0BD4               	decfsz	??___flmul,f
  5216  032F  2B29               	goto	u3365
  5217  0330                     l2515:
  5218  0330  30FF               	movlw	255
  5219  0331  07E4               	addwf	___flmul@temp,f
  5220  0332  1803               	skipnc
  5221  0333  0AE5               	incf	___flmul@temp+1,f
  5222  0334  30FF               	movlw	255
  5223  0335  07E5               	addwf	___flmul@temp+1,f
  5224  0336                     l2517:
  5225  0336  1FE2               	btfss	___flmul@prod+2,7
  5226  0337  2B39               	goto	u3371
  5227  0338  2B3A               	goto	u3370
  5228  0339                     u3371:
  5229  0339  2B19               	goto	l2507
  5230  033A                     u3370:
  5231  033A                     l2519:
  5232  033A  01DE               	clrf	___flmul@aexp
  5233  033B                     l2521:
  5234  033B  1FDD               	btfss	___flmul@grs+3,7
  5235  033C  2B3E               	goto	u3381
  5236  033D  2B3F               	goto	u3380
  5237  033E                     u3381:
  5238  033E  2B5B               	goto	l2529
  5239  033F                     u3380:
  5240  033F                     l2523:
  5241  033F  30FF               	movlw	255
  5242  0340  055A               	andwf	___flmul@grs,w
  5243  0341  00D4               	movwf	??___flmul
  5244  0342  30FF               	movlw	255
  5245  0343  055B               	andwf	___flmul@grs+1,w
  5246  0344  00D5               	movwf	??___flmul+1
  5247  0345  30FF               	movlw	255
  5248  0346  055C               	andwf	___flmul@grs+2,w
  5249  0347  00D6               	movwf	??___flmul+2
  5250  0348  307F               	movlw	127
  5251  0349  055D               	andwf	___flmul@grs+3,w
  5252  034A  00D7               	movwf	??___flmul+3
  5253  034B  0857               	movf	??___flmul+3,w
  5254  034C  0456               	iorwf	??___flmul+2,w
  5255  034D  0455               	iorwf	??___flmul+1,w
  5256  034E  0454               	iorwf	??___flmul,w
  5257  034F  1903               	skipnz
  5258  0350  2B52               	goto	u3391
  5259  0351  2B53               	goto	u3390
  5260  0352                     u3391:
  5261  0352  2B56               	goto	l736
  5262  0353                     u3390:
  5263  0353                     l2525:
  5264  0353  01DE               	clrf	___flmul@aexp
  5265  0354  0ADE               	incf	___flmul@aexp,f
  5266  0355  2B5B               	goto	l2529
  5267  0356                     l736:
  5268  0356  1C60               	btfss	___flmul@prod,0
  5269  0357  2B59               	goto	u3401
  5270  0358  2B5A               	goto	u3400
  5271  0359                     u3401:
  5272  0359  2B5B               	goto	l2529
  5273  035A                     u3400:
  5274  035A  2B53               	goto	l2525
  5275  035B                     l2529:
  5276  035B  085E               	movf	___flmul@aexp,w
  5277  035C  1903               	btfsc	3,2
  5278  035D  2B5F               	goto	u3411
  5279  035E  2B60               	goto	u3410
  5280  035F                     u3411:
  5281  035F  2B91               	goto	l2539
  5282  0360                     u3410:
  5283  0360                     l2531:
  5284  0360  3001               	movlw	1
  5285  0361  07E0               	addwf	___flmul@prod,f
  5286  0362  3000               	movlw	0
  5287  0363  1803               	skipnc
  5288  0364  3001               	movlw	1
  5289  0365  07E1               	addwf	___flmul@prod+1,f
  5290  0366  3000               	movlw	0
  5291  0367  1803               	skipnc
  5292  0368  3001               	movlw	1
  5293  0369  07E2               	addwf	___flmul@prod+2,f
  5294  036A  3000               	movlw	0
  5295  036B  1803               	skipnc
  5296  036C  3001               	movlw	1
  5297  036D  07E3               	addwf	___flmul@prod+3,f
  5298  036E                     l2533:
  5299  036E  1C63               	btfss	___flmul@prod+3,0
  5300  036F  2B71               	goto	u3421
  5301  0370  2B72               	goto	u3420
  5302  0371                     u3421:
  5303  0371  2B91               	goto	l2539
  5304  0372                     u3420:
  5305  0372                     l2535:
  5306  0372  0860               	movf	___flmul@prod,w
  5307  0373  00D4               	movwf	??___flmul
  5308  0374  0861               	movf	___flmul@prod+1,w
  5309  0375  00D5               	movwf	??___flmul+1
  5310  0376  0862               	movf	___flmul@prod+2,w
  5311  0377  00D6               	movwf	??___flmul+2
  5312  0378  0863               	movf	___flmul@prod+3,w
  5313  0379  00D7               	movwf	??___flmul+3
  5314  037A  3001               	movlw	1
  5315  037B  00D8               	movwf	??___flmul+4
  5316  037C                     u3435:
  5317  037C  0D57               	rlf	??___flmul+3,w
  5318  037D  0CD7               	rrf	??___flmul+3,f
  5319  037E  0CD6               	rrf	??___flmul+2,f
  5320  037F  0CD5               	rrf	??___flmul+1,f
  5321  0380  0CD4               	rrf	??___flmul,f
  5322  0381                     u3430:
  5323  0381  0BD8               	decfsz	??___flmul+4,f
  5324  0382  2B7C               	goto	u3435
  5325  0383  0857               	movf	??___flmul+3,w
  5326  0384  00E3               	movwf	___flmul@prod+3
  5327  0385  0856               	movf	??___flmul+2,w
  5328  0386  00E2               	movwf	___flmul@prod+2
  5329  0387  0855               	movf	??___flmul+1,w
  5330  0388  00E1               	movwf	___flmul@prod+1
  5331  0389  0854               	movf	??___flmul,w
  5332  038A  00E0               	movwf	___flmul@prod
  5333  038B                     l2537:
  5334  038B  3001               	movlw	1
  5335  038C  07E4               	addwf	___flmul@temp,f
  5336  038D  1803               	skipnc
  5337  038E  0AE5               	incf	___flmul@temp+1,f
  5338  038F  3000               	movlw	0
  5339  0390  07E5               	addwf	___flmul@temp+1,f
  5340  0391                     l2539:
  5341  0391  0865               	movf	___flmul@temp+1,w
  5342  0392  3A80               	xorlw	128
  5343  0393  00FF               	movwf	btemp+1
  5344  0394  3080               	movlw	128
  5345  0395  027F               	subwf	btemp+1,w
  5346  0396  1D03               	skipz
  5347  0397  2B9A               	goto	u3445
  5348  0398  30FF               	movlw	255
  5349  0399  0264               	subwf	___flmul@temp,w
  5350  039A                     u3445:
  5351  039A  1C03               	skipc
  5352  039B  2B9D               	goto	u3441
  5353  039C  2B9E               	goto	u3440
  5354  039D                     u3441:
  5355  039D  2BA9               	goto	l2543
  5356  039E                     u3440:
  5357  039E                     l2541:
  5358  039E  307F               	movlw	127
  5359  039F  1283               	bcf	3,5	;RP0=0, select bank0
  5360  03A0  1303               	bcf	3,6	;RP1=0, select bank0
  5361  03A1  00E3               	movwf	___flmul@prod+3
  5362  03A2  3080               	movlw	128
  5363  03A3  00E2               	movwf	___flmul@prod+2
  5364  03A4  3000               	movlw	0
  5365  03A5  00E1               	movwf	___flmul@prod+1
  5366  03A6  3000               	movlw	0
  5367  03A7  00E0               	movwf	___flmul@prod
  5368  03A8  2BDE               	goto	l742
  5369  03A9                     l2543:
  5370  03A9  1283               	bcf	3,5	;RP0=0, select bank0
  5371  03AA  1303               	bcf	3,6	;RP1=0, select bank0
  5372  03AB  0865               	movf	___flmul@temp+1,w
  5373  03AC  3A80               	xorlw	128
  5374  03AD  00FF               	movwf	btemp+1
  5375  03AE  3080               	movlw	128
  5376  03AF  027F               	subwf	btemp+1,w
  5377  03B0  1D03               	skipz
  5378  03B1  2BB4               	goto	u3455
  5379  03B2  3001               	movlw	1
  5380  03B3  0264               	subwf	___flmul@temp,w
  5381  03B4                     u3455:
  5382  03B4  1803               	skipnc
  5383  03B5  2BB7               	goto	u3451
  5384  03B6  2BB8               	goto	u3450
  5385  03B7                     u3451:
  5386  03B7  2BC4               	goto	l2549
  5387  03B8                     u3450:
  5388  03B8                     l2545:
  5389  03B8  3000               	movlw	0
  5390  03B9  1283               	bcf	3,5	;RP0=0, select bank0
  5391  03BA  1303               	bcf	3,6	;RP1=0, select bank0
  5392  03BB  00E3               	movwf	___flmul@prod+3
  5393  03BC  3000               	movlw	0
  5394  03BD  00E2               	movwf	___flmul@prod+2
  5395  03BE  3000               	movlw	0
  5396  03BF  00E1               	movwf	___flmul@prod+1
  5397  03C0  3000               	movlw	0
  5398  03C1  00E0               	movwf	___flmul@prod
  5399  03C2                     l2547:
  5400  03C2  01D9               	clrf	___flmul@sign
  5401  03C3  2BDE               	goto	l742
  5402  03C4                     l2549:
  5403  03C4  1283               	bcf	3,5	;RP0=0, select bank0
  5404  03C5  1303               	bcf	3,6	;RP1=0, select bank0
  5405  03C6  0864               	movf	___flmul@temp,w
  5406  03C7  00D4               	movwf	??___flmul
  5407  03C8  0854               	movf	??___flmul,w
  5408  03C9  00DF               	movwf	___flmul@bexp
  5409  03CA  30FF               	movlw	255
  5410  03CB  05E0               	andwf	___flmul@prod,f
  5411  03CC  30FF               	movlw	255
  5412  03CD  05E1               	andwf	___flmul@prod+1,f
  5413  03CE  307F               	movlw	127
  5414  03CF  05E2               	andwf	___flmul@prod+2,f
  5415  03D0  3000               	movlw	0
  5416  03D1  05E3               	andwf	___flmul@prod+3,f
  5417  03D2                     l2551:
  5418  03D2  1C5F               	btfss	___flmul@bexp,0
  5419  03D3  2BD5               	goto	u3461
  5420  03D4  2BD6               	goto	u3460
  5421  03D5                     u3461:
  5422  03D5  2BD7               	goto	l2555
  5423  03D6                     u3460:
  5424  03D6                     l2553:
  5425  03D6  17E2               	bsf	___flmul@prod+2,7
  5426  03D7                     l2555:
  5427  03D7  085F               	movf	___flmul@bexp,w
  5428  03D8  00D4               	movwf	??___flmul
  5429  03D9  1003               	clrc
  5430  03DA  0C54               	rrf	??___flmul,w
  5431  03DB  00D5               	movwf	??___flmul+1
  5432  03DC  0855               	movf	??___flmul+1,w
  5433  03DD  00E3               	movwf	___flmul@prod+3
  5434  03DE                     l742:
  5435  03DE  0859               	movf	___flmul@sign,w
  5436  03DF  00D4               	movwf	??___flmul
  5437  03E0  0854               	movf	??___flmul,w
  5438  03E1  04E3               	iorwf	___flmul@prod+3,f
  5439  03E2                     l2557:
  5440  03E2  0863               	movf	___flmul@prod+3,w
  5441  03E3  00CF               	movwf	?___flmul+3
  5442  03E4  0862               	movf	___flmul@prod+2,w
  5443  03E5  00CE               	movwf	?___flmul+2
  5444  03E6  0861               	movf	___flmul@prod+1,w
  5445  03E7  00CD               	movwf	?___flmul+1
  5446  03E8  0860               	movf	___flmul@prod,w
  5447  03E9  00CC               	movwf	?___flmul
  5448  03EA                     l730:
  5449  03EA  0008               	return
  5450  03EB                     __end_of___flmul:
  5451                           
  5452                           	psect	text11
  5453  15C4                     __ptext11:	
  5454 ;; *************** function __Umul8_16 *****************
  5455 ;; Defined at:
  5456 ;;		line 4 in file "C:\Program Files\Microchip\xc8\v2.32\pic\sources\c90\common\Umul8_16.c"
  5457 ;; Parameters:    Size  Location     Type
  5458 ;;  multiplier      1    wreg     unsigned char 
  5459 ;;  multiplicand    1    0[COMMON] unsigned char 
  5460 ;; Auto vars:     Size  Location     Type
  5461 ;;  multiplier      1    8[COMMON] unsigned char 
  5462 ;;  word_mpld       2    6[COMMON] unsigned int 
  5463 ;;  product         2    4[COMMON] unsigned int 
  5464 ;; Return value:  Size  Location     Type
  5465 ;;                  2    0[COMMON] unsigned int 
  5466 ;; Registers used:
  5467 ;;		wreg, status,2, status,0
  5468 ;; Tracked objects:
  5469 ;;		On entry : 0/0
  5470 ;;		On exit  : 0/0
  5471 ;;		Unchanged: 0/0
  5472 ;; Data sizes:     COMMON   BANK0   BANK1   BANK3   BANK2
  5473 ;;      Params:         2       0       0       0       0
  5474 ;;      Locals:         5       0       0       0       0
  5475 ;;      Temps:          2       0       0       0       0
  5476 ;;      Totals:         9       0       0       0       0
  5477 ;;Total ram usage:        9 bytes
  5478 ;; Hardware stack levels used: 1
  5479 ;; This function calls:
  5480 ;;		Nothing
  5481 ;; This function is called by:
  5482 ;;		___flmul
  5483 ;; This function uses a non-reentrant model
  5484 ;;
  5485                           
  5486                           
  5487                           ;psect for function __Umul8_16
  5488  15C4                     __Umul8_16:
  5489                           
  5490                           ;incstack = 0
  5491                           ; Regs used in __Umul8_16: [wreg+status,2+status,0]
  5492                           ;__Umul8_16@multiplier stored from wreg
  5493  15C4  00F8               	movwf	__Umul8_16@multiplier
  5494  15C5                     l2079:
  5495  15C5  01F4               	clrf	__Umul8_16@product
  5496  15C6  01F5               	clrf	__Umul8_16@product+1
  5497  15C7                     l2081:
  5498  15C7  0870               	movf	__Umul8_16@multiplicand,w
  5499  15C8  00F2               	movwf	??__Umul8_16
  5500  15C9  01F3               	clrf	??__Umul8_16+1
  5501  15CA  0872               	movf	??__Umul8_16,w
  5502  15CB  00F6               	movwf	__Umul8_16@word_mpld
  5503  15CC  0873               	movf	??__Umul8_16+1,w
  5504  15CD  00F7               	movwf	__Umul8_16@word_mpld+1
  5505  15CE                     l2083:
  5506  15CE  1C78               	btfss	__Umul8_16@multiplier,0
  5507  15CF  2DD1               	goto	u2371
  5508  15D0  2DD2               	goto	u2370
  5509  15D1                     u2371:
  5510  15D1  2DD8               	goto	l749
  5511  15D2                     u2370:
  5512  15D2                     l2085:
  5513  15D2  0876               	movf	__Umul8_16@word_mpld,w
  5514  15D3  07F4               	addwf	__Umul8_16@product,f
  5515  15D4  1803               	skipnc
  5516  15D5  0AF5               	incf	__Umul8_16@product+1,f
  5517  15D6  0877               	movf	__Umul8_16@word_mpld+1,w
  5518  15D7  07F5               	addwf	__Umul8_16@product+1,f
  5519  15D8                     l749:
  5520  15D8  3001               	movlw	1
  5521  15D9                     u2385:
  5522  15D9  1003               	clrc
  5523  15DA  0DF6               	rlf	__Umul8_16@word_mpld,f
  5524  15DB  0DF7               	rlf	__Umul8_16@word_mpld+1,f
  5525  15DC  3EFF               	addlw	-1
  5526  15DD  1D03               	skipz
  5527  15DE  2DD9               	goto	u2385
  5528  15DF  1003               	clrc
  5529  15E0  0CF8               	rrf	__Umul8_16@multiplier,f
  5530  15E1                     l2087:
  5531  15E1  0878               	movf	__Umul8_16@multiplier,w
  5532  15E2  1D03               	btfss	3,2
  5533  15E3  2DE5               	goto	u2391
  5534  15E4  2DE6               	goto	u2390
  5535  15E5                     u2391:
  5536  15E5  2DCE               	goto	l2083
  5537  15E6                     u2390:
  5538  15E6                     l2089:
  5539  15E6  0875               	movf	__Umul8_16@product+1,w
  5540  15E7  00F1               	movwf	?__Umul8_16+1
  5541  15E8  0874               	movf	__Umul8_16@product,w
  5542  15E9  00F0               	movwf	?__Umul8_16
  5543  15EA                     l751:
  5544  15EA  0008               	return
  5545  15EB                     __end_of__Umul8_16:
  5546                           
  5547                           	psect	text12
  5548  175E                     __ptext12:	
  5549 ;; *************** function ___flge *****************
  5550 ;; Defined at:
  5551 ;;		line 4 in file "C:\Program Files\Microchip\xc8\v2.32\pic\sources\c90\common\flge.c"
  5552 ;; Parameters:    Size  Location     Type
  5553 ;;  ff1             4    0[COMMON] unsigned int 
  5554 ;;  ff2             4    4[COMMON] unsigned int 
  5555 ;; Auto vars:     Size  Location     Type
  5556 ;;		None
  5557 ;; Return value:  Size  Location     Type
  5558 ;;		None               void
  5559 ;; Registers used:
  5560 ;;		wreg, status,2, status,0
  5561 ;; Tracked objects:
  5562 ;;		On entry : 0/0
  5563 ;;		On exit  : 0/0
  5564 ;;		Unchanged: 0/0
  5565 ;; Data sizes:     COMMON   BANK0   BANK1   BANK3   BANK2
  5566 ;;      Params:         8       0       0       0       0
  5567 ;;      Locals:         0       0       0       0       0
  5568 ;;      Temps:          4       0       0       0       0
  5569 ;;      Totals:        12       0       0       0       0
  5570 ;;Total ram usage:       12 bytes
  5571 ;; Hardware stack levels used: 1
  5572 ;; This function calls:
  5573 ;;		Nothing
  5574 ;; This function is called by:
  5575 ;;		_convert
  5576 ;; This function uses a non-reentrant model
  5577 ;;
  5578                           
  5579                           
  5580                           ;psect for function ___flge
  5581  175E                     ___flge:
  5582  175E                     l2217:	
  5583                           ;incstack = 0
  5584                           ; Regs used in ___flge: [wreg+status,2+status,0]
  5585                           
  5586  175E  3000               	movlw	0
  5587  175F  0570               	andwf	___flge@ff1,w
  5588  1760  00F8               	movwf	??___flge
  5589  1761  3000               	movlw	0
  5590  1762  0571               	andwf	___flge@ff1+1,w
  5591  1763  00F9               	movwf	??___flge+1
  5592  1764  3080               	movlw	128
  5593  1765  0572               	andwf	___flge@ff1+2,w
  5594  1766  00FA               	movwf	??___flge+2
  5595  1767  307F               	movlw	127
  5596  1768  0573               	andwf	___flge@ff1+3,w
  5597  1769  00FB               	movwf	??___flge+3
  5598  176A  087B               	movf	??___flge+3,w
  5599  176B  047A               	iorwf	??___flge+2,w
  5600  176C  0479               	iorwf	??___flge+1,w
  5601  176D  0478               	iorwf	??___flge,w
  5602  176E  1D03               	skipz
  5603  176F  2F71               	goto	u2641
  5604  1770  2F72               	goto	u2640
  5605  1771                     u2641:
  5606  1771  2F7A               	goto	l515
  5607  1772                     u2640:
  5608  1772                     l2219:
  5609  1772  3000               	movlw	0
  5610  1773  00F3               	movwf	___flge@ff1+3
  5611  1774  3000               	movlw	0
  5612  1775  00F2               	movwf	___flge@ff1+2
  5613  1776  3000               	movlw	0
  5614  1777  00F1               	movwf	___flge@ff1+1
  5615  1778  3000               	movlw	0
  5616  1779  00F0               	movwf	___flge@ff1
  5617  177A                     l515:
  5618  177A  3000               	movlw	0
  5619  177B  0574               	andwf	___flge@ff2,w
  5620  177C  00F8               	movwf	??___flge
  5621  177D  3000               	movlw	0
  5622  177E  0575               	andwf	___flge@ff2+1,w
  5623  177F  00F9               	movwf	??___flge+1
  5624  1780  3080               	movlw	128
  5625  1781  0576               	andwf	___flge@ff2+2,w
  5626  1782  00FA               	movwf	??___flge+2
  5627  1783  307F               	movlw	127
  5628  1784  0577               	andwf	___flge@ff2+3,w
  5629  1785  00FB               	movwf	??___flge+3
  5630  1786  087B               	movf	??___flge+3,w
  5631  1787  047A               	iorwf	??___flge+2,w
  5632  1788  0479               	iorwf	??___flge+1,w
  5633  1789  0478               	iorwf	??___flge,w
  5634  178A  1D03               	skipz
  5635  178B  2F8D               	goto	u2651
  5636  178C  2F8E               	goto	u2650
  5637  178D                     u2651:
  5638  178D  2F96               	goto	l2223
  5639  178E                     u2650:
  5640  178E                     l2221:
  5641  178E  3000               	movlw	0
  5642  178F  00F7               	movwf	___flge@ff2+3
  5643  1790  3000               	movlw	0
  5644  1791  00F6               	movwf	___flge@ff2+2
  5645  1792  3000               	movlw	0
  5646  1793  00F5               	movwf	___flge@ff2+1
  5647  1794  3000               	movlw	0
  5648  1795  00F4               	movwf	___flge@ff2
  5649  1796                     l2223:
  5650  1796  1FF3               	btfss	___flge@ff1+3,7
  5651  1797  2F99               	goto	u2661
  5652  1798  2F9A               	goto	u2660
  5653  1799                     u2661:
  5654  1799  2FBE               	goto	l2227
  5655  179A                     u2660:
  5656  179A                     l2225:
  5657  179A  3000               	movlw	0
  5658  179B  00F8               	movwf	??___flge
  5659  179C  3000               	movlw	0
  5660  179D  00F9               	movwf	??___flge+1
  5661  179E  3000               	movlw	0
  5662  179F  00FA               	movwf	??___flge+2
  5663  17A0  3080               	movlw	128
  5664  17A1  00FB               	movwf	??___flge+3
  5665  17A2  0870               	movf	___flge@ff1,w
  5666  17A3  02F8               	subwf	??___flge,f
  5667  17A4  0871               	movf	___flge@ff1+1,w
  5668  17A5  1C03               	skipc
  5669  17A6  0F71               	incfsz	___flge@ff1+1,w
  5670  17A7  2FA9               	goto	u2671
  5671  17A8  2FAA               	goto	u2672
  5672  17A9                     u2671:
  5673  17A9  02F9               	subwf	??___flge+1,f
  5674  17AA                     u2672:
  5675  17AA  0872               	movf	___flge@ff1+2,w
  5676  17AB  1C03               	skipc
  5677  17AC  0F72               	incfsz	___flge@ff1+2,w
  5678  17AD  2FAF               	goto	u2673
  5679  17AE  2FB0               	goto	u2674
  5680  17AF                     u2673:
  5681  17AF  02FA               	subwf	??___flge+2,f
  5682  17B0                     u2674:
  5683  17B0  0873               	movf	___flge@ff1+3,w
  5684  17B1  1C03               	skipc
  5685  17B2  0F73               	incfsz	___flge@ff1+3,w
  5686  17B3  2FB5               	goto	u2675
  5687  17B4  2FB6               	goto	u2676
  5688  17B5                     u2675:
  5689  17B5  02FB               	subwf	??___flge+3,f
  5690  17B6                     u2676:
  5691  17B6  087B               	movf	??___flge+3,w
  5692  17B7  00F3               	movwf	___flge@ff1+3
  5693  17B8  087A               	movf	??___flge+2,w
  5694  17B9  00F2               	movwf	___flge@ff1+2
  5695  17BA  0879               	movf	??___flge+1,w
  5696  17BB  00F1               	movwf	___flge@ff1+1
  5697  17BC  0878               	movf	??___flge,w
  5698  17BD  00F0               	movwf	___flge@ff1
  5699  17BE                     l2227:
  5700  17BE  1FF7               	btfss	___flge@ff2+3,7
  5701  17BF  2FC1               	goto	u2681
  5702  17C0  2FC2               	goto	u2680
  5703  17C1                     u2681:
  5704  17C1  2FE6               	goto	l518
  5705  17C2                     u2680:
  5706  17C2                     l2229:
  5707  17C2  3000               	movlw	0
  5708  17C3  00F8               	movwf	??___flge
  5709  17C4  3000               	movlw	0
  5710  17C5  00F9               	movwf	??___flge+1
  5711  17C6  3000               	movlw	0
  5712  17C7  00FA               	movwf	??___flge+2
  5713  17C8  3080               	movlw	128
  5714  17C9  00FB               	movwf	??___flge+3
  5715  17CA  0874               	movf	___flge@ff2,w
  5716  17CB  02F8               	subwf	??___flge,f
  5717  17CC  0875               	movf	___flge@ff2+1,w
  5718  17CD  1C03               	skipc
  5719  17CE  0F75               	incfsz	___flge@ff2+1,w
  5720  17CF  2FD1               	goto	u2691
  5721  17D0  2FD2               	goto	u2692
  5722  17D1                     u2691:
  5723  17D1  02F9               	subwf	??___flge+1,f
  5724  17D2                     u2692:
  5725  17D2  0876               	movf	___flge@ff2+2,w
  5726  17D3  1C03               	skipc
  5727  17D4  0F76               	incfsz	___flge@ff2+2,w
  5728  17D5  2FD7               	goto	u2693
  5729  17D6  2FD8               	goto	u2694
  5730  17D7                     u2693:
  5731  17D7  02FA               	subwf	??___flge+2,f
  5732  17D8                     u2694:
  5733  17D8  0877               	movf	___flge@ff2+3,w
  5734  17D9  1C03               	skipc
  5735  17DA  0F77               	incfsz	___flge@ff2+3,w
  5736  17DB  2FDD               	goto	u2695
  5737  17DC  2FDE               	goto	u2696
  5738  17DD                     u2695:
  5739  17DD  02FB               	subwf	??___flge+3,f
  5740  17DE                     u2696:
  5741  17DE  087B               	movf	??___flge+3,w
  5742  17DF  00F7               	movwf	___flge@ff2+3
  5743  17E0  087A               	movf	??___flge+2,w
  5744  17E1  00F6               	movwf	___flge@ff2+2
  5745  17E2  0879               	movf	??___flge+1,w
  5746  17E3  00F5               	movwf	___flge@ff2+1
  5747  17E4  0878               	movf	??___flge,w
  5748  17E5  00F4               	movwf	___flge@ff2
  5749  17E6                     l518:
  5750  17E6  3080               	movlw	128
  5751  17E7  06F3               	xorwf	___flge@ff1+3,f
  5752  17E8  3080               	movlw	128
  5753  17E9  06F7               	xorwf	___flge@ff2+3,f
  5754  17EA  0877               	movf	___flge@ff2+3,w
  5755  17EB  0273               	subwf	___flge@ff1+3,w
  5756  17EC  1D03               	skipz
  5757  17ED  2FF8               	goto	u2705
  5758  17EE  0876               	movf	___flge@ff2+2,w
  5759  17EF  0272               	subwf	___flge@ff1+2,w
  5760  17F0  1D03               	skipz
  5761  17F1  2FF8               	goto	u2705
  5762  17F2  0875               	movf	___flge@ff2+1,w
  5763  17F3  0271               	subwf	___flge@ff1+1,w
  5764  17F4  1D03               	skipz
  5765  17F5  2FF8               	goto	u2705
  5766  17F6  0874               	movf	___flge@ff2,w
  5767  17F7  0270               	subwf	___flge@ff1,w
  5768  17F8                     u2705:
  5769  17F8  1803               	skipnc
  5770  17F9  2FFB               	goto	u2701
  5771  17FA  2FFC               	goto	u2700
  5772  17FB                     u2701:
  5773  17FB  2FFE               	goto	l2233
  5774  17FC                     u2700:
  5775  17FC                     l2231:
  5776  17FC  1003               	clrc
  5777  17FD  2FFF               	goto	l519
  5778  17FE                     l2233:
  5779  17FE  1403               	setc
  5780  17FF                     l519:
  5781  17FF  0008               	return
  5782  1800                     __end_of___flge:
  5783                           
  5784                           	psect	text13
  5785  0930                     __ptext13:	
  5786 ;; *************** function ___fldiv *****************
  5787 ;; Defined at:
  5788 ;;		line 8 in file "C:\Program Files\Microchip\xc8\v2.32\pic\sources\c90\common\sprcdiv.c"
  5789 ;; Parameters:    Size  Location     Type
  5790 ;;  a               4   18[BANK0 ] unsigned int 
  5791 ;;  b               4   22[BANK0 ] unsigned int 
  5792 ;; Auto vars:     Size  Location     Type
  5793 ;;  grs             4   38[BANK0 ] unsigned long 
  5794 ;;  rem             4   31[BANK0 ] unsigned long 
  5795 ;;  new_exp         2   36[BANK0 ] int 
  5796 ;;  aexp            1   43[BANK0 ] unsigned char 
  5797 ;;  bexp            1   42[BANK0 ] unsigned char 
  5798 ;;  sign            1   35[BANK0 ] unsigned char 
  5799 ;; Return value:  Size  Location     Type
  5800 ;;                  4   18[BANK0 ] unsigned char 
  5801 ;; Registers used:
  5802 ;;		wreg, status,2, status,0, btemp+1
  5803 ;; Tracked objects:
  5804 ;;		On entry : 0/0
  5805 ;;		On exit  : 0/0
  5806 ;;		Unchanged: 0/0
  5807 ;; Data sizes:     COMMON   BANK0   BANK1   BANK3   BANK2
  5808 ;;      Params:         0       8       0       0       0
  5809 ;;      Locals:         0      13       0       0       0
  5810 ;;      Temps:          0       5       0       0       0
  5811 ;;      Totals:         0      26       0       0       0
  5812 ;;Total ram usage:       26 bytes
  5813 ;; Hardware stack levels used: 1
  5814 ;; This function calls:
  5815 ;;		Nothing
  5816 ;; This function is called by:
  5817 ;;		_main
  5818 ;;		_convert
  5819 ;; This function uses a non-reentrant model
  5820 ;;
  5821                           
  5822                           
  5823                           ;psect for function ___fldiv
  5824  0930                     ___fldiv:
  5825  0930                     l2279:	
  5826                           ;incstack = 0
  5827                           ; Regs used in ___fldiv: [wreg+status,2+status,0+btemp+1]
  5828                           
  5829  0930  1283               	bcf	3,5	;RP0=0, select bank0
  5830  0931  1303               	bcf	3,6	;RP1=0, select bank0
  5831  0932  0839               	movf	___fldiv@b+3,w
  5832  0933  3980               	andlw	128
  5833  0934  00BA               	movwf	??___fldiv
  5834  0935  083A               	movf	??___fldiv,w
  5835  0936  00C3               	movwf	___fldiv@sign
  5836  0937                     l2281:
  5837  0937  0839               	movf	___fldiv@b+3,w
  5838  0938  00BA               	movwf	??___fldiv
  5839  0939  073A               	addwf	??___fldiv,w
  5840  093A  00BB               	movwf	??___fldiv+1
  5841  093B  083B               	movf	??___fldiv+1,w
  5842  093C  00CA               	movwf	___fldiv@bexp
  5843  093D                     l2283:
  5844  093D  1FB8               	btfss	___fldiv@b+2,7
  5845  093E  2940               	goto	u2811
  5846  093F  2941               	goto	u2810
  5847  0940                     u2811:
  5848  0940  2942               	goto	l2287
  5849  0941                     u2810:
  5850  0941                     l2285:
  5851  0941  144A               	bsf	___fldiv@bexp,0
  5852  0942                     l2287:
  5853  0942  084A               	movf	___fldiv@bexp,w
  5854  0943  1903               	btfsc	3,2
  5855  0944  2946               	goto	u2821
  5856  0945  2947               	goto	u2820
  5857  0946                     u2821:
  5858  0946  2957               	goto	l2297
  5859  0947                     u2820:
  5860  0947                     l2289:
  5861  0947  0A4A               	incf	___fldiv@bexp,w
  5862  0948  1D03               	btfss	3,2
  5863  0949  294B               	goto	u2831
  5864  094A  294C               	goto	u2830
  5865  094B                     u2831:
  5866  094B  2954               	goto	l2293
  5867  094C                     u2830:
  5868  094C                     l2291:
  5869  094C  3000               	movlw	0
  5870  094D  00B9               	movwf	___fldiv@b+3
  5871  094E  3000               	movlw	0
  5872  094F  00B8               	movwf	___fldiv@b+2
  5873  0950  3000               	movlw	0
  5874  0951  00B7               	movwf	___fldiv@b+1
  5875  0952  3000               	movlw	0
  5876  0953  00B6               	movwf	___fldiv@b
  5877  0954                     l2293:
  5878  0954  17B8               	bsf	___fldiv@b+2,7
  5879  0955                     l2295:
  5880  0955  01B9               	clrf	___fldiv@b+3
  5881  0956  295F               	goto	l2299
  5882  0957                     l2297:
  5883  0957  3000               	movlw	0
  5884  0958  00B9               	movwf	___fldiv@b+3
  5885  0959  3000               	movlw	0
  5886  095A  00B8               	movwf	___fldiv@b+2
  5887  095B  3000               	movlw	0
  5888  095C  00B7               	movwf	___fldiv@b+1
  5889  095D  3000               	movlw	0
  5890  095E  00B6               	movwf	___fldiv@b
  5891  095F                     l2299:
  5892  095F  0835               	movf	___fldiv@a+3,w
  5893  0960  3980               	andlw	128
  5894  0961  00BA               	movwf	??___fldiv
  5895  0962  083A               	movf	??___fldiv,w
  5896  0963  06C3               	xorwf	___fldiv@sign,f
  5897  0964                     l2301:
  5898  0964  0835               	movf	___fldiv@a+3,w
  5899  0965  00BA               	movwf	??___fldiv
  5900  0966  073A               	addwf	??___fldiv,w
  5901  0967  00BB               	movwf	??___fldiv+1
  5902  0968  083B               	movf	??___fldiv+1,w
  5903  0969  00CB               	movwf	___fldiv@aexp
  5904  096A                     l2303:
  5905  096A  1FB4               	btfss	___fldiv@a+2,7
  5906  096B  296D               	goto	u2841
  5907  096C  296E               	goto	u2840
  5908  096D                     u2841:
  5909  096D  296F               	goto	l2307
  5910  096E                     u2840:
  5911  096E                     l2305:
  5912  096E  144B               	bsf	___fldiv@aexp,0
  5913  096F                     l2307:
  5914  096F  084B               	movf	___fldiv@aexp,w
  5915  0970  1903               	btfsc	3,2
  5916  0971  2973               	goto	u2851
  5917  0972  2974               	goto	u2850
  5918  0973                     u2851:
  5919  0973  2984               	goto	l2317
  5920  0974                     u2850:
  5921  0974                     l2309:
  5922  0974  0A4B               	incf	___fldiv@aexp,w
  5923  0975  1D03               	btfss	3,2
  5924  0976  2978               	goto	u2861
  5925  0977  2979               	goto	u2860
  5926  0978                     u2861:
  5927  0978  2981               	goto	l2313
  5928  0979                     u2860:
  5929  0979                     l2311:
  5930  0979  3000               	movlw	0
  5931  097A  00B5               	movwf	___fldiv@a+3
  5932  097B  3000               	movlw	0
  5933  097C  00B4               	movwf	___fldiv@a+2
  5934  097D  3000               	movlw	0
  5935  097E  00B3               	movwf	___fldiv@a+1
  5936  097F  3000               	movlw	0
  5937  0980  00B2               	movwf	___fldiv@a
  5938  0981                     l2313:
  5939  0981  17B4               	bsf	___fldiv@a+2,7
  5940  0982                     l2315:
  5941  0982  01B5               	clrf	___fldiv@a+3
  5942  0983  298C               	goto	l690
  5943  0984                     l2317:
  5944  0984  3000               	movlw	0
  5945  0985  00B5               	movwf	___fldiv@a+3
  5946  0986  3000               	movlw	0
  5947  0987  00B4               	movwf	___fldiv@a+2
  5948  0988  3000               	movlw	0
  5949  0989  00B3               	movwf	___fldiv@a+1
  5950  098A  3000               	movlw	0
  5951  098B  00B2               	movwf	___fldiv@a
  5952  098C                     l690:
  5953  098C  0835               	movf	___fldiv@a+3,w
  5954  098D  0434               	iorwf	___fldiv@a+2,w
  5955  098E  0433               	iorwf	___fldiv@a+1,w
  5956  098F  0432               	iorwf	___fldiv@a,w
  5957  0990  1D03               	skipz
  5958  0991  2993               	goto	u2871
  5959  0992  2994               	goto	u2870
  5960  0993                     u2871:
  5961  0993  29AD               	goto	l2327
  5962  0994                     u2870:
  5963  0994                     l2319:
  5964  0994  3000               	movlw	0
  5965  0995  00B9               	movwf	___fldiv@b+3
  5966  0996  3000               	movlw	0
  5967  0997  00B8               	movwf	___fldiv@b+2
  5968  0998  3000               	movlw	0
  5969  0999  00B7               	movwf	___fldiv@b+1
  5970  099A  3000               	movlw	0
  5971  099B  00B6               	movwf	___fldiv@b
  5972  099C  3080               	movlw	128
  5973  099D  04B8               	iorwf	___fldiv@b+2,f
  5974  099E  307F               	movlw	127
  5975  099F  04B9               	iorwf	___fldiv@b+3,f
  5976  09A0                     l2321:
  5977  09A0  0843               	movf	___fldiv@sign,w
  5978  09A1  00BA               	movwf	??___fldiv
  5979  09A2  083A               	movf	??___fldiv,w
  5980  09A3  04B9               	iorwf	___fldiv@b+3,f
  5981  09A4                     l2323:
  5982  09A4  0839               	movf	___fldiv@b+3,w
  5983  09A5  00B5               	movwf	?___fldiv+3
  5984  09A6  0838               	movf	___fldiv@b+2,w
  5985  09A7  00B4               	movwf	?___fldiv+2
  5986  09A8  0837               	movf	___fldiv@b+1,w
  5987  09A9  00B3               	movwf	?___fldiv+1
  5988  09AA  0836               	movf	___fldiv@b,w
  5989  09AB  00B2               	movwf	?___fldiv
  5990  09AC  2B0C               	goto	l692
  5991  09AD                     l2327:
  5992  09AD  084A               	movf	___fldiv@bexp,w
  5993  09AE  1D03               	btfss	3,2
  5994  09AF  29B1               	goto	u2881
  5995  09B0  29B2               	goto	u2880
  5996  09B1                     u2881:
  5997  09B1  29BB               	goto	l2333
  5998  09B2                     u2880:
  5999  09B2                     l2329:
  6000  09B2  3000               	movlw	0
  6001  09B3  00B5               	movwf	?___fldiv+3
  6002  09B4  3000               	movlw	0
  6003  09B5  00B4               	movwf	?___fldiv+2
  6004  09B6  3000               	movlw	0
  6005  09B7  00B3               	movwf	?___fldiv+1
  6006  09B8  3000               	movlw	0
  6007  09B9  00B2               	movwf	?___fldiv
  6008  09BA  2B0C               	goto	l692
  6009  09BB                     l2333:
  6010  09BB  084A               	movf	___fldiv@bexp,w
  6011  09BC  00BA               	movwf	??___fldiv
  6012  09BD  01BB               	clrf	??___fldiv+1
  6013  09BE  083B               	movf	??___fldiv+1,w
  6014  09BF  00BD               	movwf	??___fldiv+3
  6015  09C0  084B               	movf	___fldiv@aexp,w
  6016  09C1  023A               	subwf	??___fldiv,w
  6017  09C2  00BC               	movwf	??___fldiv+2
  6018  09C3  1C03               	skipc
  6019  09C4  03BD               	decf	??___fldiv+3,f
  6020  09C5  083C               	movf	??___fldiv+2,w
  6021  09C6  3E7F               	addlw	127
  6022  09C7  00C4               	movwf	___fldiv@new_exp
  6023  09C8  083D               	movf	??___fldiv+3,w
  6024  09C9  1803               	skipnc
  6025  09CA  3E01               	addlw	1
  6026  09CB  3E00               	addlw	0
  6027  09CC  00C5               	movwf	___fldiv@new_exp+1
  6028  09CD                     l2335:
  6029  09CD  0839               	movf	___fldiv@b+3,w
  6030  09CE  00C2               	movwf	___fldiv@rem+3
  6031  09CF  0838               	movf	___fldiv@b+2,w
  6032  09D0  00C1               	movwf	___fldiv@rem+2
  6033  09D1  0837               	movf	___fldiv@b+1,w
  6034  09D2  00C0               	movwf	___fldiv@rem+1
  6035  09D3  0836               	movf	___fldiv@b,w
  6036  09D4  00BF               	movwf	___fldiv@rem
  6037  09D5                     l2337:
  6038  09D5  3000               	movlw	0
  6039  09D6  00B9               	movwf	___fldiv@b+3
  6040  09D7  3000               	movlw	0
  6041  09D8  00B8               	movwf	___fldiv@b+2
  6042  09D9  3000               	movlw	0
  6043  09DA  00B7               	movwf	___fldiv@b+1
  6044  09DB  3000               	movlw	0
  6045  09DC  00B6               	movwf	___fldiv@b
  6046  09DD                     l2339:
  6047  09DD  3000               	movlw	0
  6048  09DE  00C9               	movwf	___fldiv@grs+3
  6049  09DF  3000               	movlw	0
  6050  09E0  00C8               	movwf	___fldiv@grs+2
  6051  09E1  3000               	movlw	0
  6052  09E2  00C7               	movwf	___fldiv@grs+1
  6053  09E3  3000               	movlw	0
  6054  09E4  00C6               	movwf	___fldiv@grs
  6055  09E5                     l2341:
  6056  09E5  01CB               	clrf	___fldiv@aexp
  6057  09E6  2A31               	goto	l2361
  6058  09E7                     l2343:
  6059  09E7  084B               	movf	___fldiv@aexp,w
  6060  09E8  1903               	btfsc	3,2
  6061  09E9  29EB               	goto	u2891
  6062  09EA  29EC               	goto	u2890
  6063  09EB                     u2891:
  6064  09EB  2A0C               	goto	l2353
  6065  09EC                     u2890:
  6066  09EC                     l2345:
  6067  09EC  3001               	movlw	1
  6068  09ED  00BA               	movwf	??___fldiv
  6069  09EE                     u2905:
  6070  09EE  1003               	clrc
  6071  09EF  0DBF               	rlf	___fldiv@rem,f
  6072  09F0  0DC0               	rlf	___fldiv@rem+1,f
  6073  09F1  0DC1               	rlf	___fldiv@rem+2,f
  6074  09F2  0DC2               	rlf	___fldiv@rem+3,f
  6075  09F3  0BBA               	decfsz	??___fldiv,f
  6076  09F4  29EE               	goto	u2905
  6077  09F5  3001               	movlw	1
  6078  09F6  00BA               	movwf	??___fldiv
  6079  09F7                     u2915:
  6080  09F7  1003               	clrc
  6081  09F8  0DB6               	rlf	___fldiv@b,f
  6082  09F9  0DB7               	rlf	___fldiv@b+1,f
  6083  09FA  0DB8               	rlf	___fldiv@b+2,f
  6084  09FB  0DB9               	rlf	___fldiv@b+3,f
  6085  09FC  0BBA               	decfsz	??___fldiv,f
  6086  09FD  29F7               	goto	u2915
  6087  09FE                     l2347:
  6088  09FE  1FC9               	btfss	___fldiv@grs+3,7
  6089  09FF  2A01               	goto	u2921
  6090  0A00  2A02               	goto	u2920
  6091  0A01                     u2921:
  6092  0A01  2A03               	goto	l2351
  6093  0A02                     u2920:
  6094  0A02                     l2349:
  6095  0A02  1436               	bsf	___fldiv@b,0
  6096  0A03                     l2351:
  6097  0A03  3001               	movlw	1
  6098  0A04  00BA               	movwf	??___fldiv
  6099  0A05                     u2935:
  6100  0A05  1003               	clrc
  6101  0A06  0DC6               	rlf	___fldiv@grs,f
  6102  0A07  0DC7               	rlf	___fldiv@grs+1,f
  6103  0A08  0DC8               	rlf	___fldiv@grs+2,f
  6104  0A09  0DC9               	rlf	___fldiv@grs+3,f
  6105  0A0A  0BBA               	decfsz	??___fldiv,f
  6106  0A0B  2A05               	goto	u2935
  6107  0A0C                     l2353:
  6108  0A0C  0835               	movf	___fldiv@a+3,w
  6109  0A0D  0242               	subwf	___fldiv@rem+3,w
  6110  0A0E  1D03               	skipz
  6111  0A0F  2A1A               	goto	u2945
  6112  0A10  0834               	movf	___fldiv@a+2,w
  6113  0A11  0241               	subwf	___fldiv@rem+2,w
  6114  0A12  1D03               	skipz
  6115  0A13  2A1A               	goto	u2945
  6116  0A14  0833               	movf	___fldiv@a+1,w
  6117  0A15  0240               	subwf	___fldiv@rem+1,w
  6118  0A16  1D03               	skipz
  6119  0A17  2A1A               	goto	u2945
  6120  0A18  0832               	movf	___fldiv@a,w
  6121  0A19  023F               	subwf	___fldiv@rem,w
  6122  0A1A                     u2945:
  6123  0A1A  1C03               	skipc
  6124  0A1B  2A1D               	goto	u2941
  6125  0A1C  2A1E               	goto	u2940
  6126  0A1D                     u2941:
  6127  0A1D  2A2D               	goto	l2359
  6128  0A1E                     u2940:
  6129  0A1E                     l2355:
  6130  0A1E  1749               	bsf	___fldiv@grs+3,6
  6131  0A1F                     l2357:
  6132  0A1F  0832               	movf	___fldiv@a,w
  6133  0A20  02BF               	subwf	___fldiv@rem,f
  6134  0A21  0833               	movf	___fldiv@a+1,w
  6135  0A22  1C03               	skipc
  6136  0A23  0F33               	incfsz	___fldiv@a+1,w
  6137  0A24  02C0               	subwf	___fldiv@rem+1,f
  6138  0A25  0834               	movf	___fldiv@a+2,w
  6139  0A26  1C03               	skipc
  6140  0A27  0F34               	incfsz	___fldiv@a+2,w
  6141  0A28  02C1               	subwf	___fldiv@rem+2,f
  6142  0A29  0835               	movf	___fldiv@a+3,w
  6143  0A2A  1C03               	skipc
  6144  0A2B  0F35               	incfsz	___fldiv@a+3,w
  6145  0A2C  02C2               	subwf	___fldiv@rem+3,f
  6146  0A2D                     l2359:
  6147  0A2D  3001               	movlw	1
  6148  0A2E  00BA               	movwf	??___fldiv
  6149  0A2F  083A               	movf	??___fldiv,w
  6150  0A30  07CB               	addwf	___fldiv@aexp,f
  6151  0A31                     l2361:
  6152  0A31  301A               	movlw	26
  6153  0A32  024B               	subwf	___fldiv@aexp,w
  6154  0A33  1C03               	skipc
  6155  0A34  2A36               	goto	u2951
  6156  0A35  2A37               	goto	u2950
  6157  0A36                     u2951:
  6158  0A36  29E7               	goto	l2343
  6159  0A37                     u2950:
  6160  0A37                     l2363:
  6161  0A37  0842               	movf	___fldiv@rem+3,w
  6162  0A38  0441               	iorwf	___fldiv@rem+2,w
  6163  0A39  0440               	iorwf	___fldiv@rem+1,w
  6164  0A3A  043F               	iorwf	___fldiv@rem,w
  6165  0A3B  1903               	skipnz
  6166  0A3C  2A3E               	goto	u2961
  6167  0A3D  2A3F               	goto	u2960
  6168  0A3E                     u2961:
  6169  0A3E  2A5E               	goto	l2377
  6170  0A3F                     u2960:
  6171  0A3F                     l2365:
  6172  0A3F  1446               	bsf	___fldiv@grs,0
  6173  0A40  2A5E               	goto	l2377
  6174  0A41                     l2367:
  6175  0A41  3001               	movlw	1
  6176  0A42  00BA               	movwf	??___fldiv
  6177  0A43                     u2975:
  6178  0A43  1003               	clrc
  6179  0A44  0DB6               	rlf	___fldiv@b,f
  6180  0A45  0DB7               	rlf	___fldiv@b+1,f
  6181  0A46  0DB8               	rlf	___fldiv@b+2,f
  6182  0A47  0DB9               	rlf	___fldiv@b+3,f
  6183  0A48  0BBA               	decfsz	??___fldiv,f
  6184  0A49  2A43               	goto	u2975
  6185  0A4A                     l2369:
  6186  0A4A  1FC9               	btfss	___fldiv@grs+3,7
  6187  0A4B  2A4D               	goto	u2981
  6188  0A4C  2A4E               	goto	u2980
  6189  0A4D                     u2981:
  6190  0A4D  2A4F               	goto	l2373
  6191  0A4E                     u2980:
  6192  0A4E                     l2371:
  6193  0A4E  1436               	bsf	___fldiv@b,0
  6194  0A4F                     l2373:
  6195  0A4F  3001               	movlw	1
  6196  0A50  00BA               	movwf	??___fldiv
  6197  0A51                     u2995:
  6198  0A51  1003               	clrc
  6199  0A52  0DC6               	rlf	___fldiv@grs,f
  6200  0A53  0DC7               	rlf	___fldiv@grs+1,f
  6201  0A54  0DC8               	rlf	___fldiv@grs+2,f
  6202  0A55  0DC9               	rlf	___fldiv@grs+3,f
  6203  0A56  0BBA               	decfsz	??___fldiv,f
  6204  0A57  2A51               	goto	u2995
  6205  0A58                     l2375:
  6206  0A58  30FF               	movlw	255
  6207  0A59  07C4               	addwf	___fldiv@new_exp,f
  6208  0A5A  1803               	skipnc
  6209  0A5B  0AC5               	incf	___fldiv@new_exp+1,f
  6210  0A5C  30FF               	movlw	255
  6211  0A5D  07C5               	addwf	___fldiv@new_exp+1,f
  6212  0A5E                     l2377:
  6213  0A5E  1FB8               	btfss	___fldiv@b+2,7
  6214  0A5F  2A61               	goto	u3001
  6215  0A60  2A62               	goto	u3000
  6216  0A61                     u3001:
  6217  0A61  2A41               	goto	l2367
  6218  0A62                     u3000:
  6219  0A62                     l2379:
  6220  0A62  01CB               	clrf	___fldiv@aexp
  6221  0A63                     l2381:
  6222  0A63  1FC9               	btfss	___fldiv@grs+3,7
  6223  0A64  2A66               	goto	u3011
  6224  0A65  2A67               	goto	u3010
  6225  0A66                     u3011:
  6226  0A66  2A83               	goto	l2389
  6227  0A67                     u3010:
  6228  0A67                     l2383:
  6229  0A67  30FF               	movlw	255
  6230  0A68  0546               	andwf	___fldiv@grs,w
  6231  0A69  00BA               	movwf	??___fldiv
  6232  0A6A  30FF               	movlw	255
  6233  0A6B  0547               	andwf	___fldiv@grs+1,w
  6234  0A6C  00BB               	movwf	??___fldiv+1
  6235  0A6D  30FF               	movlw	255
  6236  0A6E  0548               	andwf	___fldiv@grs+2,w
  6237  0A6F  00BC               	movwf	??___fldiv+2
  6238  0A70  307F               	movlw	127
  6239  0A71  0549               	andwf	___fldiv@grs+3,w
  6240  0A72  00BD               	movwf	??___fldiv+3
  6241  0A73  083D               	movf	??___fldiv+3,w
  6242  0A74  043C               	iorwf	??___fldiv+2,w
  6243  0A75  043B               	iorwf	??___fldiv+1,w
  6244  0A76  043A               	iorwf	??___fldiv,w
  6245  0A77  1903               	skipnz
  6246  0A78  2A7A               	goto	u3021
  6247  0A79  2A7B               	goto	u3020
  6248  0A7A                     u3021:
  6249  0A7A  2A7E               	goto	l706
  6250  0A7B                     u3020:
  6251  0A7B                     l2385:
  6252  0A7B  01CB               	clrf	___fldiv@aexp
  6253  0A7C  0ACB               	incf	___fldiv@aexp,f
  6254  0A7D  2A83               	goto	l2389
  6255  0A7E                     l706:
  6256  0A7E  1C36               	btfss	___fldiv@b,0
  6257  0A7F  2A81               	goto	u3031
  6258  0A80  2A82               	goto	u3030
  6259  0A81                     u3031:
  6260  0A81  2A83               	goto	l2389
  6261  0A82                     u3030:
  6262  0A82  2A7B               	goto	l2385
  6263  0A83                     l2389:
  6264  0A83  084B               	movf	___fldiv@aexp,w
  6265  0A84  1903               	btfsc	3,2
  6266  0A85  2A87               	goto	u3041
  6267  0A86  2A88               	goto	u3040
  6268  0A87                     u3041:
  6269  0A87  2AB9               	goto	l2399
  6270  0A88                     u3040:
  6271  0A88                     l2391:
  6272  0A88  3001               	movlw	1
  6273  0A89  07B6               	addwf	___fldiv@b,f
  6274  0A8A  3000               	movlw	0
  6275  0A8B  1803               	skipnc
  6276  0A8C  3001               	movlw	1
  6277  0A8D  07B7               	addwf	___fldiv@b+1,f
  6278  0A8E  3000               	movlw	0
  6279  0A8F  1803               	skipnc
  6280  0A90  3001               	movlw	1
  6281  0A91  07B8               	addwf	___fldiv@b+2,f
  6282  0A92  3000               	movlw	0
  6283  0A93  1803               	skipnc
  6284  0A94  3001               	movlw	1
  6285  0A95  07B9               	addwf	___fldiv@b+3,f
  6286  0A96                     l2393:
  6287  0A96  1C39               	btfss	___fldiv@b+3,0
  6288  0A97  2A99               	goto	u3051
  6289  0A98  2A9A               	goto	u3050
  6290  0A99                     u3051:
  6291  0A99  2AB9               	goto	l2399
  6292  0A9A                     u3050:
  6293  0A9A                     l2395:
  6294  0A9A  0836               	movf	___fldiv@b,w
  6295  0A9B  00BA               	movwf	??___fldiv
  6296  0A9C  0837               	movf	___fldiv@b+1,w
  6297  0A9D  00BB               	movwf	??___fldiv+1
  6298  0A9E  0838               	movf	___fldiv@b+2,w
  6299  0A9F  00BC               	movwf	??___fldiv+2
  6300  0AA0  0839               	movf	___fldiv@b+3,w
  6301  0AA1  00BD               	movwf	??___fldiv+3
  6302  0AA2  3001               	movlw	1
  6303  0AA3  00BE               	movwf	??___fldiv+4
  6304  0AA4                     u3065:
  6305  0AA4  0D3D               	rlf	??___fldiv+3,w
  6306  0AA5  0CBD               	rrf	??___fldiv+3,f
  6307  0AA6  0CBC               	rrf	??___fldiv+2,f
  6308  0AA7  0CBB               	rrf	??___fldiv+1,f
  6309  0AA8  0CBA               	rrf	??___fldiv,f
  6310  0AA9                     u3060:
  6311  0AA9  0BBE               	decfsz	??___fldiv+4,f
  6312  0AAA  2AA4               	goto	u3065
  6313  0AAB  083D               	movf	??___fldiv+3,w
  6314  0AAC  00B9               	movwf	___fldiv@b+3
  6315  0AAD  083C               	movf	??___fldiv+2,w
  6316  0AAE  00B8               	movwf	___fldiv@b+2
  6317  0AAF  083B               	movf	??___fldiv+1,w
  6318  0AB0  00B7               	movwf	___fldiv@b+1
  6319  0AB1  083A               	movf	??___fldiv,w
  6320  0AB2  00B6               	movwf	___fldiv@b
  6321  0AB3                     l2397:
  6322  0AB3  3001               	movlw	1
  6323  0AB4  07C4               	addwf	___fldiv@new_exp,f
  6324  0AB5  1803               	skipnc
  6325  0AB6  0AC5               	incf	___fldiv@new_exp+1,f
  6326  0AB7  3000               	movlw	0
  6327  0AB8  07C5               	addwf	___fldiv@new_exp+1,f
  6328  0AB9                     l2399:
  6329  0AB9  0845               	movf	___fldiv@new_exp+1,w
  6330  0ABA  3A80               	xorlw	128
  6331  0ABB  00FF               	movwf	btemp+1
  6332  0ABC  3080               	movlw	128
  6333  0ABD  027F               	subwf	btemp+1,w
  6334  0ABE  1D03               	skipz
  6335  0ABF  2AC2               	goto	u3075
  6336  0AC0  30FF               	movlw	255
  6337  0AC1  0244               	subwf	___fldiv@new_exp,w
  6338  0AC2                     u3075:
  6339  0AC2  1C03               	skipc
  6340  0AC3  2AC5               	goto	u3071
  6341  0AC4  2AC6               	goto	u3070
  6342  0AC5                     u3071:
  6343  0AC5  2AD4               	goto	l2403
  6344  0AC6                     u3070:
  6345  0AC6                     l2401:
  6346  0AC6  30FF               	movlw	255
  6347  0AC7  1283               	bcf	3,5	;RP0=0, select bank0
  6348  0AC8  1303               	bcf	3,6	;RP1=0, select bank0
  6349  0AC9  00C4               	movwf	___fldiv@new_exp
  6350  0ACA  3000               	movlw	0
  6351  0ACB  00C5               	movwf	___fldiv@new_exp+1
  6352  0ACC  3000               	movlw	0
  6353  0ACD  00B9               	movwf	___fldiv@b+3
  6354  0ACE  3000               	movlw	0
  6355  0ACF  00B8               	movwf	___fldiv@b+2
  6356  0AD0  3000               	movlw	0
  6357  0AD1  00B7               	movwf	___fldiv@b+1
  6358  0AD2  3000               	movlw	0
  6359  0AD3  00B6               	movwf	___fldiv@b
  6360  0AD4                     l2403:
  6361  0AD4  1283               	bcf	3,5	;RP0=0, select bank0
  6362  0AD5  1303               	bcf	3,6	;RP1=0, select bank0
  6363  0AD6  0845               	movf	___fldiv@new_exp+1,w
  6364  0AD7  3A80               	xorlw	128
  6365  0AD8  00FF               	movwf	btemp+1
  6366  0AD9  3080               	movlw	128
  6367  0ADA  027F               	subwf	btemp+1,w
  6368  0ADB  1D03               	skipz
  6369  0ADC  2ADF               	goto	u3085
  6370  0ADD  3001               	movlw	1
  6371  0ADE  0244               	subwf	___fldiv@new_exp,w
  6372  0ADF                     u3085:
  6373  0ADF  1803               	skipnc
  6374  0AE0  2AE2               	goto	u3081
  6375  0AE1  2AE3               	goto	u3080
  6376  0AE2                     u3081:
  6377  0AE2  2AF0               	goto	l712
  6378  0AE3                     u3080:
  6379  0AE3                     l2405:
  6380  0AE3  1283               	bcf	3,5	;RP0=0, select bank0
  6381  0AE4  1303               	bcf	3,6	;RP1=0, select bank0
  6382  0AE5  01C4               	clrf	___fldiv@new_exp
  6383  0AE6  01C5               	clrf	___fldiv@new_exp+1
  6384  0AE7                     l2407:
  6385  0AE7  3000               	movlw	0
  6386  0AE8  00B9               	movwf	___fldiv@b+3
  6387  0AE9  3000               	movlw	0
  6388  0AEA  00B8               	movwf	___fldiv@b+2
  6389  0AEB  3000               	movlw	0
  6390  0AEC  00B7               	movwf	___fldiv@b+1
  6391  0AED  3000               	movlw	0
  6392  0AEE  00B6               	movwf	___fldiv@b
  6393  0AEF                     l2409:
  6394  0AEF  01C3               	clrf	___fldiv@sign
  6395  0AF0                     l712:
  6396  0AF0  1283               	bcf	3,5	;RP0=0, select bank0
  6397  0AF1  1303               	bcf	3,6	;RP1=0, select bank0
  6398  0AF2  0844               	movf	___fldiv@new_exp,w
  6399  0AF3  00BA               	movwf	??___fldiv
  6400  0AF4  083A               	movf	??___fldiv,w
  6401  0AF5  00CA               	movwf	___fldiv@bexp
  6402  0AF6                     l2411:
  6403  0AF6  1C4A               	btfss	___fldiv@bexp,0
  6404  0AF7  2AF9               	goto	u3091
  6405  0AF8  2AFA               	goto	u3090
  6406  0AF9                     u3091:
  6407  0AF9  2AFC               	goto	l2415
  6408  0AFA                     u3090:
  6409  0AFA                     l2413:
  6410  0AFA  17B8               	bsf	___fldiv@b+2,7
  6411  0AFB  2B00               	goto	l714
  6412  0AFC                     l2415:
  6413  0AFC  307F               	movlw	127
  6414  0AFD  00BA               	movwf	??___fldiv
  6415  0AFE  083A               	movf	??___fldiv,w
  6416  0AFF  05B8               	andwf	___fldiv@b+2,f
  6417  0B00                     l714:
  6418  0B00  084A               	movf	___fldiv@bexp,w
  6419  0B01  00BA               	movwf	??___fldiv
  6420  0B02  1003               	clrc
  6421  0B03  0C3A               	rrf	??___fldiv,w
  6422  0B04  00BB               	movwf	??___fldiv+1
  6423  0B05  083B               	movf	??___fldiv+1,w
  6424  0B06  00B9               	movwf	___fldiv@b+3
  6425  0B07  0843               	movf	___fldiv@sign,w
  6426  0B08  00BA               	movwf	??___fldiv
  6427  0B09  083A               	movf	??___fldiv,w
  6428  0B0A  04B9               	iorwf	___fldiv@b+3,f
  6429  0B0B  29A4               	goto	l2323
  6430  0B0C                     l692:
  6431  0B0C  0008               	return
  6432  0B0D                     __end_of___fldiv:
  6433                           
  6434                           	psect	text14
  6435  16F7                     __ptext14:	
  6436 ;; *************** function ___awdiv *****************
  6437 ;; Defined at:
  6438 ;;		line 5 in file "C:\Program Files\Microchip\xc8\v2.32\pic\sources\c90\common\awdiv.c"
  6439 ;; Parameters:    Size  Location     Type
  6440 ;;  divisor         2    0[COMMON] int 
  6441 ;;  dividend        2    2[COMMON] int 
  6442 ;; Auto vars:     Size  Location     Type
  6443 ;;  quotient        2    7[COMMON] int 
  6444 ;;  sign            1    6[COMMON] unsigned char 
  6445 ;;  counter         1    5[COMMON] unsigned char 
  6446 ;; Return value:  Size  Location     Type
  6447 ;;                  2    0[COMMON] int 
  6448 ;; Registers used:
  6449 ;;		wreg, status,2, status,0
  6450 ;; Tracked objects:
  6451 ;;		On entry : 0/0
  6452 ;;		On exit  : 0/0
  6453 ;;		Unchanged: 0/0
  6454 ;; Data sizes:     COMMON   BANK0   BANK1   BANK3   BANK2
  6455 ;;      Params:         4       0       0       0       0
  6456 ;;      Locals:         4       0       0       0       0
  6457 ;;      Temps:          1       0       0       0       0
  6458 ;;      Totals:         9       0       0       0       0
  6459 ;;Total ram usage:        9 bytes
  6460 ;; Hardware stack levels used: 1
  6461 ;; This function calls:
  6462 ;;		Nothing
  6463 ;; This function is called by:
  6464 ;;		_convert
  6465 ;; This function uses a non-reentrant model
  6466 ;;
  6467                           
  6468                           
  6469                           ;psect for function ___awdiv
  6470  16F7                     ___awdiv:
  6471  16F7                     l2173:	
  6472                           ;incstack = 0
  6473                           ; Regs used in ___awdiv: [wreg+status,2+status,0]
  6474                           
  6475  16F7  01F6               	clrf	___awdiv@sign
  6476  16F8                     l2175:
  6477  16F8  1FF1               	btfss	___awdiv@divisor+1,7
  6478  16F9  2EFB               	goto	u2541
  6479  16FA  2EFC               	goto	u2540
  6480  16FB                     u2541:
  6481  16FB  2F03               	goto	l2181
  6482  16FC                     u2540:
  6483  16FC                     l2177:
  6484  16FC  09F0               	comf	___awdiv@divisor,f
  6485  16FD  09F1               	comf	___awdiv@divisor+1,f
  6486  16FE  0AF0               	incf	___awdiv@divisor,f
  6487  16FF  1903               	skipnz
  6488  1700  0AF1               	incf	___awdiv@divisor+1,f
  6489  1701                     l2179:
  6490  1701  01F6               	clrf	___awdiv@sign
  6491  1702  0AF6               	incf	___awdiv@sign,f
  6492  1703                     l2181:
  6493  1703  1FF3               	btfss	___awdiv@dividend+1,7
  6494  1704  2F06               	goto	u2551
  6495  1705  2F07               	goto	u2550
  6496  1706                     u2551:
  6497  1706  2F10               	goto	l2187
  6498  1707                     u2550:
  6499  1707                     l2183:
  6500  1707  09F2               	comf	___awdiv@dividend,f
  6501  1708  09F3               	comf	___awdiv@dividend+1,f
  6502  1709  0AF2               	incf	___awdiv@dividend,f
  6503  170A  1903               	skipnz
  6504  170B  0AF3               	incf	___awdiv@dividend+1,f
  6505  170C                     l2185:
  6506  170C  3001               	movlw	1
  6507  170D  00F4               	movwf	??___awdiv
  6508  170E  0874               	movf	??___awdiv,w
  6509  170F  06F6               	xorwf	___awdiv@sign,f
  6510  1710                     l2187:
  6511  1710  01F7               	clrf	___awdiv@quotient
  6512  1711  01F8               	clrf	___awdiv@quotient+1
  6513  1712                     l2189:
  6514  1712  0870               	movf	___awdiv@divisor,w
  6515  1713  0471               	iorwf	___awdiv@divisor+1,w
  6516  1714  1903               	btfsc	3,2
  6517  1715  2F17               	goto	u2561
  6518  1716  2F18               	goto	u2560
  6519  1717                     u2561:
  6520  1717  2F4F               	goto	l2209
  6521  1718                     u2560:
  6522  1718                     l2191:
  6523  1718  01F5               	clrf	___awdiv@counter
  6524  1719  0AF5               	incf	___awdiv@counter,f
  6525  171A  2F26               	goto	l2197
  6526  171B                     l2193:
  6527  171B  3001               	movlw	1
  6528  171C                     u2575:
  6529  171C  1003               	clrc
  6530  171D  0DF0               	rlf	___awdiv@divisor,f
  6531  171E  0DF1               	rlf	___awdiv@divisor+1,f
  6532  171F  3EFF               	addlw	-1
  6533  1720  1D03               	skipz
  6534  1721  2F1C               	goto	u2575
  6535  1722                     l2195:
  6536  1722  3001               	movlw	1
  6537  1723  00F4               	movwf	??___awdiv
  6538  1724  0874               	movf	??___awdiv,w
  6539  1725  07F5               	addwf	___awdiv@counter,f
  6540  1726                     l2197:
  6541  1726  1FF1               	btfss	___awdiv@divisor+1,7
  6542  1727  2F29               	goto	u2581
  6543  1728  2F2A               	goto	u2580
  6544  1729                     u2581:
  6545  1729  2F1B               	goto	l2193
  6546  172A                     u2580:
  6547  172A                     l2199:
  6548  172A  3001               	movlw	1
  6549  172B                     u2595:
  6550  172B  1003               	clrc
  6551  172C  0DF7               	rlf	___awdiv@quotient,f
  6552  172D  0DF8               	rlf	___awdiv@quotient+1,f
  6553  172E  3EFF               	addlw	-1
  6554  172F  1D03               	skipz
  6555  1730  2F2B               	goto	u2595
  6556  1731  0871               	movf	___awdiv@divisor+1,w
  6557  1732  0273               	subwf	___awdiv@dividend+1,w
  6558  1733  1D03               	skipz
  6559  1734  2F37               	goto	u2605
  6560  1735  0870               	movf	___awdiv@divisor,w
  6561  1736  0272               	subwf	___awdiv@dividend,w
  6562  1737                     u2605:
  6563  1737  1C03               	skipc
  6564  1738  2F3A               	goto	u2601
  6565  1739  2F3B               	goto	u2600
  6566  173A                     u2601:
  6567  173A  2F42               	goto	l2205
  6568  173B                     u2600:
  6569  173B                     l2201:
  6570  173B  0870               	movf	___awdiv@divisor,w
  6571  173C  02F2               	subwf	___awdiv@dividend,f
  6572  173D  0871               	movf	___awdiv@divisor+1,w
  6573  173E  1C03               	skipc
  6574  173F  03F3               	decf	___awdiv@dividend+1,f
  6575  1740  02F3               	subwf	___awdiv@dividend+1,f
  6576  1741                     l2203:
  6577  1741  1477               	bsf	___awdiv@quotient,0
  6578  1742                     l2205:
  6579  1742  3001               	movlw	1
  6580  1743                     u2615:
  6581  1743  1003               	clrc
  6582  1744  0CF1               	rrf	___awdiv@divisor+1,f
  6583  1745  0CF0               	rrf	___awdiv@divisor,f
  6584  1746  3EFF               	addlw	-1
  6585  1747  1D03               	skipz
  6586  1748  2F43               	goto	u2615
  6587  1749                     l2207:
  6588  1749  3001               	movlw	1
  6589  174A  02F5               	subwf	___awdiv@counter,f
  6590  174B  1D03               	btfss	3,2
  6591  174C  2F4E               	goto	u2621
  6592  174D  2F4F               	goto	u2620
  6593  174E                     u2621:
  6594  174E  2F2A               	goto	l2199
  6595  174F                     u2620:
  6596  174F                     l2209:
  6597  174F  0876               	movf	___awdiv@sign,w
  6598  1750  1903               	btfsc	3,2
  6599  1751  2F53               	goto	u2631
  6600  1752  2F54               	goto	u2630
  6601  1753                     u2631:
  6602  1753  2F59               	goto	l2213
  6603  1754                     u2630:
  6604  1754                     l2211:
  6605  1754  09F7               	comf	___awdiv@quotient,f
  6606  1755  09F8               	comf	___awdiv@quotient+1,f
  6607  1756  0AF7               	incf	___awdiv@quotient,f
  6608  1757  1903               	skipnz
  6609  1758  0AF8               	incf	___awdiv@quotient+1,f
  6610  1759                     l2213:
  6611  1759  0878               	movf	___awdiv@quotient+1,w
  6612  175A  00F1               	movwf	?___awdiv+1
  6613  175B  0877               	movf	___awdiv@quotient,w
  6614  175C  00F0               	movwf	?___awdiv
  6615  175D                     l494:
  6616  175D  0008               	return
  6617  175E                     __end_of___awdiv:
  6618                           
  6619                           	psect	text15
  6620  1583                     __ptext15:	
  6621 ;; *************** function _config *****************
  6622 ;; Defined at:
  6623 ;;		line 105 in file "Maestro.c"
  6624 ;; Parameters:    Size  Location     Type
  6625 ;;		None
  6626 ;; Auto vars:     Size  Location     Type
  6627 ;;		None
  6628 ;; Return value:  Size  Location     Type
  6629 ;;                  1    wreg      void 
  6630 ;; Registers used:
  6631 ;;		wreg, fsr0l, fsr0h, status,2, status,0, pclath, cstack
  6632 ;; Tracked objects:
  6633 ;;		On entry : 0/0
  6634 ;;		On exit  : 0/0
  6635 ;;		Unchanged: 0/0
  6636 ;; Data sizes:     COMMON   BANK0   BANK1   BANK3   BANK2
  6637 ;;      Params:         0       0       0       0       0
  6638 ;;      Locals:         0       0       0       0       0
  6639 ;;      Temps:          0       0       0       0       0
  6640 ;;      Totals:         0       0       0       0       0
  6641 ;;Total ram usage:        0 bytes
  6642 ;; Hardware stack levels used: 1
  6643 ;; Hardware stack levels required when called: 1
  6644 ;; This function calls:
  6645 ;;		_config_osc
  6646 ;;		_spiInit
  6647 ;; This function is called by:
  6648 ;;		_main
  6649 ;; This function uses a non-reentrant model
  6650 ;;
  6651                           
  6652                           
  6653                           ;psect for function _config
  6654  1583                     _config:
  6655  1583                     l2605:	
  6656                           ;incstack = 0
  6657                           ; Regs used in _config: [wreg-fsr0h+status,2+status,0+pclath+cstack]
  6658                           
  6659                           
  6660                           ;Maestro.c: 106:     ANSEL = 0X00;
  6661  1583  1683               	bsf	3,5	;RP0=1, select bank3
  6662  1584  1703               	bsf	3,6	;RP1=1, select bank3
  6663  1585  0188               	clrf	8	;volatile
  6664                           
  6665                           ;Maestro.c: 107:     ANSELH = 0X00;
  6666  1586  0189               	clrf	9	;volatile
  6667                           
  6668                           ;Maestro.c: 111:     TRISB = 0X00;
  6669  1587  1683               	bsf	3,5	;RP0=1, select bank1
  6670  1588  1303               	bcf	3,6	;RP1=0, select bank1
  6671  1589  0186               	clrf	6	;volatile
  6672                           
  6673                           ;Maestro.c: 112:     TRISD = 0x00;
  6674  158A  0188               	clrf	8	;volatile
  6675                           
  6676                           ;Maestro.c: 115:     PORTB = 0X00;
  6677  158B  1283               	bcf	3,5	;RP0=0, select bank0
  6678  158C  1303               	bcf	3,6	;RP1=0, select bank0
  6679  158D  0186               	clrf	6	;volatile
  6680                           
  6681                           ;Maestro.c: 116:     PORTD = 0X00;
  6682  158E  0188               	clrf	8	;volatile
  6683  158F                     l2607:
  6684                           
  6685                           ;Maestro.c: 118:     PORTCbits.RC2 = 1;
  6686  158F  1507               	bsf	7,2	;volatile
  6687  1590                     l2609:
  6688                           
  6689                           ;Maestro.c: 119:     spiInit(SPI_MASTER_OSC_DIV4, SPI_DATA_SAMPLE_MIDDLE, SPI_CLOCK_IDLE
      +                          _LOW, SPI_IDLE_2_ACTIVE);
  6690  1590  01F0               	clrf	spiInit@sDataSample
  6691  1591  01F1               	clrf	spiInit@sClockIdle
  6692  1592  01F2               	clrf	spiInit@sTransmitEdge
  6693  1593  3020               	movlw	32
  6694  1594  160A  118A  256D  160A  118A  	fcall	_spiInit
  6695  1599                     l2611:
  6696                           
  6697                           ;Maestro.c: 122:    config_osc(7);
  6698  1599  3007               	movlw	7
  6699  159A  160A  118A  263C  160A  118A  	fcall	_config_osc
  6700  159F                     l55:
  6701  159F  0008               	return
  6702  15A0                     __end_of_config:
  6703                           
  6704                           	psect	text16
  6705  156D                     __ptext16:	
  6706 ;; *************** function _spiInit *****************
  6707 ;; Defined at:
  6708 ;;		line 53 in file "LibreriasL3.c"
  6709 ;; Parameters:    Size  Location     Type
  6710 ;;  sType           1    wreg     enum E1475
  6711 ;;  sDataSample     1    0[COMMON] enum E1483
  6712 ;;  sClockIdle      1    1[COMMON] enum E1487
  6713 ;;  sTransmitEdg    1    2[COMMON] enum E1491
  6714 ;; Auto vars:     Size  Location     Type
  6715 ;;  sType           1    3[COMMON] enum E1475
  6716 ;; Return value:  Size  Location     Type
  6717 ;;                  1    wreg      void 
  6718 ;; Registers used:
  6719 ;;		wreg, status,2, status,0
  6720 ;; Tracked objects:
  6721 ;;		On entry : 0/0
  6722 ;;		On exit  : 0/0
  6723 ;;		Unchanged: 0/0
  6724 ;; Data sizes:     COMMON   BANK0   BANK1   BANK3   BANK2
  6725 ;;      Params:         3       0       0       0       0
  6726 ;;      Locals:         1       0       0       0       0
  6727 ;;      Temps:          0       0       0       0       0
  6728 ;;      Totals:         4       0       0       0       0
  6729 ;;Total ram usage:        4 bytes
  6730 ;; Hardware stack levels used: 1
  6731 ;; This function calls:
  6732 ;;		Nothing
  6733 ;; This function is called by:
  6734 ;;		_config
  6735 ;; This function uses a non-reentrant model
  6736 ;;
  6737                           
  6738                           
  6739                           ;psect for function _spiInit
  6740  156D                     _spiInit:
  6741                           
  6742                           ;incstack = 0
  6743                           ; Regs used in _spiInit: [wreg+status,2+status,0]
  6744                           ;spiInit@sType stored from wreg
  6745  156D  00F3               	movwf	spiInit@sType
  6746  156E                     l2093:
  6747                           
  6748                           ;LibreriasL3.c: 53: void spiInit(Spi_Type sType, Spi_Data_Sample sDataSample, Spi_Clock_
      +                          Idle sClockIdle, Spi_Transmit_Edge sTransmitEdge);LibreriasL3.c: 54: {;LibreriasL3.c: 55
      +                          :     TRISC5 = 0;
  6749  156E  1683               	bsf	3,5	;RP0=1, select bank1
  6750  156F  1303               	bcf	3,6	;RP1=0, select bank1
  6751  1570  1287               	bcf	7,5	;volatile
  6752                           
  6753                           ;LibreriasL3.c: 56:     if(sType & 0b00000100)
  6754  1571  1D73               	btfss	spiInit@sType,2
  6755  1572  2D74               	goto	u2401
  6756  1573  2D75               	goto	u2400
  6757  1574                     u2401:
  6758  1574  2D79               	goto	l2099
  6759  1575                     u2400:
  6760  1575                     l2095:
  6761                           
  6762                           ;LibreriasL3.c: 57:     {;LibreriasL3.c: 58:         SSPSTAT = sTransmitEdge;
  6763  1575  0872               	movf	spiInit@sTransmitEdge,w
  6764  1576  0094               	movwf	20	;volatile
  6765  1577                     l2097:
  6766                           
  6767                           ;LibreriasL3.c: 59:         TRISC3 = 1;
  6768  1577  1587               	bsf	7,3	;volatile
  6769                           
  6770                           ;LibreriasL3.c: 60:     }
  6771  1578  2D7D               	goto	l237
  6772  1579                     l2099:
  6773                           
  6774                           ;LibreriasL3.c: 62:     {;LibreriasL3.c: 63:         SSPSTAT = sDataSample | sTransmitEd
      +                          ge;
  6775  1579  0870               	movf	spiInit@sDataSample,w
  6776  157A  0472               	iorwf	spiInit@sTransmitEdge,w
  6777  157B  0094               	movwf	20	;volatile
  6778  157C                     l2101:
  6779                           
  6780                           ;LibreriasL3.c: 64:         TRISC3 = 0;
  6781  157C  1187               	bcf	7,3	;volatile
  6782  157D                     l237:	
  6783                           ;LibreriasL3.c: 65:     }
  6784                           
  6785                           
  6786                           ;LibreriasL3.c: 67:     SSPCON = sType | sClockIdle;
  6787  157D  0873               	movf	spiInit@sType,w
  6788  157E  0471               	iorwf	spiInit@sClockIdle,w
  6789  157F  1283               	bcf	3,5	;RP0=0, select bank0
  6790  1580  1303               	bcf	3,6	;RP1=0, select bank0
  6791  1581  0094               	movwf	20	;volatile
  6792  1582                     l238:
  6793  1582  0008               	return
  6794  1583                     __end_of_spiInit:
  6795                           
  6796                           	psect	text17
  6797  163C                     __ptext17:	
  6798 ;; *************** function _config_osc *****************
  6799 ;; Defined at:
  6800 ;;		line 23 in file "LibreriasL3.c"
  6801 ;; Parameters:    Size  Location     Type
  6802 ;;  frec            1    wreg     unsigned char 
  6803 ;; Auto vars:     Size  Location     Type
  6804 ;;  frec            1    2[COMMON] unsigned char 
  6805 ;; Return value:  Size  Location     Type
  6806 ;;                  1    wreg      void 
  6807 ;; Registers used:
  6808 ;;		wreg, fsr0l, fsr0h, status,2, status,0
  6809 ;; Tracked objects:
  6810 ;;		On entry : 0/0
  6811 ;;		On exit  : 0/0
  6812 ;;		Unchanged: 0/0
  6813 ;; Data sizes:     COMMON   BANK0   BANK1   BANK3   BANK2
  6814 ;;      Params:         0       0       0       0       0
  6815 ;;      Locals:         1       0       0       0       0
  6816 ;;      Temps:          2       0       0       0       0
  6817 ;;      Totals:         3       0       0       0       0
  6818 ;;Total ram usage:        3 bytes
  6819 ;; Hardware stack levels used: 1
  6820 ;; This function calls:
  6821 ;;		Nothing
  6822 ;; This function is called by:
  6823 ;;		_config
  6824 ;; This function uses a non-reentrant model
  6825 ;;
  6826                           
  6827                           
  6828                           ;psect for function _config_osc
  6829  163C                     _config_osc:
  6830                           
  6831                           ;incstack = 0
  6832                           ; Regs used in _config_osc: [wreg-fsr0h+status,2+status,0]
  6833                           ;config_osc@frec stored from wreg
  6834  163C  00F2               	movwf	config_osc@frec
  6835  163D                     l2103:
  6836                           
  6837                           ;LibreriasL3.c: 24:         switch(frec){
  6838  163D  2E70               	goto	l2123
  6839  163E                     l2105:
  6840                           
  6841                           ;LibreriasL3.c: 26:                 OSCCONbits.IRCF = 000;
  6842  163E  308F               	movlw	-113
  6843  163F  1683               	bsf	3,5	;RP0=1, select bank1
  6844  1640  1303               	bcf	3,6	;RP1=0, select bank1
  6845  1641  058F               	andwf	15,f	;volatile
  6846                           
  6847                           ;LibreriasL3.c: 27:                 break;
  6848  1642  2E8F               	goto	l225
  6849  1643                     l2107:
  6850                           
  6851                           ;LibreriasL3.c: 29:                 OSCCONbits.IRCF = 001;
  6852  1643  1683               	bsf	3,5	;RP0=1, select bank1
  6853  1644  1303               	bcf	3,6	;RP1=0, select bank1
  6854  1645  080F               	movf	15,w	;volatile
  6855  1646  398F               	andlw	-113
  6856  1647  3810               	iorlw	16
  6857  1648  008F               	movwf	15	;volatile
  6858                           
  6859                           ;LibreriasL3.c: 30:                 break;
  6860  1649  2E8F               	goto	l225
  6861  164A                     l2109:
  6862                           
  6863                           ;LibreriasL3.c: 32:                 OSCCONbits.IRCF = 010;
  6864  164A  308F               	movlw	-113
  6865  164B  1683               	bsf	3,5	;RP0=1, select bank1
  6866  164C  1303               	bcf	3,6	;RP1=0, select bank1
  6867  164D  058F               	andwf	15,f	;volatile
  6868                           
  6869                           ;LibreriasL3.c: 33:                 break;
  6870  164E  2E8F               	goto	l225
  6871  164F                     l2111:
  6872                           
  6873                           ;LibreriasL3.c: 35:                 OSCCONbits.IRCF = 011;
  6874  164F  1683               	bsf	3,5	;RP0=1, select bank1
  6875  1650  1303               	bcf	3,6	;RP1=0, select bank1
  6876  1651  080F               	movf	15,w	;volatile
  6877  1652  398F               	andlw	-113
  6878  1653  3810               	iorlw	16
  6879  1654  008F               	movwf	15	;volatile
  6880                           
  6881                           ;LibreriasL3.c: 36:                 break;
  6882  1655  2E8F               	goto	l225
  6883  1656                     l2113:
  6884                           
  6885                           ;LibreriasL3.c: 38:                 OSCCONbits.IRCF = 100;
  6886  1656  1683               	bsf	3,5	;RP0=1, select bank1
  6887  1657  1303               	bcf	3,6	;RP1=0, select bank1
  6888  1658  080F               	movf	15,w	;volatile
  6889  1659  398F               	andlw	-113
  6890  165A  3840               	iorlw	64
  6891  165B  008F               	movwf	15	;volatile
  6892                           
  6893                           ;LibreriasL3.c: 39:                 break;
  6894  165C  2E8F               	goto	l225
  6895  165D                     l2115:
  6896                           
  6897                           ;LibreriasL3.c: 41:                 OSCCONbits.IRCF = 101;
  6898  165D  1683               	bsf	3,5	;RP0=1, select bank1
  6899  165E  1303               	bcf	3,6	;RP1=0, select bank1
  6900  165F  080F               	movf	15,w	;volatile
  6901  1660  398F               	andlw	-113
  6902  1661  3850               	iorlw	80
  6903  1662  008F               	movwf	15	;volatile
  6904                           
  6905                           ;LibreriasL3.c: 42:                 break;
  6906  1663  2E8F               	goto	l225
  6907  1664                     l2117:
  6908                           
  6909                           ;LibreriasL3.c: 44:                 OSCCONbits.IRCF = 111;
  6910  1664  3070               	movlw	112
  6911  1665  1683               	bsf	3,5	;RP0=1, select bank1
  6912  1666  1303               	bcf	3,6	;RP1=0, select bank1
  6913  1667  048F               	iorwf	15,f	;volatile
  6914                           
  6915                           ;LibreriasL3.c: 45:                 break;
  6916  1668  2E8F               	goto	l225
  6917  1669                     l2119:
  6918                           
  6919                           ;LibreriasL3.c: 47:                 OSCCONbits.IRCF = 110;
  6920  1669  1683               	bsf	3,5	;RP0=1, select bank1
  6921  166A  1303               	bcf	3,6	;RP1=0, select bank1
  6922  166B  080F               	movf	15,w	;volatile
  6923  166C  398F               	andlw	-113
  6924  166D  3860               	iorlw	96
  6925  166E  008F               	movwf	15	;volatile
  6926                           
  6927                           ;LibreriasL3.c: 48:                 break;
  6928  166F  2E8F               	goto	l225
  6929  1670                     l2123:
  6930  1670  0872               	movf	config_osc@frec,w
  6931  1671  00F0               	movwf	??_config_osc
  6932  1672  01F1               	clrf	??_config_osc+1
  6933                           
  6934                           ; Switch on 2 bytes has been partitioned into a top level switch of size 1, and 1 sub-sw
      +                          itches
  6935                           ; Switch size 1, requested type "simple"
  6936                           ; Number of cases is 1, Range of values is 0 to 0
  6937                           ; switch strategies available:
  6938                           ; Name         Instructions Cycles
  6939                           ; simple_byte            4     3 (average)
  6940                           ; direct_byte           11     8 (fixed)
  6941                           ; jumptable            260     6 (fixed)
  6942                           ;	Chosen strategy is simple_byte
  6943  1673  0871               	movf	??_config_osc+1,w
  6944  1674  3A00               	xorlw	0	; case 0
  6945  1675  1903               	skipnz
  6946  1676  2E78               	goto	l2823
  6947  1677  2E69               	goto	l2119
  6948  1678                     l2823:
  6949                           
  6950                           ; Switch size 1, requested type "simple"
  6951                           ; Number of cases is 7, Range of values is 0 to 7
  6952                           ; switch strategies available:
  6953                           ; Name         Instructions Cycles
  6954                           ; simple_byte           22    12 (average)
  6955                           ; direct_byte           32     8 (fixed)
  6956                           ; jumptable            260     6 (fixed)
  6957                           ;	Chosen strategy is simple_byte
  6958  1678  0870               	movf	??_config_osc,w
  6959  1679  3A00               	xorlw	0	; case 0
  6960  167A  1903               	skipnz
  6961  167B  2E3E               	goto	l2105
  6962  167C  3A01               	xorlw	1	; case 1
  6963  167D  1903               	skipnz
  6964  167E  2E43               	goto	l2107
  6965  167F  3A03               	xorlw	3	; case 2
  6966  1680  1903               	skipnz
  6967  1681  2E4A               	goto	l2109
  6968  1682  3A01               	xorlw	1	; case 3
  6969  1683  1903               	skipnz
  6970  1684  2E4F               	goto	l2111
  6971  1685  3A07               	xorlw	7	; case 4
  6972  1686  1903               	skipnz
  6973  1687  2E56               	goto	l2113
  6974  1688  3A01               	xorlw	1	; case 5
  6975  1689  1903               	skipnz
  6976  168A  2E5D               	goto	l2115
  6977  168B  3A02               	xorlw	2	; case 7
  6978  168C  1903               	skipnz
  6979  168D  2E64               	goto	l2117
  6980  168E  2E69               	goto	l2119
  6981  168F                     l225:
  6982                           
  6983                           ;LibreriasL3.c: 50:         OSCCONbits.SCS = 1;
  6984  168F  140F               	bsf	15,0	;volatile
  6985  1690                     l233:
  6986  1690  0008               	return
  6987  1691                     __end_of_config_osc:
  6988                           
  6989                           	psect	text18
  6990  1612                     __ptext18:	
  6991 ;; *************** function _UARTSendString *****************
  6992 ;; Defined at:
  6993 ;;		line 50 in file "USARTL3.c"
  6994 ;; Parameters:    Size  Location     Type
  6995 ;;  str             1    wreg     PTR const unsigned char 
  6996 ;;		 -> NULL(0), STR_14(2), STR_13(2), STR_12(2), 
  6997 ;;		 -> STR_11(2), STR_10(2), STR_9(3), STR_8(2), 
  6998 ;;		 -> STR_7(2), STR_6(2), STR_5(2), ROM(8192), 
  6999 ;;		 -> STR_4(2), STR_3(2), STR_2(3), STR_1(2), 
  7000 ;;  max_length      1    1[COMMON] const unsigned char 
  7001 ;; Auto vars:     Size  Location     Type
  7002 ;;  str             1    5[COMMON] PTR const unsigned char 
  7003 ;;		 -> NULL(0), STR_14(2), STR_13(2), STR_12(2), 
  7004 ;;		 -> STR_11(2), STR_10(2), STR_9(3), STR_8(2), 
  7005 ;;		 -> STR_7(2), STR_6(2), STR_5(2), ROM(8192), 
  7006 ;;		 -> STR_4(2), STR_3(2), STR_2(3), STR_1(2), 
  7007 ;;  i               2    3[COMMON] int 
  7008 ;; Return value:  Size  Location     Type
  7009 ;;                  1    wreg      void 
  7010 ;; Registers used:
  7011 ;;		wreg, fsr0l, fsr0h, status,2, status,0, pclath, cstack
  7012 ;; Tracked objects:
  7013 ;;		On entry : 0/0
  7014 ;;		On exit  : 0/0
  7015 ;;		Unchanged: 0/0
  7016 ;; Data sizes:     COMMON   BANK0   BANK1   BANK3   BANK2
  7017 ;;      Params:         1       0       0       0       0
  7018 ;;      Locals:         3       0       0       0       0
  7019 ;;      Temps:          1       0       0       0       0
  7020 ;;      Totals:         5       0       0       0       0
  7021 ;;Total ram usage:        5 bytes
  7022 ;; Hardware stack levels used: 1
  7023 ;; Hardware stack levels required when called: 1
  7024 ;; This function calls:
  7025 ;;		_UARTSendChar
  7026 ;; This function is called by:
  7027 ;;		_main
  7028 ;; This function uses a non-reentrant model
  7029 ;;
  7030                           
  7031                           
  7032                           ;psect for function _UARTSendString
  7033  1612                     _UARTSendString:
  7034                           
  7035                           ;incstack = 0
  7036                           ; Regs used in _UARTSendString: [wreg-fsr0h+status,2+status,0+pclath+cstack]
  7037                           ;UARTSendString@str stored from wreg
  7038  1612  00F5               	movwf	UARTSendString@str
  7039  1613                     l2755:
  7040                           
  7041                           ;USARTL3.c: 51:     int i = 0;
  7042  1613  01F3               	clrf	UARTSendString@i
  7043  1614  01F4               	clrf	UARTSendString@i+1
  7044                           
  7045                           ;USARTL3.c: 53:     while (str[i] !=0){
  7046  1615  2E2E               	goto	l2763
  7047  1616                     l2757:
  7048                           
  7049                           ;USARTL3.c: 54:         UARTSendChar(str[i]);
  7050  1616  0873               	movf	UARTSendString@i,w
  7051  1617  0775               	addwf	UARTSendString@str,w
  7052  1618  0084               	movwf	4
  7053  1619  160A  118A  2000  160A  118A  	fcall	stringdir
  7054  161E  120A  118A  2006  160A  118A  	fcall	_UARTSendChar
  7055  1623                     l2759:
  7056                           
  7057                           ;USARTL3.c: 55:         i++;
  7058  1623  3001               	movlw	1
  7059  1624  07F3               	addwf	UARTSendString@i,f
  7060  1625  1803               	skipnc
  7061  1626  0AF4               	incf	UARTSendString@i+1,f
  7062  1627  3000               	movlw	0
  7063  1628  07F4               	addwf	UARTSendString@i+1,f
  7064  1629                     l2761:
  7065                           
  7066                           ;USARTL3.c: 56:         _delay((unsigned long)((30)*(8000000/4000000.0)));
  7067  1629  3013               	movlw	19
  7068  162A  00F2               	movwf	??_UARTSendString
  7069  162B                     u3787:
  7070  162B  0BF2               	decfsz	??_UARTSendString,f
  7071  162C  2E2B               	goto	u3787
  7072  162D  2E2E               	nop2
  7073  162E                     l2763:
  7074                           
  7075                           ;USARTL3.c: 53:     while (str[i] !=0){
  7076  162E  0873               	movf	UARTSendString@i,w
  7077  162F  0775               	addwf	UARTSendString@str,w
  7078  1630  0084               	movwf	4
  7079  1631  160A  118A  2000  160A  118A  	fcall	stringdir
  7080  1636  3A00               	xorlw	0
  7081  1637  1D03               	skipz
  7082  1638  2E3A               	goto	u3731
  7083  1639  2E3B               	goto	u3730
  7084  163A                     u3731:
  7085  163A  2E16               	goto	l2757
  7086  163B                     u3730:
  7087  163B                     l90:
  7088  163B  0008               	return
  7089  163C                     __end_of_UARTSendString:
  7090                           
  7091                           	psect	text19
  7092  0006                     __ptext19:	
  7093 ;; *************** function _UARTSendChar *****************
  7094 ;; Defined at:
  7095 ;;		line 44 in file "USARTL3.c"
  7096 ;; Parameters:    Size  Location     Type
  7097 ;;  c               1    wreg     const unsigned char 
  7098 ;; Auto vars:     Size  Location     Type
  7099 ;;  c               1    0[COMMON] const unsigned char 
  7100 ;; Return value:  Size  Location     Type
  7101 ;;                  1    wreg      void 
  7102 ;; Registers used:
  7103 ;;		wreg
  7104 ;; Tracked objects:
  7105 ;;		On entry : 0/0
  7106 ;;		On exit  : 0/0
  7107 ;;		Unchanged: 0/0
  7108 ;; Data sizes:     COMMON   BANK0   BANK1   BANK3   BANK2
  7109 ;;      Params:         0       0       0       0       0
  7110 ;;      Locals:         1       0       0       0       0
  7111 ;;      Temps:          0       0       0       0       0
  7112 ;;      Totals:         1       0       0       0       0
  7113 ;;Total ram usage:        1 bytes
  7114 ;; Hardware stack levels used: 1
  7115 ;; This function calls:
  7116 ;;		Nothing
  7117 ;; This function is called by:
  7118 ;;		_UARTSendString
  7119 ;; This function uses a non-reentrant model
  7120 ;;
  7121                           
  7122                           
  7123                           ;psect for function _UARTSendChar
  7124  0006                     _UARTSendChar:
  7125                           
  7126                           ;incstack = 0
  7127                           ; Regs used in _UARTSendChar: [wreg]
  7128                           ;UARTSendChar@c stored from wreg
  7129  0006  00F0               	movwf	UARTSendChar@c
  7130  0007                     l2129:
  7131  0007                     l81:	
  7132                           ;USARTL3.c: 45:     while (!TXIF);
  7133                           
  7134  0007  1283               	bcf	3,5	;RP0=0, select bank0
  7135  0008  1303               	bcf	3,6	;RP1=0, select bank0
  7136  0009  1E0C               	btfss	12,4	;volatile
  7137  000A  280C               	goto	u2411
  7138  000B  280D               	goto	u2410
  7139  000C                     u2411:
  7140  000C  2807               	goto	l81
  7141  000D                     u2410:
  7142  000D                     l2131:
  7143                           
  7144                           ;USARTL3.c: 46:     TXREG = c;
  7145  000D  0870               	movf	UARTSendChar@c,w
  7146  000E  0099               	movwf	25	;volatile
  7147  000F                     l84:
  7148  000F  0008               	return
  7149  0010                     __end_of_UARTSendChar:
  7150                           
  7151                           	psect	text20
  7152  0805                     __ptext20:	
  7153 ;; *************** function _UARTInit *****************
  7154 ;; Defined at:
  7155 ;;		line 16 in file "USARTL3.c"
  7156 ;; Parameters:    Size  Location     Type
  7157 ;;  baud_rate       4    0[BANK0 ] const unsigned long 
  7158 ;;  BRGH            1    4[BANK0 ] const unsigned char 
  7159 ;; Auto vars:     Size  Location     Type
  7160 ;;		None
  7161 ;; Return value:  Size  Location     Type
  7162 ;;                  1    wreg      void 
  7163 ;; Registers used:
  7164 ;;		wreg, status,2, status,0, pclath, cstack
  7165 ;; Tracked objects:
  7166 ;;		On entry : 0/0
  7167 ;;		On exit  : 0/0
  7168 ;;		Unchanged: 0/0
  7169 ;; Data sizes:     COMMON   BANK0   BANK1   BANK3   BANK2
  7170 ;;      Params:         0       5       0       0       0
  7171 ;;      Locals:         0       0       0       0       0
  7172 ;;      Temps:          0       4       0       0       0
  7173 ;;      Totals:         0       9       0       0       0
  7174 ;;Total ram usage:        9 bytes
  7175 ;; Hardware stack levels used: 1
  7176 ;; Hardware stack levels required when called: 1
  7177 ;; This function calls:
  7178 ;;		___lldiv
  7179 ;; This function is called by:
  7180 ;;		_main
  7181 ;; This function uses a non-reentrant model
  7182 ;;
  7183                           
  7184                           
  7185                           ;psect for function _UARTInit
  7186  0805                     _UARTInit:
  7187  0805                     l2623:	
  7188                           ;incstack = 0
  7189                           ; Regs used in _UARTInit: [wreg+status,2+status,0+pclath+cstack]
  7190                           
  7191                           
  7192                           ;USARTL3.c: 18:     if (BRGH == 0) {
  7193  0805  1283               	bcf	3,5	;RP0=0, select bank0
  7194  0806  1303               	bcf	3,6	;RP1=0, select bank0
  7195  0807  0824               	movf	UARTInit@BRGH,w
  7196  0808  1D03               	btfss	3,2
  7197  0809  280B               	goto	u3611
  7198  080A  280C               	goto	u3610
  7199  080B                     u3611:
  7200  080B  2839               	goto	l2629
  7201  080C                     u3610:
  7202  080C                     l2625:
  7203                           
  7204                           ;USARTL3.c: 19:         SPBRG = 8000000 / (64 * baud_rate) - 1;
  7205  080C  0820               	movf	UARTInit@baud_rate,w
  7206  080D  00A5               	movwf	??_UARTInit
  7207  080E  0821               	movf	UARTInit@baud_rate+1,w
  7208  080F  00A6               	movwf	??_UARTInit+1
  7209  0810  0822               	movf	UARTInit@baud_rate+2,w
  7210  0811  00A7               	movwf	??_UARTInit+2
  7211  0812  0823               	movf	UARTInit@baud_rate+3,w
  7212  0813  00A8               	movwf	??_UARTInit+3
  7213  0814  3006               	movlw	6
  7214  0815                     u3625:
  7215  0815  1003               	clrc
  7216  0816  0DA5               	rlf	??_UARTInit,f
  7217  0817  0DA6               	rlf	??_UARTInit+1,f
  7218  0818  0DA7               	rlf	??_UARTInit+2,f
  7219  0819  0DA8               	rlf	??_UARTInit+3,f
  7220  081A                     u3620:
  7221  081A  3EFF               	addlw	-1
  7222  081B  1D03               	skipz
  7223  081C  2815               	goto	u3625
  7224  081D  0828               	movf	??_UARTInit+3,w
  7225  081E  00F3               	movwf	___lldiv@divisor+3
  7226  081F  0827               	movf	??_UARTInit+2,w
  7227  0820  00F2               	movwf	___lldiv@divisor+2
  7228  0821  0826               	movf	??_UARTInit+1,w
  7229  0822  00F1               	movwf	___lldiv@divisor+1
  7230  0823  0825               	movf	??_UARTInit,w
  7231  0824  00F0               	movwf	___lldiv@divisor
  7232  0825  3000               	movlw	0
  7233  0826  00F7               	movwf	___lldiv@dividend+3
  7234  0827  307A               	movlw	122
  7235  0828  00F6               	movwf	___lldiv@dividend+2
  7236  0829  3012               	movlw	18
  7237  082A  00F5               	movwf	___lldiv@dividend+1
  7238  082B  3000               	movlw	0
  7239  082C  00F4               	movwf	___lldiv@dividend
  7240  082D  160A  118A  2691  120A  158A  	fcall	___lldiv
  7241  0832  0870               	movf	?___lldiv,w
  7242  0833  3EFF               	addlw	255
  7243  0834  1683               	bsf	3,5	;RP0=1, select bank1
  7244  0835  1303               	bcf	3,6	;RP1=0, select bank1
  7245  0836  0099               	movwf	25	;volatile
  7246  0837                     l2627:
  7247                           
  7248                           ;USARTL3.c: 20:         TXSTAbits.BRGH = 0;
  7249  0837  1118               	bcf	24,2	;volatile
  7250                           
  7251                           ;USARTL3.c: 21:     } else {
  7252  0838  2865               	goto	l2633
  7253  0839                     l2629:
  7254                           
  7255                           ;USARTL3.c: 22:         SPBRG = 8000000 / (16 * baud_rate) - 1;
  7256  0839  0820               	movf	UARTInit@baud_rate,w
  7257  083A  00A5               	movwf	??_UARTInit
  7258  083B  0821               	movf	UARTInit@baud_rate+1,w
  7259  083C  00A6               	movwf	??_UARTInit+1
  7260  083D  0822               	movf	UARTInit@baud_rate+2,w
  7261  083E  00A7               	movwf	??_UARTInit+2
  7262  083F  0823               	movf	UARTInit@baud_rate+3,w
  7263  0840  00A8               	movwf	??_UARTInit+3
  7264  0841  3004               	movlw	4
  7265  0842                     u3635:
  7266  0842  1003               	clrc
  7267  0843  0DA5               	rlf	??_UARTInit,f
  7268  0844  0DA6               	rlf	??_UARTInit+1,f
  7269  0845  0DA7               	rlf	??_UARTInit+2,f
  7270  0846  0DA8               	rlf	??_UARTInit+3,f
  7271  0847                     u3630:
  7272  0847  3EFF               	addlw	-1
  7273  0848  1D03               	skipz
  7274  0849  2842               	goto	u3635
  7275  084A  0828               	movf	??_UARTInit+3,w
  7276  084B  00F3               	movwf	___lldiv@divisor+3
  7277  084C  0827               	movf	??_UARTInit+2,w
  7278  084D  00F2               	movwf	___lldiv@divisor+2
  7279  084E  0826               	movf	??_UARTInit+1,w
  7280  084F  00F1               	movwf	___lldiv@divisor+1
  7281  0850  0825               	movf	??_UARTInit,w
  7282  0851  00F0               	movwf	___lldiv@divisor
  7283  0852  3000               	movlw	0
  7284  0853  00F7               	movwf	___lldiv@dividend+3
  7285  0854  307A               	movlw	122
  7286  0855  00F6               	movwf	___lldiv@dividend+2
  7287  0856  3012               	movlw	18
  7288  0857  00F5               	movwf	___lldiv@dividend+1
  7289  0858  3000               	movlw	0
  7290  0859  00F4               	movwf	___lldiv@dividend
  7291  085A  160A  118A  2691  120A  158A  	fcall	___lldiv
  7292  085F  0870               	movf	?___lldiv,w
  7293  0860  3EFF               	addlw	255
  7294  0861  1683               	bsf	3,5	;RP0=1, select bank1
  7295  0862  1303               	bcf	3,6	;RP1=0, select bank1
  7296  0863  0099               	movwf	25	;volatile
  7297  0864                     l2631:
  7298                           
  7299                           ;USARTL3.c: 23:         TXSTAbits.BRGH = 1;
  7300  0864  1518               	bsf	24,2	;volatile
  7301  0865                     l2633:
  7302                           
  7303                           ;USARTL3.c: 27:     TXSTAbits.TX9 = 0;
  7304  0865  1318               	bcf	24,6	;volatile
  7305  0866                     l2635:
  7306                           
  7307                           ;USARTL3.c: 28:     TXSTAbits.TXEN = 1;
  7308  0866  1698               	bsf	24,5	;volatile
  7309  0867                     l2637:
  7310                           
  7311                           ;USARTL3.c: 29:     TXSTAbits.SYNC = 0;
  7312  0867  1218               	bcf	24,4	;volatile
  7313  0868                     l2639:
  7314                           
  7315                           ;USARTL3.c: 32:     RCSTAbits.SPEN = 1;
  7316  0868  1283               	bcf	3,5	;RP0=0, select bank0
  7317  0869  1303               	bcf	3,6	;RP1=0, select bank0
  7318  086A  1798               	bsf	24,7	;volatile
  7319  086B                     l2641:
  7320                           
  7321                           ;USARTL3.c: 33:     RCSTAbits.RX9 = 0;
  7322  086B  1318               	bcf	24,6	;volatile
  7323  086C                     l2643:
  7324                           
  7325                           ;USARTL3.c: 34:     RCSTAbits.CREN = 1;
  7326  086C  1618               	bsf	24,4	;volatile
  7327  086D                     l2645:
  7328                           
  7329                           ;USARTL3.c: 35:     RCSTAbits.FERR = 0;
  7330  086D  1118               	bcf	24,2	;volatile
  7331  086E                     l2647:
  7332                           
  7333                           ;USARTL3.c: 36:     RCSTAbits.OERR = 0;
  7334  086E  1098               	bcf	24,1	;volatile
  7335  086F                     l2649:
  7336                           
  7337                           ;USARTL3.c: 39:     TRISCbits.TRISC7 = 1;
  7338  086F  1683               	bsf	3,5	;RP0=1, select bank1
  7339  0870  1303               	bcf	3,6	;RP1=0, select bank1
  7340  0871  1787               	bsf	7,7	;volatile
  7341  0872                     l2651:
  7342                           
  7343                           ;USARTL3.c: 40:     TRISCbits.TRISC6 = 0;
  7344  0872  1307               	bcf	7,6	;volatile
  7345  0873                     l78:
  7346  0873  0008               	return
  7347  0874                     __end_of_UARTInit:
  7348                           
  7349                           	psect	text21
  7350  1691                     __ptext21:	
  7351 ;; *************** function ___lldiv *****************
  7352 ;; Defined at:
  7353 ;;		line 5 in file "C:\Program Files\Microchip\xc8\v2.32\pic\sources\c90\common\__lldiv.c"
  7354 ;; Parameters:    Size  Location     Type
  7355 ;;  divisor         4    0[COMMON] unsigned long 
  7356 ;;  dividend        4    4[COMMON] unsigned long 
  7357 ;; Auto vars:     Size  Location     Type
  7358 ;;  quotient        4    9[COMMON] unsigned long 
  7359 ;;  counter         1   13[COMMON] unsigned char 
  7360 ;; Return value:  Size  Location     Type
  7361 ;;                  4    0[COMMON] unsigned long 
  7362 ;; Registers used:
  7363 ;;		wreg, status,2, status,0
  7364 ;; Tracked objects:
  7365 ;;		On entry : 0/0
  7366 ;;		On exit  : 0/0
  7367 ;;		Unchanged: 0/0
  7368 ;; Data sizes:     COMMON   BANK0   BANK1   BANK3   BANK2
  7369 ;;      Params:         8       0       0       0       0
  7370 ;;      Locals:         5       0       0       0       0
  7371 ;;      Temps:          1       0       0       0       0
  7372 ;;      Totals:        14       0       0       0       0
  7373 ;;Total ram usage:       14 bytes
  7374 ;; Hardware stack levels used: 1
  7375 ;; This function calls:
  7376 ;;		Nothing
  7377 ;; This function is called by:
  7378 ;;		_UARTInit
  7379 ;; This function uses a non-reentrant model
  7380 ;;
  7381                           
  7382                           
  7383                           ;psect for function ___lldiv
  7384  1691                     ___lldiv:
  7385  1691                     l2149:	
  7386                           ;incstack = 0
  7387                           ; Regs used in ___lldiv: [wreg+status,2+status,0]
  7388                           
  7389  1691  3000               	movlw	0
  7390  1692  00FC               	movwf	___lldiv@quotient+3
  7391  1693  3000               	movlw	0
  7392  1694  00FB               	movwf	___lldiv@quotient+2
  7393  1695  3000               	movlw	0
  7394  1696  00FA               	movwf	___lldiv@quotient+1
  7395  1697  3000               	movlw	0
  7396  1698  00F9               	movwf	___lldiv@quotient
  7397  1699  0873               	movf	___lldiv@divisor+3,w
  7398  169A  0472               	iorwf	___lldiv@divisor+2,w
  7399  169B  0471               	iorwf	___lldiv@divisor+1,w
  7400  169C  0470               	iorwf	___lldiv@divisor,w
  7401  169D  1903               	skipnz
  7402  169E  2EA0               	goto	u2471
  7403  169F  2EA1               	goto	u2470
  7404  16A0                     u2471:
  7405  16A0  2EEE               	goto	l2169
  7406  16A1                     u2470:
  7407  16A1                     l2151:
  7408  16A1  01FD               	clrf	___lldiv@counter
  7409  16A2  0AFD               	incf	___lldiv@counter,f
  7410  16A3  2EB1               	goto	l2155
  7411  16A4                     l2153:
  7412  16A4  3001               	movlw	1
  7413  16A5  00F8               	movwf	??___lldiv
  7414  16A6                     u2485:
  7415  16A6  1003               	clrc
  7416  16A7  0DF0               	rlf	___lldiv@divisor,f
  7417  16A8  0DF1               	rlf	___lldiv@divisor+1,f
  7418  16A9  0DF2               	rlf	___lldiv@divisor+2,f
  7419  16AA  0DF3               	rlf	___lldiv@divisor+3,f
  7420  16AB  0BF8               	decfsz	??___lldiv,f
  7421  16AC  2EA6               	goto	u2485
  7422  16AD  3001               	movlw	1
  7423  16AE  00F8               	movwf	??___lldiv
  7424  16AF  0878               	movf	??___lldiv,w
  7425  16B0  07FD               	addwf	___lldiv@counter,f
  7426  16B1                     l2155:
  7427  16B1  1FF3               	btfss	___lldiv@divisor+3,7
  7428  16B2  2EB4               	goto	u2491
  7429  16B3  2EB5               	goto	u2490
  7430  16B4                     u2491:
  7431  16B4  2EA4               	goto	l2153
  7432  16B5                     u2490:
  7433  16B5                     l2157:
  7434  16B5  3001               	movlw	1
  7435  16B6  00F8               	movwf	??___lldiv
  7436  16B7                     u2505:
  7437  16B7  1003               	clrc
  7438  16B8  0DF9               	rlf	___lldiv@quotient,f
  7439  16B9  0DFA               	rlf	___lldiv@quotient+1,f
  7440  16BA  0DFB               	rlf	___lldiv@quotient+2,f
  7441  16BB  0DFC               	rlf	___lldiv@quotient+3,f
  7442  16BC  0BF8               	decfsz	??___lldiv,f
  7443  16BD  2EB7               	goto	u2505
  7444  16BE                     l2159:
  7445  16BE  0873               	movf	___lldiv@divisor+3,w
  7446  16BF  0277               	subwf	___lldiv@dividend+3,w
  7447  16C0  1D03               	skipz
  7448  16C1  2ECC               	goto	u2515
  7449  16C2  0872               	movf	___lldiv@divisor+2,w
  7450  16C3  0276               	subwf	___lldiv@dividend+2,w
  7451  16C4  1D03               	skipz
  7452  16C5  2ECC               	goto	u2515
  7453  16C6  0871               	movf	___lldiv@divisor+1,w
  7454  16C7  0275               	subwf	___lldiv@dividend+1,w
  7455  16C8  1D03               	skipz
  7456  16C9  2ECC               	goto	u2515
  7457  16CA  0870               	movf	___lldiv@divisor,w
  7458  16CB  0274               	subwf	___lldiv@dividend,w
  7459  16CC                     u2515:
  7460  16CC  1C03               	skipc
  7461  16CD  2ECF               	goto	u2511
  7462  16CE  2ED0               	goto	u2510
  7463  16CF                     u2511:
  7464  16CF  2EDF               	goto	l2165
  7465  16D0                     u2510:
  7466  16D0                     l2161:
  7467  16D0  0870               	movf	___lldiv@divisor,w
  7468  16D1  02F4               	subwf	___lldiv@dividend,f
  7469  16D2  0871               	movf	___lldiv@divisor+1,w
  7470  16D3  1C03               	skipc
  7471  16D4  0F71               	incfsz	___lldiv@divisor+1,w
  7472  16D5  02F5               	subwf	___lldiv@dividend+1,f
  7473  16D6  0872               	movf	___lldiv@divisor+2,w
  7474  16D7  1C03               	skipc
  7475  16D8  0F72               	incfsz	___lldiv@divisor+2,w
  7476  16D9  02F6               	subwf	___lldiv@dividend+2,f
  7477  16DA  0873               	movf	___lldiv@divisor+3,w
  7478  16DB  1C03               	skipc
  7479  16DC  0F73               	incfsz	___lldiv@divisor+3,w
  7480  16DD  02F7               	subwf	___lldiv@dividend+3,f
  7481  16DE                     l2163:
  7482  16DE  1479               	bsf	___lldiv@quotient,0
  7483  16DF                     l2165:
  7484  16DF  3001               	movlw	1
  7485  16E0                     u2525:
  7486  16E0  1003               	clrc
  7487  16E1  0CF3               	rrf	___lldiv@divisor+3,f
  7488  16E2  0CF2               	rrf	___lldiv@divisor+2,f
  7489  16E3  0CF1               	rrf	___lldiv@divisor+1,f
  7490  16E4  0CF0               	rrf	___lldiv@divisor,f
  7491  16E5  3EFF               	addlw	-1
  7492  16E6  1D03               	skipz
  7493  16E7  2EE0               	goto	u2525
  7494  16E8                     l2167:
  7495  16E8  3001               	movlw	1
  7496  16E9  02FD               	subwf	___lldiv@counter,f
  7497  16EA  1D03               	btfss	3,2
  7498  16EB  2EED               	goto	u2531
  7499  16EC  2EEE               	goto	u2530
  7500  16ED                     u2531:
  7501  16ED  2EB5               	goto	l2157
  7502  16EE                     u2530:
  7503  16EE                     l2169:
  7504  16EE  087C               	movf	___lldiv@quotient+3,w
  7505  16EF  00F3               	movwf	?___lldiv+3
  7506  16F0  087B               	movf	___lldiv@quotient+2,w
  7507  16F1  00F2               	movwf	?___lldiv+2
  7508  16F2  087A               	movf	___lldiv@quotient+1,w
  7509  16F3  00F1               	movwf	?___lldiv+1
  7510  16F4  0879               	movf	___lldiv@quotient,w
  7511  16F5  00F0               	movwf	?___lldiv
  7512  16F6                     l377:
  7513  16F6  0008               	return
  7514  16F7                     __end_of___lldiv:
  7515  007E                     btemp	set	126	;btemp
  7516  007E                     wtemp0	set	126
  7517                           
  7518                           	psect	config
  7519                           
  7520                           ;Config register CONFIG1 @ 0x2007
  7521                           ;	Oscillator Selection bits
  7522                           ;	FOSC = INTRC_NOCLKOUT, INTOSCIO oscillator: I/O function on RA6/OSC2/CLKOUT pin, I/O f
      +                          unction on RA7/OSC1/CLKIN
  7523                           ;	Watchdog Timer Enable bit
  7524                           ;	WDTE = OFF, WDT disabled and can be enabled by SWDTEN bit of the WDTCON register
  7525                           ;	Power-up Timer Enable bit
  7526                           ;	PWRTE = ON, PWRT enabled
  7527                           ;	RE3/MCLR pin function select bit
  7528                           ;	MCLRE = OFF, RE3/MCLR pin function is digital input, MCLR internally tied to VDD
  7529                           ;	Code Protection bit
  7530                           ;	CP = OFF, Program memory code protection is disabled
  7531                           ;	Data Code Protection bit
  7532                           ;	CPD = OFF, Data memory code protection is disabled
  7533                           ;	Brown Out Reset Selection bits
  7534                           ;	BOREN = OFF, BOR disabled
  7535                           ;	Internal External Switchover bit
  7536                           ;	IESO = OFF, Internal/External Switchover mode is disabled
  7537                           ;	Fail-Safe Clock Monitor Enabled bit
  7538                           ;	FCMEN = OFF, Fail-Safe Clock Monitor is disabled
  7539                           ;	Low Voltage Programming Enable bit
  7540                           ;	LVP = OFF, RB3 pin has digital I/O, HV on MCLR must be used for programming
  7541                           ;	In-Circuit Debugger Mode bit
  7542                           ;	DEBUG = 0x1, unprogrammed default
  7543  2007                     	org	8199
  7544  2007  20C4               	dw	8388
  7545                           
  7546                           ;Config register CONFIG2 @ 0x2008
  7547                           ;	Brown-out Reset Selection bit
  7548                           ;	BOR4V = BOR40V, Brown-out Reset set to 4.0V
  7549                           ;	Flash Program Memory Self Write Enable bits
  7550                           ;	WRT = OFF, Write protection off
  7551  2008                     	org	8200
  7552  2008  3FFF               	dw	16383

Data Sizes:
    Strings     16
    Constant    0
    Data        0
    BSS         12
    Persistent  0
    Stack       0

Auto Spaces:
    Space          Size  Autos    Used
    COMMON           14     14      14
    BANK0            80     78      80
    BANK1            80     21      31
    BANK3            96      0       0
    BANK2            96      0       0

Pointer List with Targets:

    convert@data	PTR unsigned char  size(2) Largest target is 512
		 -> NULL(NULL[0]), RAM(DATA[512]), 

    UARTSendString@str	PTR const unsigned char  size(1) Largest target is 8192
		 -> NULL(NULL[0]), STR_14(CODE[2]), STR_13(CODE[2]), STR_12(CODE[2]), 
		 -> STR_11(CODE[2]), STR_10(CODE[2]), STR_9(CODE[3]), STR_8(CODE[2]), 
		 -> STR_7(CODE[2]), STR_6(CODE[2]), STR_5(CODE[2]), ROM(CODE[8192]), 
		 -> STR_4(CODE[2]), STR_3(CODE[2]), STR_2(CODE[3]), STR_1(CODE[2]), 


Critical Paths under _main in COMMON

    _convert->___wmul
    ___xxtofl->___wmul
    ___wmul->___fltol
    ___flsub->___wmul
    _config->_spiInit
    _UARTSendString->_UARTSendChar
    _UARTInit->___lldiv

Critical Paths under _main in BANK0

    _main->_convert
    _convert->___flmul
    ___xxtofl->___wmul
    ___flsub->___xxtofl
    ___flmul->___fldiv
    ___fldiv->___xxtofl

Critical Paths under _main in BANK1

    _main->_convert

Critical Paths under _main in BANK3

    None.

Critical Paths under _main in BANK2

    None.

Call Graph Tables:

 ---------------------------------------------------------------------------------
 (Depth) Function   	        Calls       Base Space   Used Autos Params    Refs
 ---------------------------------------------------------------------------------
 (0) _main                                                 4     4      0   20703
                                             17 BANK1      4     4      0
                           _UARTInit
                     _UARTSendString
                            ___fldiv
                            ___flmul
                           ___xxtofl
                             _config
                            _convert
                            _spiRead
                           _spiWrite
 ---------------------------------------------------------------------------------
 (1) _spiWrite                                             1     1      0      22
                                              0 COMMON     1     1      0
 ---------------------------------------------------------------------------------
 (1) _spiRead                                              0     0      0       0
                     _spiReceiveWait
 ---------------------------------------------------------------------------------
 (2) _spiReceiveWait                                       0     0      0       0
 ---------------------------------------------------------------------------------
 (1) _convert                                             25    17      8   12075
                                             70 BANK0      8     0      8
                                              0 BANK1     17    17      0
                            ___awdiv
                            ___fldiv
                             ___flge
                            ___flmul
                            ___flsub
                            ___fltol
                             ___wmul
                           ___xxtofl
 ---------------------------------------------------------------------------------
 (2) ___xxtofl                                            14    10      4     930
                                              4 BANK0     14    10      4
                            ___fltol (ARG)
                             ___wmul (ARG)
 ---------------------------------------------------------------------------------
 (2) ___wmul                                               6     2      4     852
                                             11 COMMON     2     2      0
                                              0 BANK0      4     0      4
                            ___fltol (ARG)
 ---------------------------------------------------------------------------------
 (2) ___fltol                                             11     7      4     761
                                              0 COMMON    11     7      4
 ---------------------------------------------------------------------------------
 (2) ___flsub                                              8     0      8    2637
                                             18 BANK0      8     0      8
                            ___fladd
                            ___fltol (ARG)
                             ___wmul (ARG)
                           ___xxtofl (ARG)
 ---------------------------------------------------------------------------------
 (3) ___fladd                                             20    12      8    2136
                                              0 COMMON    12     4      8
                                              0 BANK0      8     8      0
 ---------------------------------------------------------------------------------
 (2) ___flmul                                             26    18      8    2873
                                             44 BANK0     26    18      8
                          __Umul8_16
                            ___fldiv (ARG)
                            ___flsub (ARG)
                            ___fltol (ARG)
                           ___xxtofl (ARG)
 ---------------------------------------------------------------------------------
 (3) __Umul8_16                                            9     7      2     799
                                              0 COMMON     9     7      2
 ---------------------------------------------------------------------------------
 (2) ___flge                                              12     4      8     334
                                              0 COMMON    12     4      8
 ---------------------------------------------------------------------------------
 (2) ___fldiv                                             26    18      8    1729
                                             18 BANK0     26    18      8
                           ___xxtofl (ARG)
 ---------------------------------------------------------------------------------
 (2) ___awdiv                                              9     5      4     452
                                              0 COMMON     9     5      4
 ---------------------------------------------------------------------------------
 (1) _config                                               0     0      0     382
                         _config_osc
                            _spiInit
 ---------------------------------------------------------------------------------
 (2) _spiInit                                              4     1      3     360
                                              0 COMMON     4     1      3
 ---------------------------------------------------------------------------------
 (2) _config_osc                                           3     3      0      22
                                              0 COMMON     3     3      0
 ---------------------------------------------------------------------------------
 (1) _UARTSendString                                       5     4      1    1856
                                              1 COMMON     5     4      1
                       _UARTSendChar
 ---------------------------------------------------------------------------------
 (2) _UARTSendChar                                         1     1      0      22
                                              0 COMMON     1     1      0
 ---------------------------------------------------------------------------------
 (1) _UARTInit                                             9     4      5     836
                                              0 BANK0      9     4      5
                            ___lldiv
 ---------------------------------------------------------------------------------
 (2) ___lldiv                                             14     6      8     466
                                              0 COMMON    14     6      8
 ---------------------------------------------------------------------------------
 Estimated maximum stack depth 3
 ---------------------------------------------------------------------------------

 Call Graph Graphs:

 _main (ROOT)
   _UARTInit
     ___lldiv
   _UARTSendString
     _UARTSendChar
   ___fldiv
     ___xxtofl (ARG)
       ___fltol (ARG)
       ___wmul (ARG)
         ___fltol (ARG)
   ___flmul
     __Umul8_16
     ___fldiv (ARG)
     ___flsub (ARG)
       ___fladd
       ___fltol (ARG)
       ___wmul (ARG)
       ___xxtofl (ARG)
     ___fltol (ARG)
     ___xxtofl (ARG)
   ___xxtofl
   _config
     _config_osc
     _spiInit
   _convert
     ___awdiv
     ___fldiv
     ___flge
     ___flmul
     ___flsub
     ___fltol
     ___wmul
     ___xxtofl
   _spiRead
     _spiReceiveWait
   _spiWrite

 Address spaces:
Name               Size   Autos  Total    Cost      Usage
BITCOMMON            E      0       0       0        0.0%
EEDATA             100      0       0       0        0.0%
NULL                 0      0       0       0        0.0%
CODE                 0      0       0       0        0.0%
COMMON               E      E       E       1      100.0%
BITSFR0              0      0       0       1        0.0%
SFR0                 0      0       0       1        0.0%
BITSFR1              0      0       0       2        0.0%
SFR1                 0      0       0       2        0.0%
STACK                0      0       0       2        0.0%
ABS                  0      0      7D       3        0.0%
BITBANK0            50      0       0       4        0.0%
BITSFR3              0      0       0       4        0.0%
SFR3                 0      0       0       4        0.0%
BANK0               50     4E      50       5      100.0%
BITSFR2              0      0       0       5        0.0%
SFR2                 0      0       0       5        0.0%
BITBANK1            50      0       0       6        0.0%
BANK1               50     15      1F       7       38.8%
BITBANK3            60      0       0       8        0.0%
BANK3               60      0       0       9        0.0%
BITBANK2            60      0       0      10        0.0%
BANK2               60      0       0      11        0.0%
DATA                 0      0      7D      12        0.0%


Microchip Technology PIC Macro Assembler V2.32 build 20210201212658 
Symbol Table                                                                                   Mon Aug 02 19:28:55 2021

       UARTInit@baud_rate 0020              ___fldiv@aexp 004B              ___fldiv@bexp 004A  
                       pc 0002              ___fldiv@sign 0043               _SSPSTATbits 0094  
                      l55 159F                        l81 0007                        l90 163B  
                      l84 000F                        l78 0873              ___awdiv@sign 0076  
                      fsr 0004       ___wmul@multiplicand 0022       __Umul8_16@word_mpld 0076  
                     l233 1690                       l225 168F                       l241 155D  
                     l148 07EB                       l244 1563                       l237 157D  
                     l341 15F9                       l238 1582                       l343 1611  
                     l255 156C                       l247 155C                       l515 177A  
                     l518 17E6                       l534 0074                       l519 17FF  
                     l527 0089                       l712 0AF0                       l640 0E49  
                     l377 16F6                       l537 0089                       l714 0B00  
                     l706 0A7E                       l730 03EA                       l634 0DCB  
                     l494 175D                       l742 03DE                       l638 0E74  
                     l751 15EA                       l655 0F45                       l647 0FFF  
                     l736 0356                       l680 15C3                       l665 0F8D  
                     l690 098C                       l659 0F6B                       l692 0B0C  
                     l676 0FF1                       l668 0FCD                       l780 08DD  
                     l749 15D8                       l677 0FFF                       l774 0898  
                     l776 092F                       l787 08F9                       l788 0905  
                     fsr0 0004                       indf 0000              ___flmul@aexp 005E  
            ___flmul@bexp 005F              ___flmul@sign 0059              ___flmul@temp 0064  
            ___flmul@prod 0060              ___fltol@exp1 007A                      l2001 0EB6  
                    l2011 0F1D                      l2003 0EB7                      l2101 157C  
                    l2021 0F52                      l2013 0F23                      l2005 0EC2  
                    l2111 164F                      l2103 163D                      l2031 0F6F  
                    l2015 0F28                      l2007 0EC7                      l2113 1656  
                    l2105 163E                      l2201 173B                      l2033 0F72  
                    l2025 0F5B                      l2009 0EDD                      l2017 0F37  
                    l2041 0F7F                      l2131 000D                      l2115 165D  
                    l2107 1643                      l2123 1670                      l2211 1754  
                    l2203 1741                      l2051 0F92                      l2043 0F80  
                    l2035 0F74                      l2027 0F66                      l2019 0F4D  
                    l2117 1664                      l2109 164A                      l2213 1759  
                    l2205 1742                      l2301 0964                      l2221 178E  
                    l2061 0FD2                      l2053 0F97                      l2045 0F84  
                    l2037 0F79                      l2029 0F6A                      l2141 1600  
                    l2133 155D                      l2151 16A1                      l2119 1669  
                    l2207 1749                      l2311 0979                      l2303 096A  
                    l2231 17FC                      l2223 1796                      l2071 0FE9  
                    l2063 0FD7                      l2055 0FA5                      l2047 0F8A  
                    l2039 0F7B                      l2143 1607                      l2135 15EB  
                    l2161 16D0                      l2153 16A4                      l2129 0007  
                    l2209 174F                      l2401 0AC6                      l2321 09A0  
                    l2313 0981                      l2305 096E                      l2233 17FE  
                    l2225 179A                      l2217 175E                      l2081 15C7  
                    l2073 0FEB                      l2065 0FDF                      l2057 0FA9  
                    l2145 160D                      l2137 15ED                      l2163 16DE  
                    l2155 16B1                      l2411 0AF6                      l2403 0AD4  
                    l2323 09A4                      l2315 0982                      l2307 096F  
                    l2227 17BE                      l2219 1772                      l2083 15CE  
                    l2075 0FFA                      l2067 0FE4                      l2059 0FC9  
                    l2251 0044                      l2243 0024                      l2139 15F3  
                    l2165 16DF                      l2157 16B5                      l2149 1691  
                    l2093 156E                      l2181 1703                      l2173 16F7  
                    l2413 0AFA                      l2405 0AE3                      l2341 09E5  
                    l2333 09BB                      l2309 0974                      l2317 0984  
                    l2229 17C2                      l2085 15D2                      l2501 02DA  
                    l2421 008A                      l2077 0FFE                      l2069 0FE5  
                    l2253 0048                      l2261 0062                      l2245 0039  
                    l2237 0010                      l2167 16E8                      l2159 16BE  
                    l2095 1575                      l2191 1718                      l2183 1707  
                    l2175 16F8                      l2415 0AFC                      l2407 0AE7  
                    l2351 0A03                      l2343 09E7                      l2335 09CD  
                    l2319 0994                      l2327 09AD                      l2087 15E1  
                    l2079 15C5                      l2511 0326                      l2503 0302  
                    l2431 00A1                      l2423 0091                      l2271 007E  
                    l2247 003A                      l2239 001B                      l2169 16EE  
                    l2097 1577                      l2193 171B                      l2185 170C  
                    l2177 16FC                      l2409 0AEF                      l2345 09EC  
                    l2353 0A0C                      l2361 0A31                      l2337 09D5  
                    l2329 09B2                      l2281 0937                      l2089 15E6  
                    l2521 033B                      l2513 0327                      l2505 030B  
                    l2441 00BD                      l2433 00A6                      l2425 0097  
                    l2273 15A0                      l2249 0042                      l2601 0927  
                    l2099 1579                      l2611 1599                      l2195 1722  
                    l2187 1710                      l2179 1701                      l2371 0A4E  
                    l2363 0A37                      l2355 0A1E                      l2347 09FE  
                    l2339 09DD                      l2291 094C                      l2283 093D  
                    l2531 0360                      l2523 033F                      l2515 0330  
                    l2507 0319                      l2451 00D2                      l2443 00C3  
                    l2435 00AE                      l2427 009B                      l2275 15A4  
                    l2267 0069                      l2259 0050                      l2605 1583  
                    l2197 1726                      l2189 1712                      l2381 0A63  
                    l2373 0A4F                      l2365 0A3F                      l2357 0A1F  
                    l2349 0A02                      l2293 0954                      l2285 0941  
                    l2541 039E                      l2533 036E                      l2525 0353  
                    l2509 0322                      l2517 0336                      l2461 00EE  
                    l2453 00DA                      l2445 00C7                      l2437 00B0  
                    l2429 009C                      l1901 0D8D                      l2269 0079  
                    l2701 0598                      l2631 0864                      l2623 0805  
                    l2607 158F                      l2199 172A                      l2391 0A88  
                    l2383 0A67                      l2375 0A58                      l2367 0A41  
                    l2359 0A2D                      l2295 0955                      l2287 0942  
                    l2279 0930                      l2551 03D2                      l2543 03A9  
                    l2535 0372                      l2519 033A                      l2471 0131  
                    l2455 00DC                      l2447 00C8                      l2439 00B8  
                    l1911 0DA3                      l1903 0D8F                      l2711 05C2  
                    l2703 059E                      l2615 1558                      l2641 086B  
                    l2633 0865                      l2625 080C                      l2609 1590  
                    l2393 0A96                      l2385 0A7B                      l2369 0A4A  
                    l2377 0A5E                      l2289 0947                      l2297 0957  
                    l2553 03D6                      l2545 03B8                      l2537 038B  
                    l2529 035B                      l2481 01BA                      l2473 014D  
                    l2465 00F7                      l2457 00E4                      l2449 00CD  
                    l1921 0DB8                      l1913 0DA9                      l1905 0D97  
                    l2561 0877                      l2721 0690                      l2713 05E3  
                    l2705 05B7                      l2617 1564                      l2801 0C93  
                    l2651 0872                      l2643 086C                      l2635 0866  
                    l2627 0837                      l2395 0A9A                      l2379 0A62  
                    l2299 095F                      l2555 03D7                      l2547 03C2  
                    l2539 0391                      l2491 022D                      l2483 01CA  
                    l2475 0179                      l2467 0107                      l2459 00E9  
                    l1931 0DD5                      l1923 0DC0                      l1915 0DAD  
                    l1907 0D9C                      l2563 087C                      l2731 06B6  
                    l2723 069D                      l2715 05E9                      l2707 05BD  
                    l2619 1569                      l2645 086D                      l2637 0867  
                    l2629 0839                      l2397 0AB3                      l2389 0A83  
                    l2557 03E2                      l2549 03C4                      l2493 024A  
                    l2485 01E7                      l2477 0195                      l2469 0114  
                    l1941 0DE9                      l1933 0DD9                      l1925 0DC1  
                    l1917 0DAE                      l1909 0DA2                      l2581 08C6  
                    l2573 08A9                      l2565 0880                      l2741 06F5  
                    l2733 06BB                      l2725 069D                      l2717 05FD  
                    l2709 05BD                      l2661 0404                      l2653 03EB  
                    l2647 086E                      l2639 0868                      l2823 1678  
                    l2399 0AB9                      l2495 0277                      l2487 01F7  
                    l2479 01B1                      l1951 0DFD                      l1943 0DED  
                    l1935 0DDD                      l1919 0DB3                      l1927 0DC3  
                    l2591 08FD                      l2583 08D4                      l2575 08AE  
                    l2567 0890                      l2743 0791                      l2735 06C0  
                    l2751 07CC                      l2727 06A3                      l2719 067A  
                    l2671 0453                      l2663 0408                      l2655 0400  
                    l2649 086F                      l2761 1629                      l2497 0287  
                    l2489 0214                      l1961 0E11                      l1953 0E01  
                    l1945 0DF1                      l1937 0DE1                      l1929 0DD1  
                    l2593 0907                      l2585 08E4                      l2577 08BB  
                    l2569 08A0                      l2753 07D2                      l2745 07BC  
                    l2737 06E1                      l2729 06B0                      l2681 0482  
                    l2673 045A                      l2665 0408                      l2657 0400  
                    l2763 162E                      l2755 1613                      l2499 02B4  
                    l1971 0E58                      l1955 0E05                      l1947 0DF5  
                    l1939 0DE5                      l1963 0E15                      l1891 0D79  
                    l2595 091D                      l2587 08EF                      l2579 08C2  
                    l2747 07C2                      l2739 06E7                      l2691 04C1  
                    l2683 0487                      l2675 046D                      l2667 0423  
                    l2659 0402                      l2771 0B1F                      l2757 1616  
                    l1973 0E5A                      l1981 0E6E                      l1965 0E16  
                    l1957 0E09                      l1949 0DF9                      l1893 0D7A  
                    l1885 0D68                      l2597 0922                      l2589 08F3  
                    l2749 07C8                      l2693 055D                      l2685 048C  
                    l2669 0444                      l2677 0473                      l2781 0B3B  
                    l2773 0B25                      l2765 0B0D                      l2759 1623  
                    l1991 0E9D                      l1983 0E78                      l1975 0E5E  
                    l1967 0E2D                      l1959 0E0D                      l1895 0D7F  
                    l1887 0D6F                      l2599 0926                      l2695 0588  
                    l2687 04AD                      l2679 047C                      l2791 0B60  
                    l2783 0B45                      l2775 0B2D                      l2767 0B12  
                    l1993 0EA1                      l1985 0E7D                      l1977 0E5F  
                    l1969 0E4D                      l1897 0D84                      l1889 0D75  
                    l2697 058E                      l2689 04B3                      l2793 0B6F  
                    l2785 0B4B                      l2777 0B37                      l2769 0B15  
                    l1995 0EA5                      l1979 0E6A                      l1899 0D8C  
                    l2699 0594                      l2795 0BDA                      l2787 0B53  
                    l2779 0B3A                      l1997 0EB0                      l1989 0E86  
                    l2797 0C45                      l2789 0B5D                      l1999 0EB2  
                    l2799 0C6C                      STR_1 1014                      STR_2 1006  
                    STR_3 1010                      STR_4 100C                      STR_5 1012  
                    STR_6 100E                      STR_7 100C                      STR_8 1014  
                    STR_9 1009                      u2000 0E2D                      u2001 0E2C  
                    u2010 0E36                      u2011 0E34                      u2100 0EA1  
                    u2020 0E37                      u2101 0EA0                      u2005 0E29  
                    u2110 0EA5                      u2030 0E4D                      u2111 0EA4  
                    u2031 0E4C                      u3000 0A62                      u2120 0EB6  
                    u2040 0E5E                      u3001 0A61                      u2121 0EB5  
                    u2041 0E5D                      u3010 0A67                      u2210 0F6A  
                    u3011 0A66                      u2211 0F69                      u3020 0A7B  
                    u3100 009B                      u2300 0FBA                      u2220 0F6F  
                    u2140 0EDD                      u2060 0E74                      u3021 0A7A  
                    u3101 009A                      u2221 0F6E                      u2205 0F5F  
                    u2141 0EDC                      u2061 0E73                      u3030 0A82  
                    u3110 00A1                      u2310 0FC9                      u2230 0F79  
                    u2070 0E78                      u3031 0A81                      u3111 00A0  
                    u2311 0FC8                      u2231 0F78                      u2151 0EF6  
                    u2143 0ED9                      u2135 0EBB                      u2071 0E77  
                    u2055 0E63                      u2400 1575                      u3040 0A88  
                    u3120 00A6                      u2320 0FD2                      u2240 0F7F  
                    u2160 0F0A                      u2152 0EF7                      u2080 0E7D  
                    u2401 1574                      u3041 0A87                      u3201 0187  
                    u3121 00A5                      u2321 0FD1                      u2305 0FB5  
                    u2241 0F7E                      u2161 0F0B                      u2153 0EFC  
                    u2081 0E7C                      u2410 000D                      u3050 0A9A  
                    u3202 018E                      u3130 00C7                      u2330 0FD7  
                    u2250 0F84                      u2170 0F28                      u2162 0F10  
                    u2154 0EFD                      u2411 000C                      u3051 0A99  
                    u3211 01A3                      u3203 0195                      u3131 00C6  
                    u2331 0FD6                      u2251 0F83                      u2171 0F27  
                    u2163 0F11                      u2155 0F02                      u2091 0E8F  
                    u3060 0AA9                      u3212 01AA                      u3140 00CD  
                    u2340 0FE4                      u2260 0F8A                      u2180 0F4D  
                    u2156 0F03                      u2092 0E96                      u2420 1563  
                    u3301 02CC                      u3213 01B1                      u3141 00CC  
                    u2341 0FE3                      u2261 0F89                      u2181 0F4C  
                    u2093 0E9D                      u2421 1562                      u2510 16D0  
                    u3070 0AC6                      u3310 02E8                      u3302 02D3  
                    u3150 00D2                      u2350 0FE9                      u2270 0F91  
                    u2190 0F52                      u2430 15F3                      u2511 16CF  
                    u3071 0AC5                      u3303 02DA                      u3231 01D9  
                    u3151 00D1                      u2351 0FE8                      u2271 0F90  
                    u2191 0F51                      u2431 15F2                      u2600 173B  
                    u3080 0AE3                      u3400 035A                      u3232 01E0  
                    u3160 00E9                      u2360 0FFE                      u2280 0F97  
                    u2505 16B7                      u2601 173A                      u3081 0AE2  
                    u3065 0AA4                      u3401 0359                      u3321 02F4  
                    u3241 0206                      u3233 01E7                      u3225 01B3  
                    u3161 00E8                      u2361 0FFD                      u2281 0F96  
                    u2530 16EE                      u3090 0AFA                      u2370 15D2  
                    u3410 0360                      u3322 02FB                      u3242 020D  
                    u3170 00EE                      u2290 0FA9                      u2531 16ED  
                    u2515 16CC                      u3091 0AF9                      u3075 0AC2  
                    u2371 15D1                      u3411 035F                      u3323 0302  
                    u3315 02E3                      u3243 0214                      u3171 00ED  
                    u2291 0FA8                      u2620 174F                      u2540 16FC  
                    u2700 17FC                      u3420 0372                      u2460 160D  
                    u2525 16E0                      u2621 174E                      u2605 1737  
                    u2541 16FB                      u3085 0ADF                      u2701 17FB  
                    u3421 0371                      u3261 023C                      u3181 013F  
                    u2461 160C                      u2445 15FA                      u2470 16A1  
                    u2630 1754                      u2550 1707                      u2390 15E6  
                    u3430 0381                      u3350 0326                      u3262 0243  
                    u3182 0146                      u1910 0D79                      u2710 001B  
                    u3510 08C1                      u2471 16A0                      u2631 1753  
                    u2615 1743                      u2551 1706                      u2391 15E5  
                    u3351 0325                      u3335 0304                      u3271 0269  
                    u3263 024A                      u3255 0216                      u3191 015B  
                    u3183 014D                      u1911 0D78                      u2711 001A  
                    u2455 1601                      u3511 08C0                      u2560 1718  
                    u2640 1772                      u3440 039E                      u3272 0270  
                    u3192 0162                      u1920 0D7F                      u2800 007E  
                    u2720 0032                      u3600 0926                      u2561 1717  
                    u2705 17F8                      u2641 1771                      u2385 15D9  
                    u3441 039D                      u3345 031B                      u3281 0296  
                    u3273 0277                      u3193 0169                      u1921 0D7E  
                    u2801 007D                      u3601 0925                      u3505 08B3  
                    u2490 16B5                      u3610 080C                      u2810 0941  
                    u2650 178E                      u3450 03B8                      u3370 033A  
                    u3290 02C0                      u3282 029D                      u1930 0D84  
                    u2730 0048                      u3530 08E3                      u2491 16B4  
                    u3611 080B                      u2811 0940                      u2651 178D  
                    u3451 03B7                      u3435 037C                      u3371 0339  
                    u3283 02A4                      u1931 0D83                      u2731 0047  
                    u3531 08E2                      u3620 081A                      u2580 172A  
                    u2820 0947                      u2660 179A                      u3460 03D6  
                    u3380 033F                      u1940 0DA2                      u2740 004F  
                    u3700 06B6                      u2485 16A6                      u2581 1729  
                    u2821 0946                      u2661 1799                      u3461 03D5  
                    u3445 039A                      u3381 033E                      u3365 0329  
                    u1941 0DA1                      u2741 004E                      u2725 002D  
                    u3525 08D5                      u3701 06B5                      u3630 0847  
                    u2830 094C                      u3390 0353                      u1950 0DAD  
                    u3550 08F3                      u3470 087C                      u3710 06F5  
                    u2575 171C                      u2831 094B                      u2671 17A9  
                    u3455 03B4                      u3391 0352                      u3295 02BB  
                    u1951 0DAC                      u3551 08F2                      u3471 087B  
                    u3711 06F4                      u2920 0A02                      u2840 096E  
                    u2680 17C2                      u2672 17AA                      u1960 0DB3  
                    u2760 0061                      u3560 08F9                      u3480 0880  
                    u3720 07D2                      u3640 0423                      u3625 0815  
                    u2921 0A01                      u2905 09EE                      u2841 096D  
                    u2681 17C1                      u2673 17AF                      u1961 0DB2  
                    u2761 0060                      u3561 08F8                      u3545 08E8  
                    u3481 087F                      u3721 07D1                      u3641 0422  
                    u3730 163B                      u2850 0974                      u2674 17B0  
                    u1970 0DB8                      u2770 0068                      u3570 08FD  
                    u3490 08A0                      u3650 047B                      u3635 0842  
                    u3731 163A                      u2595 172B                      u2915 09F7  
                    u2851 0973                      u2691 17D1                      u2675 17B5  
                    u1971 0DB7                      u2771 0067                      u2755 0051  
                    u3571 08FC                      u3491 089F                      u3715 06F1  
                    u3651 047A                      u2940 0A1E                      u2860 0979  
                    u2692 17D2                      u2676 17B6                      u1980 0DD1  
                    u3580 0912                      u3660 0482                      u2941 0A1D  
                    u2861 0978                      u2693 17D7                      u1981 0DD0  
                    u3661 0481                      u2950 0A37                      u2870 0994  
                    u2694 17D8                      u1990 0DD5                      u2790 0079  
                    u3590 0922                      u3670 04C1                      u2951 0A36  
                    u2935 0A05                      u2871 0993                      u2695 17DD  
                    u1991 0DD4                      u2791 0078                      u3591 0921  
                    u3671 04C0                      u2960 0A3F                      u2880 09B2  
                    u2696 17DE                      u3680 059E                      u2961 0A3E  
                    u2945 0A1A                      u2881 09B1                      u2785 006B  
                    u3585 090D                      u3681 059D                      u2890 09EC  
                    u3690 05FD                      u2891 09EB                      u3691 05FC  
                    u3675 04BD                      u3747 0B1B                      u2980 0A4E  
                    u2981 0A4D                      u3757 0B33                      u2975 0A43  
                    u3695 05F9                      u3767 0B41                      u3777 0B59  
                    u3787 162B                      u2995 0A51                      _TXIF 0064  
                    _adc0 006F                      _adc1 006E                      _main 0B0D  
                    btemp 007E                      start 0000           ___fldiv@new_exp 0044  
           ___fltol@sign1 0079           __end_of___fladd 1000                     ?_main 0070  
         __end_of___fldiv 0B0D           __end_of___awdiv 175E                     STR_10 1010  
                   STR_11 100C                     STR_12 1012                     STR_13 100E  
                   STR_14 100C           __end_of___flmul 03EB           __end_of___flsub 15C4  
         __end_of___fltol 008A                     _ANSEL 0188           __end_of___lldiv 16F7  
         ___awdiv@divisor 0070           ___awdiv@counter 0075                     _RCREG 001A  
                   _SPBRG 0099                     _PORTB 0006                     _PORTD 0008  
                   _TRISB 0086                     _TRISD 0088                     _TXREG 0019  
             convert@data 0066          __end_of_UARTInit 0874               convert@temp 00A3  
         __end_of_convert 07EC                     _conv0 00B9                     _conv1 00B5  
                   pclath 000A           __end_of_spiInit 1583           __end_of_spiRead 156D  
                   status 0003                     wtemp0 007E           __initialization 07EC  
            __end_of_main 0D68                    ??_main 00B1          ___awdiv@dividend 0072  
                  _ANSELH 0189                    _TRISC3 043B                    _TRISC5 043D  
                  _SSPCON 0014                    _SSPBUF 0013          __end_of___xxtofl 0930  
                  ___flge 175E              convert@place 006C                 ??___fladd 0020  
                  ___wmul 15EB                 ??___fldiv 003A                 ??___awdiv 0074  
               ??___flmul 0054                 ??___flsub 007D                 ??___fltol 0074  
               ??___lldiv 0078                    _config 1583   __size_of_UARTSendString 002A  
        ___awdiv@quotient 0077                 ??_convert 00A0        __size_of__Umul8_16 0027  
        __end_of_spiWrite 155D                 ??_spiInit 0073                 ??_spiRead 0070  
              ___flge@ff1 0070                ___flge@ff2 0074              ___xxtofl@arg 002E  
            ___xxtofl@exp 002D              ___xxtofl@val 0024   __end_of__initialization 07FC  
          config_osc@frec 0072                ___fltol@f1 0070            __pcstackCOMMON 0070  
               ?_UARTInit 0020  UARTSendString@max_length 0071                __pbssBANK0 006E  
              __pbssBANK1 00B5         __end_of__Umul8_16 15EB                __pmaintext 0B0D  
                 ?___flge 0070                   ?___wmul 0020                ??_UARTInit 0025  
                 ?_config 0070   __size_of_spiReceiveWait 0007                 ?___xxtofl 0024  
              _config_osc 163C                   _SSPSTAT 0094                __stringtab 1000  
           ?_UARTSendChar 0070             convert@digits 00AD                 ?_spiWrite 0070  
         __size_of___flge 00A2                   ___fladd 0D68                   ___fldiv 0930  
                 ___awdiv 16F7                   ___flmul 008A                   ___flsub 15A0  
                 ___fltol 0010                   ___lldiv 1691           __size_of___wmul 0027  
          _UARTSendString 1612           __size_of_config 001D                 _ANSELbits 0188  
                 __ptext1 1557                   __ptext2 1564                   __ptext3 155D  
                 __ptext4 03EB                   __ptext5 0874                   __ptext6 15EB  
                 __ptext7 0010                   __ptext8 15A0                   __ptext9 0D68  
                 _convert 03EB                ??___xxtofl 0028                   _spiInit 156D  
                 _spiRead 1564                   _sensor1 00BE                   _sensor2 00BD  
    end_of_initialization 07FC            ??_UARTSendChar 0070           ___lldiv@divisor 0070  
         ___lldiv@counter 007D                 _RCSTAbits 0018    __end_of_UARTSendString 163C  
              ??_spiWrite 0070                 _PORTCbits 0007               ___fladd@grs 007B  
           ___xxtofl@sign 002C               ?_config_osc 0070                 _TRISCbits 0087  
             ___fldiv@grs 0046               ___fldiv@rem 003F               spiWrite@dat 0070  
             ___flmul@grs 005A                 _TXSTAbits 0098           ?_UARTSendString 0071  
          _spiReceiveWait 155D            __end_of___flge 1800            __end_of___wmul 1612  
       __size_of_UARTInit 006F            __end_of_config 15A0       start_initialization 07EC  
  __end_of_spiReceiveWait 1564                  ??___flge 0078       __size_of_config_osc 0055  
                ??___wmul 007B                 __Umul8_16 15C4                  ??_config 0074  
    __end_of_UARTSendChar 0010                 ___fladd@a 0074                 ___fladd@b 0070  
               ___fldiv@a 0032                 ___fldiv@b 0036                 ___flmul@a 0050  
               ___flmul@b 004C                 ___flsub@a 0032                 ___flsub@b 0036  
               ___latbits 0002             __pcstackBANK0 0020             __pcstackBANK1 00A0  
       __size_of___xxtofl 00BC             UARTSendChar@c 0070           ?_spiReceiveWait 0070  
                ?___fladd 0070                  ?___fldiv 0032                  ?___awdiv 0070  
                ?___flmul 004C                  ?___flsub 0032                  ?___fltol 0070  
                ?___lldiv 0070                ?__Umul8_16 0070         __size_of_spiWrite 0006  
               __pstrings 1000                  ?_convert 0066                  ?_spiInit 0070  
                ?_spiRead 0070      spiInit@sTransmitEdge 0072            ___wmul@product 007B  
                _PIE1bits 008C           UARTSendString@i 0073        spiInit@sDataSample 0070  
                _PIR1bits 000C                  _UARTInit 0805                _ADCON0bits 001F  
             __stringbase 1005                _ADCON1bits 009F         ___wmul@multiplier 0020  
            ??_config_osc 0070                 convert@mu 00AF          ??_UARTSendString 0072  
   __size_of_UARTSendChar 000A              UARTInit@BRGH 0024        __end_of_config_osc 1691  
             ??__Umul8_16 0072          __size_of___fladd 0298          __size_of___fldiv 01DD  
        __size_of___awdiv 0067          __size_of___flmul 0361          __size_of___flsub 0024  
        __size_of___fltol 007A          __size_of___lldiv 0066        __end_of__stringtab 1006  
              _ANSELHbits 0189          __size_of_convert 0401                  ___xxtofl 0874  
                __ptext10 008A                  __ptext11 15C4                  __ptext20 0805  
                __ptext12 175E                  __ptext21 1691                  __ptext13 0930  
                __ptext14 16F7                  __ptext15 1583                  __ptext16 156D  
                __ptext17 163C                  __ptext18 1612                  __ptext19 0006  
        __size_of_spiInit 0016          __size_of_spiRead 0009              _UARTSendChar 0006  
           __size_of_main 025B                  _spiWrite 1557              spiInit@sType 0073  
       spiInit@sClockIdle 0071                  convert@a 0068                  convert@i 00AB  
                convert@j 00A5                  convert@x 00A7         UARTSendString@str 0075  
        ___lldiv@dividend 0074          ??_spiReceiveWait 0070                 stringcode 1000  
              _OSCCONbits 008F    __Umul8_16@multiplicand 0070          ___lldiv@quotient 0079  
                stringdir 1000                  stringtab 1000             ___fladd@signs 0078  
            ___fladd@aexp 0079              ___fladd@bexp 007A      __Umul8_16@multiplier 0078  
       __Umul8_16@product 0074  
