

Microchip MPLAB XC8 Assembler V2.32 build 20210201212658 
                                                                                               Sat Jul 31 18:41:39 2021

Microchip MPLAB XC8 C Compiler v2.32 (Free license) build 20210201212658 Og1 
     1                           	processor	16F887
     2                           	pagewidth 120
     3                           	opt	flic
     4                           	psect	cinit,global,class=CODE,merge=1,delta=2
     5                           	psect	bssBANK0,global,class=BANK0,space=1,delta=1,noexec
     6                           	psect	bssBANK1,global,class=BANK1,space=1,delta=1,noexec
     7                           	psect	clrtext,global,class=CODE,delta=2
     8                           	psect	cstackBANK1,global,class=BANK1,space=1,delta=1,noexec
     9                           	psect	cstackCOMMON,global,class=COMMON,space=1,delta=1,noexec
    10                           	psect	cstackBANK0,global,class=BANK0,space=1,delta=1,noexec
    11                           	psect	maintext,global,class=CODE,split=1,delta=2
    12                           	psect	text1,local,class=CODE,merge=1,delta=2
    13                           	psect	text2,local,class=CODE,merge=1,delta=2
    14                           	psect	text3,local,class=CODE,merge=1,delta=2
    15                           	psect	text4,local,class=CODE,merge=1,delta=2,group=1
    16                           	psect	text5,local,class=CODE,merge=1,delta=2,group=1
    17                           	psect	text6,local,class=CODE,merge=1,delta=2,group=1
    18                           	psect	text7,local,class=CODE,merge=1,delta=2,group=1
    19                           	psect	text8,local,class=CODE,merge=1,delta=2,group=1
    20                           	psect	text9,local,class=CODE,merge=1,delta=2,group=1
    21                           	psect	text10,local,class=CODE,merge=1,delta=2,group=1
    22                           	psect	text11,local,class=CODE,merge=1,delta=2,group=1
    23                           	psect	text12,local,class=CODE,merge=1,delta=2,group=1
    24                           	psect	text13,local,class=CODE,merge=1,delta=2,group=1
    25                           	psect	text14,local,class=CODE,merge=1,delta=2
    26                           	psect	text15,local,class=CODE,merge=1,delta=2
    27                           	psect	text16,local,class=CODE,merge=1,delta=2
    28                           	psect	text17,local,class=CODE,merge=1,delta=2
    29                           	psect	text18,local,class=CODE,merge=1,delta=2,group=1
    30                           	psect	text19,local,class=CODE,merge=1,delta=2
    31                           	psect	text20,local,class=CODE,merge=1,delta=2
    32                           	psect	intentry,global,class=CODE,delta=2
    33                           	psect	text21,local,class=CODE,merge=1,delta=2
    34                           	psect	text22,local,class=CODE,merge=1,delta=2
    35                           	psect	text23,local,class=CODE,merge=1,delta=2
    36                           	psect	text24,local,class=CODE,merge=1,delta=2
    37                           	psect	config,global,abs,ovrld,class=CONFIG,space=4,delta=2,noexec
    38                           	dabs	1,0x7E,2
    39  0000                     
    40                           ; Version 2.20
    41                           ; Generated 12/02/2020 GMT
    42                           ; 
    43                           ; Copyright © 2020, Microchip Technology Inc. and its subsidiaries ("Microchip")
    44                           ; All rights reserved.
    45                           ; 
    46                           ; This software is developed by Microchip Technology Inc. and its subsidiaries ("Microch
      +                          ip").
    47                           ; 
    48                           ; Redistribution and use in source and binary forms, with or without modification, are
    49                           ; permitted provided that the following conditions are met:
    50                           ; 
    51                           ;     1. Redistributions of source code must retain the above copyright notice, this lis
      +                          t of
    52                           ;        conditions and the following disclaimer.
    53                           ; 
    54                           ;     2. Redistributions in binary form must reproduce the above copyright notice, this 
      +                          list
    55                           ;        of conditions and the following disclaimer in the documentation and/or other
    56                           ;        materials provided with the distribution.
    57                           ; 
    58                           ;     3. Microchip's name may not be used to endorse or promote products derived from th
      +                          is
    59                           ;        software without specific prior written permission.
    60                           ; 
    61                           ; THIS SOFTWARE IS PROVIDED BY MICROCHIP "AS IS" AND ANY EXPRESS OR IMPLIED WARRANTIES,
    62                           ; INCLUDING, BUT NOT LIMITED TO, THE IMPLIED WARRANTIES OF MERCHANTABILITY AND FITNESS F
      +                          OR
    63                           ; PURPOSE ARE DISCLAIMED.  IN NO EVENT SHALL MICROCHIP BE LIABLE FOR ANY DIRECT, INDIREC
      +                          T,
    64                           ; INCIDENTAL, SPECIAL, EXEMPLARY, OR CONSEQUENTIAL DAMAGES (INCLUDING BUT NOT LIMITED TO
    65                           ; PROCUREMENT OF SUBSTITUTE GOODS OR SERVICES; LOSS OF USE, DATA OR PROFITS; OR BUSINESS
    66                           ; INTERRUPTION) HOWSOEVER CAUSED AND ON ANY THEORY OF LIABILITY, WHETHER IN CONTRACT, ST
      +                          RICT
    67                           ; LIABILITY, OR TORT (INCLUDING NEGLIGENCE OR OTHERWISE) ARISING IN ANY WAY OUT OF THE U
      +                          SE OF
    68                           ; THIS SOFTWARE, EVEN IF ADVISED OF THE POSSIBILITY OF SUCH DAMAGE.
    69                           ; 
    70                           ; 
    71                           ; Code-generator required, PIC16F887 Definitions
    72                           ; 
    73                           ; SFR Addresses
    74  0000                     	;# 
    75  0001                     	;# 
    76  0002                     	;# 
    77  0003                     	;# 
    78  0004                     	;# 
    79  0005                     	;# 
    80  0006                     	;# 
    81  0007                     	;# 
    82  0008                     	;# 
    83  0009                     	;# 
    84  000A                     	;# 
    85  000B                     	;# 
    86  000C                     	;# 
    87  000D                     	;# 
    88  000E                     	;# 
    89  000E                     	;# 
    90  000F                     	;# 
    91  0010                     	;# 
    92  0011                     	;# 
    93  0012                     	;# 
    94  0013                     	;# 
    95  0014                     	;# 
    96  0015                     	;# 
    97  0015                     	;# 
    98  0016                     	;# 
    99  0017                     	;# 
   100  0018                     	;# 
   101  0019                     	;# 
   102  001A                     	;# 
   103  001B                     	;# 
   104  001B                     	;# 
   105  001C                     	;# 
   106  001D                     	;# 
   107  001E                     	;# 
   108  001F                     	;# 
   109  0081                     	;# 
   110  0085                     	;# 
   111  0086                     	;# 
   112  0087                     	;# 
   113  0088                     	;# 
   114  0089                     	;# 
   115  008C                     	;# 
   116  008D                     	;# 
   117  008E                     	;# 
   118  008F                     	;# 
   119  0090                     	;# 
   120  0091                     	;# 
   121  0092                     	;# 
   122  0093                     	;# 
   123  0093                     	;# 
   124  0093                     	;# 
   125  0094                     	;# 
   126  0095                     	;# 
   127  0096                     	;# 
   128  0097                     	;# 
   129  0098                     	;# 
   130  0099                     	;# 
   131  009A                     	;# 
   132  009B                     	;# 
   133  009C                     	;# 
   134  009D                     	;# 
   135  009E                     	;# 
   136  009F                     	;# 
   137  0105                     	;# 
   138  0107                     	;# 
   139  0108                     	;# 
   140  0109                     	;# 
   141  010C                     	;# 
   142  010C                     	;# 
   143  010D                     	;# 
   144  010E                     	;# 
   145  010F                     	;# 
   146  0185                     	;# 
   147  0187                     	;# 
   148  0188                     	;# 
   149  0189                     	;# 
   150  018C                     	;# 
   151  018D                     	;# 
   152  0000                     	;# 
   153  0001                     	;# 
   154  0002                     	;# 
   155  0003                     	;# 
   156  0004                     	;# 
   157  0005                     	;# 
   158  0006                     	;# 
   159  0007                     	;# 
   160  0008                     	;# 
   161  0009                     	;# 
   162  000A                     	;# 
   163  000B                     	;# 
   164  000C                     	;# 
   165  000D                     	;# 
   166  000E                     	;# 
   167  000E                     	;# 
   168  000F                     	;# 
   169  0010                     	;# 
   170  0011                     	;# 
   171  0012                     	;# 
   172  0013                     	;# 
   173  0014                     	;# 
   174  0015                     	;# 
   175  0015                     	;# 
   176  0016                     	;# 
   177  0017                     	;# 
   178  0018                     	;# 
   179  0019                     	;# 
   180  001A                     	;# 
   181  001B                     	;# 
   182  001B                     	;# 
   183  001C                     	;# 
   184  001D                     	;# 
   185  001E                     	;# 
   186  001F                     	;# 
   187  0081                     	;# 
   188  0085                     	;# 
   189  0086                     	;# 
   190  0087                     	;# 
   191  0088                     	;# 
   192  0089                     	;# 
   193  008C                     	;# 
   194  008D                     	;# 
   195  008E                     	;# 
   196  008F                     	;# 
   197  0090                     	;# 
   198  0091                     	;# 
   199  0092                     	;# 
   200  0093                     	;# 
   201  0093                     	;# 
   202  0093                     	;# 
   203  0094                     	;# 
   204  0095                     	;# 
   205  0096                     	;# 
   206  0097                     	;# 
   207  0098                     	;# 
   208  0099                     	;# 
   209  009A                     	;# 
   210  009B                     	;# 
   211  009C                     	;# 
   212  009D                     	;# 
   213  009E                     	;# 
   214  009F                     	;# 
   215  0105                     	;# 
   216  0107                     	;# 
   217  0108                     	;# 
   218  0109                     	;# 
   219  010C                     	;# 
   220  010C                     	;# 
   221  010D                     	;# 
   222  010E                     	;# 
   223  010F                     	;# 
   224  0185                     	;# 
   225  0187                     	;# 
   226  0188                     	;# 
   227  0189                     	;# 
   228  018C                     	;# 
   229  018D                     	;# 
   230  0000                     	;# 
   231  0001                     	;# 
   232  0002                     	;# 
   233  0003                     	;# 
   234  0004                     	;# 
   235  0005                     	;# 
   236  0006                     	;# 
   237  0007                     	;# 
   238  0008                     	;# 
   239  0009                     	;# 
   240  000A                     	;# 
   241  000B                     	;# 
   242  000C                     	;# 
   243  000D                     	;# 
   244  000E                     	;# 
   245  000E                     	;# 
   246  000F                     	;# 
   247  0010                     	;# 
   248  0011                     	;# 
   249  0012                     	;# 
   250  0013                     	;# 
   251  0014                     	;# 
   252  0015                     	;# 
   253  0015                     	;# 
   254  0016                     	;# 
   255  0017                     	;# 
   256  0018                     	;# 
   257  0019                     	;# 
   258  001A                     	;# 
   259  001B                     	;# 
   260  001B                     	;# 
   261  001C                     	;# 
   262  001D                     	;# 
   263  001E                     	;# 
   264  001F                     	;# 
   265  0081                     	;# 
   266  0085                     	;# 
   267  0086                     	;# 
   268  0087                     	;# 
   269  0088                     	;# 
   270  0089                     	;# 
   271  008C                     	;# 
   272  008D                     	;# 
   273  008E                     	;# 
   274  008F                     	;# 
   275  0090                     	;# 
   276  0091                     	;# 
   277  0092                     	;# 
   278  0093                     	;# 
   279  0093                     	;# 
   280  0093                     	;# 
   281  0094                     	;# 
   282  0095                     	;# 
   283  0096                     	;# 
   284  0097                     	;# 
   285  0098                     	;# 
   286  0099                     	;# 
   287  009A                     	;# 
   288  009B                     	;# 
   289  009C                     	;# 
   290  009D                     	;# 
   291  009E                     	;# 
   292  009F                     	;# 
   293  0105                     	;# 
   294  0107                     	;# 
   295  0108                     	;# 
   296  0109                     	;# 
   297  010C                     	;# 
   298  010C                     	;# 
   299  010D                     	;# 
   300  010E                     	;# 
   301  010F                     	;# 
   302  0185                     	;# 
   303  0187                     	;# 
   304  0188                     	;# 
   305  0189                     	;# 
   306  018C                     	;# 
   307  018D                     	;# 
   308  0000                     	;# 
   309  0001                     	;# 
   310  0002                     	;# 
   311  0003                     	;# 
   312  0004                     	;# 
   313  0005                     	;# 
   314  0006                     	;# 
   315  0007                     	;# 
   316  0008                     	;# 
   317  0009                     	;# 
   318  000A                     	;# 
   319  000B                     	;# 
   320  000C                     	;# 
   321  000D                     	;# 
   322  000E                     	;# 
   323  000E                     	;# 
   324  000F                     	;# 
   325  0010                     	;# 
   326  0011                     	;# 
   327  0012                     	;# 
   328  0013                     	;# 
   329  0014                     	;# 
   330  0015                     	;# 
   331  0015                     	;# 
   332  0016                     	;# 
   333  0017                     	;# 
   334  0018                     	;# 
   335  0019                     	;# 
   336  001A                     	;# 
   337  001B                     	;# 
   338  001B                     	;# 
   339  001C                     	;# 
   340  001D                     	;# 
   341  001E                     	;# 
   342  001F                     	;# 
   343  0081                     	;# 
   344  0085                     	;# 
   345  0086                     	;# 
   346  0087                     	;# 
   347  0088                     	;# 
   348  0089                     	;# 
   349  008C                     	;# 
   350  008D                     	;# 
   351  008E                     	;# 
   352  008F                     	;# 
   353  0090                     	;# 
   354  0091                     	;# 
   355  0092                     	;# 
   356  0093                     	;# 
   357  0093                     	;# 
   358  0093                     	;# 
   359  0094                     	;# 
   360  0095                     	;# 
   361  0096                     	;# 
   362  0097                     	;# 
   363  0098                     	;# 
   364  0099                     	;# 
   365  009A                     	;# 
   366  009B                     	;# 
   367  009C                     	;# 
   368  009D                     	;# 
   369  009E                     	;# 
   370  009F                     	;# 
   371  0105                     	;# 
   372  0107                     	;# 
   373  0108                     	;# 
   374  0109                     	;# 
   375  010C                     	;# 
   376  010C                     	;# 
   377  010D                     	;# 
   378  010E                     	;# 
   379  010F                     	;# 
   380  0185                     	;# 
   381  0187                     	;# 
   382  0188                     	;# 
   383  0189                     	;# 
   384  018C                     	;# 
   385  018D                     	;# 
   386  0000                     	;# 
   387  0001                     	;# 
   388  0002                     	;# 
   389  0003                     	;# 
   390  0004                     	;# 
   391  0005                     	;# 
   392  0006                     	;# 
   393  0007                     	;# 
   394  0008                     	;# 
   395  0009                     	;# 
   396  000A                     	;# 
   397  000B                     	;# 
   398  000C                     	;# 
   399  000D                     	;# 
   400  000E                     	;# 
   401  000E                     	;# 
   402  000F                     	;# 
   403  0010                     	;# 
   404  0011                     	;# 
   405  0012                     	;# 
   406  0013                     	;# 
   407  0014                     	;# 
   408  0015                     	;# 
   409  0015                     	;# 
   410  0016                     	;# 
   411  0017                     	;# 
   412  0018                     	;# 
   413  0019                     	;# 
   414  001A                     	;# 
   415  001B                     	;# 
   416  001B                     	;# 
   417  001C                     	;# 
   418  001D                     	;# 
   419  001E                     	;# 
   420  001F                     	;# 
   421  0081                     	;# 
   422  0085                     	;# 
   423  0086                     	;# 
   424  0087                     	;# 
   425  0088                     	;# 
   426  0089                     	;# 
   427  008C                     	;# 
   428  008D                     	;# 
   429  008E                     	;# 
   430  008F                     	;# 
   431  0090                     	;# 
   432  0091                     	;# 
   433  0092                     	;# 
   434  0093                     	;# 
   435  0093                     	;# 
   436  0093                     	;# 
   437  0094                     	;# 
   438  0095                     	;# 
   439  0096                     	;# 
   440  0097                     	;# 
   441  0098                     	;# 
   442  0099                     	;# 
   443  009A                     	;# 
   444  009B                     	;# 
   445  009C                     	;# 
   446  009D                     	;# 
   447  009E                     	;# 
   448  009F                     	;# 
   449  0105                     	;# 
   450  0107                     	;# 
   451  0108                     	;# 
   452  0109                     	;# 
   453  010C                     	;# 
   454  010C                     	;# 
   455  010D                     	;# 
   456  010E                     	;# 
   457  010F                     	;# 
   458  0185                     	;# 
   459  0187                     	;# 
   460  0188                     	;# 
   461  0189                     	;# 
   462  018C                     	;# 
   463  018D                     	;# 
   464  001F                     _ADCON0bits	set	31
   465  001A                     _RCREG	set	26
   466  0019                     _TXREG	set	25
   467  0018                     _RCSTAbits	set	24
   468  0013                     _SSPBUF	set	19
   469  0014                     _SSPCON	set	20
   470  000B                     _INTCONbits	set	11
   471  001E                     _ADRESH	set	30
   472  000C                     _PIR1bits	set	12
   473  0006                     _PORTB	set	6
   474  0008                     _PORTD	set	8
   475  0007                     _PORTC	set	7
   476  0064                     _TXIF	set	100
   477  0063                     _SSPIF	set	99
   478  009F                     _ADCON1bits	set	159
   479  0087                     _TRISCbits	set	135
   480  0098                     _TXSTAbits	set	152
   481  0099                     _SPBRG	set	153
   482  0094                     _SSPSTATbits	set	148
   483  0094                     _SSPSTAT	set	148
   484  008F                     _OSCCONbits	set	143
   485  0085                     _TRISAbits	set	133
   486  008C                     _PIE1bits	set	140
   487  0088                     _TRISD	set	136
   488  0087                     _TRISC	set	135
   489  0086                     _TRISB	set	134
   490  043B                     _TRISC3	set	1083
   491  043D                     _TRISC5	set	1085
   492  0429                     _TRISA1	set	1065
   493  0428                     _TRISA0	set	1064
   494  0189                     _ANSELHbits	set	393
   495  0188                     _ANSELbits	set	392
   496  0189                     _ANSELH	set	393
   497  0188                     _ANSEL	set	392
   498                           
   499                           	psect	cinit
   500  000F                     start_initialization:	
   501                           ; #config settings
   502                           
   503  000F                     __initialization:
   504                           
   505                           ; Clear objects allocated to BANK0
   506  000F  1283               	bcf	3,5	;RP0=0, select bank0
   507  0010  1303               	bcf	3,6	;RP1=0, select bank0
   508  0011  01EE               	clrf	__pbssBANK0& (0+127)
   509  0012  01EF               	clrf	(__pbssBANK0+1)& (0+127)
   510                           
   511                           ; Clear objects allocated to BANK1
   512  0013  1383               	bcf	3,7	;select IRP bank0
   513  0014  30C0               	movlw	low __pbssBANK1
   514  0015  0084               	movwf	4
   515  0016  30DD               	movlw	low (__pbssBANK1+29)
   516  0017  160A  118A  21A3  120A  118A  	fcall	clear_ram0
   517  001C                     end_of_initialization:	
   518                           ;End of C runtime variable initialization code
   519                           
   520  001C                     __end_of__initialization:
   521  001C  0183               	clrf	3
   522  001D  160A  118A  2E56   	ljmp	_main	;jump to C main() function
   523                           
   524                           	psect	bssBANK0
   525  006E                     __pbssBANK0:
   526  006E                     _var_adc1:
   527  006E                     	ds	1
   528  006F                     _var_adc0:
   529  006F                     	ds	1
   530                           
   531                           	psect	bssBANK1
   532  00C0                     __pbssBANK1:
   533  00C0                     _conv1:
   534  00C0                     	ds	4
   535  00C4                     _conv0:
   536  00C4                     	ds	4
   537  00C8                     _canal_act:
   538  00C8                     	ds	1
   539  00C9                     _adc1:
   540  00C9                     	ds	10
   541  00D3                     _adc0:
   542  00D3                     	ds	10
   543                           
   544                           	psect	clrtext
   545  11A3                     clear_ram0:	
   546                           ;	Called with FSR containing the base address, and
   547                           ;	W with the last address+1
   548                           
   549  11A3  0064               	clrwdt	;clear the watchdog before getting into this loop
   550  11A4                     clrloop0:
   551  11A4  0180               	clrf	0	;clear RAM location pointed to by FSR
   552  11A5  0A84               	incf	4,f	;increment pointer
   553  11A6  0604               	xorwf	4,w	;XOR with final address
   554  11A7  1903               	btfsc	3,2	;have we reached the end yet?
   555  11A8  3400               	retlw	0	;all done for this memory range, return
   556  11A9  0604               	xorwf	4,w	;XOR again to restore value
   557  11AA  29A4               	goto	clrloop0	;do the next byte
   558                           
   559                           	psect	cstackBANK1
   560  00A0                     __pcstackBANK1:
   561  00A0                     ___flmul@sign:
   562                           
   563                           ; 1 bytes @ 0x0
   564  00A0                     	ds	1
   565  00A1                     ___flmul@grs:
   566                           
   567                           ; 4 bytes @ 0x1
   568  00A1                     	ds	4
   569  00A5                     ___flmul@aexp:
   570                           
   571                           ; 1 bytes @ 0x5
   572  00A5                     	ds	1
   573  00A6                     ___flmul@bexp:
   574                           
   575                           ; 1 bytes @ 0x6
   576  00A6                     	ds	1
   577  00A7                     ___flmul@prod:
   578                           
   579                           ; 4 bytes @ 0x7
   580  00A7                     	ds	4
   581  00AB                     ___flmul@temp:
   582                           
   583                           ; 2 bytes @ 0xB
   584  00AB                     	ds	2
   585  00AD                     convert@temp:
   586                           
   587                           ; 2 bytes @ 0xD
   588  00AD                     	ds	2
   589  00AF                     convert@j:
   590                           
   591                           ; 2 bytes @ 0xF
   592  00AF                     	ds	2
   593  00B1                     convert@data:
   594                           
   595                           ; 1 bytes @ 0x11
   596  00B1                     	ds	1
   597  00B2                     convert@x:
   598                           
   599                           ; 4 bytes @ 0x12
   600  00B2                     	ds	4
   601  00B6                     convert@i:
   602                           
   603                           ; 2 bytes @ 0x16
   604  00B6                     	ds	2
   605  00B8                     convert@digits:
   606                           
   607                           ; 2 bytes @ 0x18
   608  00B8                     	ds	2
   609  00BA                     convert@mu:
   610                           
   611                           ; 2 bytes @ 0x1A
   612  00BA                     	ds	2
   613  00BC                     ??_main:
   614                           
   615                           ; 1 bytes @ 0x1C
   616  00BC                     	ds	4
   617                           
   618                           	psect	cstackCOMMON
   619  0070                     __pcstackCOMMON:
   620  0070                     ?_spiRead:
   621  0070                     ??_spiRead:	
   622                           ; 1 bytes @ 0x0
   623                           
   624  0070                     ?_spiWrite:	
   625                           ; 1 bytes @ 0x0
   626                           
   627  0070                     ??_spiWrite:	
   628                           ; 1 bytes @ 0x0
   629                           
   630  0070                     ?_configE:	
   631                           ; 1 bytes @ 0x0
   632                           
   633  0070                     ?_start_ch:	
   634                           ; 1 bytes @ 0x0
   635                           
   636  0070                     ?_Select_ch:	
   637                           ; 1 bytes @ 0x0
   638                           
   639  0070                     ?_config_osc:	
   640                           ; 1 bytes @ 0x0
   641                           
   642  0070                     ?_isr:	
   643                           ; 1 bytes @ 0x0
   644                           
   645  0070                     ?_main:	
   646                           ; 1 bytes @ 0x0
   647                           
   648  0070                     ?_spiReceiveWait:	
   649                           ; 1 bytes @ 0x0
   650                           
   651  0070                     ??_spiReceiveWait:	
   652                           ; 1 bytes @ 0x0
   653                           
   654  0070                     ?i1___fltol:	
   655                           ; 1 bytes @ 0x0
   656                           
   657  0070                     spiWrite@dat:	
   658                           ; 4 bytes @ 0x0
   659                           
   660  0070                     i1___fltol@f1:	
   661                           ; 1 bytes @ 0x0
   662                           
   663                           
   664                           ; 4 bytes @ 0x0
   665  0070                     	ds	4
   666  0074                     ??i1___fltol:
   667                           
   668                           ; 1 bytes @ 0x4
   669  0074                     	ds	5
   670  0079                     i1___fltol@sign1:
   671                           
   672                           ; 1 bytes @ 0x9
   673  0079                     	ds	1
   674  007A                     i1___fltol@exp1:
   675                           
   676                           ; 1 bytes @ 0xA
   677  007A                     	ds	1
   678  007B                     ??_isr:
   679                           
   680                           ; 1 bytes @ 0xB
   681  007B                     	ds	2
   682                           
   683                           	psect	cstackBANK0
   684  0020                     __pcstackBANK0:
   685  0020                     ?___flge:
   686  0020                     ?_start_adc:	
   687                           ; 1 bit 
   688                           
   689  0020                     ??_start_ch:	
   690                           ; 1 bytes @ 0x0
   691                           
   692  0020                     ??_Select_ch:	
   693                           ; 1 bytes @ 0x0
   694                           
   695  0020                     ??_config_osc:	
   696                           ; 1 bytes @ 0x0
   697                           
   698  0020                     ?_spiInit:	
   699                           ; 1 bytes @ 0x0
   700                           
   701  0020                     ?__Umul8_16:	
   702                           ; 1 bytes @ 0x0
   703                           
   704  0020                     ?___awdiv:	
   705                           ; 2 bytes @ 0x0
   706                           
   707  0020                     ?___lldiv:	
   708                           ; 2 bytes @ 0x0
   709                           
   710  0020                     ?___fltol:	
   711                           ; 4 bytes @ 0x0
   712                           
   713  0020                     ?___fladd:	
   714                           ; 4 bytes @ 0x0
   715                           
   716  0020                     spiInit@sDataSample:	
   717                           ; 4 bytes @ 0x0
   718                           
   719  0020                     start_adc@isr:	
   720                           ; 1 bytes @ 0x0
   721                           
   722  0020                     __Umul8_16@multiplicand:	
   723                           ; 1 bytes @ 0x0
   724                           
   725  0020                     ___awdiv@divisor:	
   726                           ; 1 bytes @ 0x0
   727                           
   728  0020                     ___lldiv@divisor:	
   729                           ; 2 bytes @ 0x0
   730                           
   731  0020                     ___flge@ff1:	
   732                           ; 4 bytes @ 0x0
   733                           
   734  0020                     ___fltol@f1:	
   735                           ; 4 bytes @ 0x0
   736                           
   737  0020                     ___fladd@b:	
   738                           ; 4 bytes @ 0x0
   739                           
   740                           
   741                           ; 4 bytes @ 0x0
   742  0020                     	ds	1
   743  0021                     spiInit@sClockIdle:
   744  0021                     start_adc@Vref:	
   745                           ; 1 bytes @ 0x1
   746                           
   747                           
   748                           ; 1 bytes @ 0x1
   749  0021                     	ds	1
   750  0022                     ??__Umul8_16:
   751  0022                     config_osc@frec:	
   752                           ; 1 bytes @ 0x2
   753                           
   754  0022                     spiInit@sTransmitEdge:	
   755                           ; 1 bytes @ 0x2
   756                           
   757  0022                     start_adc@justRL:	
   758                           ; 1 bytes @ 0x2
   759                           
   760  0022                     start_ch@channel:	
   761                           ; 1 bytes @ 0x2
   762                           
   763  0022                     Select_ch@channel:	
   764                           ; 1 bytes @ 0x2
   765                           
   766  0022                     ___awdiv@dividend:	
   767                           ; 1 bytes @ 0x2
   768                           
   769                           
   770                           ; 2 bytes @ 0x2
   771  0022                     	ds	1
   772  0023                     ??_start_adc:
   773  0023                     ??_spiInit:	
   774                           ; 1 bytes @ 0x3
   775                           
   776  0023                     spiInit@sType:	
   777                           ; 1 bytes @ 0x3
   778                           
   779                           
   780                           ; 1 bytes @ 0x3
   781  0023                     	ds	1
   782  0024                     ??_configE:
   783  0024                     ??___awdiv:	
   784                           ; 1 bytes @ 0x4
   785                           
   786  0024                     ??___fltol:	
   787                           ; 1 bytes @ 0x4
   788                           
   789  0024                     __Umul8_16@product:	
   790                           ; 1 bytes @ 0x4
   791                           
   792  0024                     ___lldiv@dividend:	
   793                           ; 2 bytes @ 0x4
   794                           
   795  0024                     ___flge@ff2:	
   796                           ; 4 bytes @ 0x4
   797                           
   798  0024                     ___fladd@a:	
   799                           ; 4 bytes @ 0x4
   800                           
   801                           
   802                           ; 4 bytes @ 0x4
   803  0024                     	ds	1
   804  0025                     start_adc@frec:
   805  0025                     ___awdiv@counter:	
   806                           ; 1 bytes @ 0x5
   807                           
   808                           
   809                           ; 1 bytes @ 0x5
   810  0025                     	ds	1
   811  0026                     ___awdiv@sign:
   812  0026                     __Umul8_16@word_mpld:	
   813                           ; 1 bytes @ 0x6
   814                           
   815                           
   816                           ; 2 bytes @ 0x6
   817  0026                     	ds	1
   818  0027                     ___awdiv@quotient:
   819                           
   820                           ; 2 bytes @ 0x7
   821  0027                     	ds	1
   822  0028                     ??___lldiv:
   823  0028                     ??___flge:	
   824                           ; 1 bytes @ 0x8
   825                           
   826  0028                     ??___fladd:	
   827                           ; 1 bytes @ 0x8
   828                           
   829  0028                     __Umul8_16@multiplier:	
   830                           ; 1 bytes @ 0x8
   831                           
   832                           
   833                           ; 1 bytes @ 0x8
   834  0028                     	ds	1
   835  0029                     ___fltol@sign1:
   836  0029                     ___lldiv@quotient:	
   837                           ; 1 bytes @ 0x9
   838                           
   839                           
   840                           ; 4 bytes @ 0x9
   841  0029                     	ds	1
   842  002A                     ___fltol@exp1:
   843                           
   844                           ; 1 bytes @ 0xA
   845  002A                     	ds	1
   846  002B                     ?___wmul:
   847  002B                     ___wmul@multiplier:	
   848                           ; 2 bytes @ 0xB
   849                           
   850                           
   851                           ; 2 bytes @ 0xB
   852  002B                     	ds	2
   853  002D                     ___lldiv@counter:
   854  002D                     ___wmul@multiplicand:	
   855                           ; 1 bytes @ 0xD
   856                           
   857                           
   858                           ; 2 bytes @ 0xD
   859  002D                     	ds	1
   860  002E                     ?_UARTInit:
   861  002E                     UARTInit@baud_rate:	
   862                           ; 1 bytes @ 0xE
   863                           
   864                           
   865                           ; 4 bytes @ 0xE
   866  002E                     	ds	1
   867  002F                     ??___wmul:
   868  002F                     ___wmul@product:	
   869                           ; 1 bytes @ 0xF
   870                           
   871                           
   872                           ; 2 bytes @ 0xF
   873  002F                     	ds	1
   874  0030                     ___fladd@signs:
   875                           
   876                           ; 1 bytes @ 0x10
   877  0030                     	ds	1
   878  0031                     ?___xxtofl:
   879  0031                     ___fladd@aexp:	
   880                           ; 4 bytes @ 0x11
   881                           
   882  0031                     ___xxtofl@val:	
   883                           ; 1 bytes @ 0x11
   884                           
   885                           
   886                           ; 4 bytes @ 0x11
   887  0031                     	ds	1
   888  0032                     UARTInit@BRGH:
   889  0032                     ___fladd@bexp:	
   890                           ; 1 bytes @ 0x12
   891                           
   892                           
   893                           ; 1 bytes @ 0x12
   894  0032                     	ds	1
   895  0033                     ??_UARTInit:
   896  0033                     ___fladd@grs:	
   897                           ; 1 bytes @ 0x13
   898                           
   899                           
   900                           ; 1 bytes @ 0x13
   901  0033                     	ds	2
   902  0035                     ??___xxtofl:
   903                           
   904                           ; 1 bytes @ 0x15
   905  0035                     	ds	4
   906  0039                     ___xxtofl@sign:
   907                           
   908                           ; 1 bytes @ 0x19
   909  0039                     	ds	1
   910  003A                     ___xxtofl@exp:
   911                           
   912                           ; 1 bytes @ 0x1A
   913  003A                     	ds	1
   914  003B                     ___xxtofl@arg:
   915                           
   916                           ; 4 bytes @ 0x1B
   917  003B                     	ds	4
   918  003F                     ?___flsub:
   919  003F                     ?___fldiv:	
   920                           ; 4 bytes @ 0x1F
   921                           
   922  003F                     ___flsub@a:	
   923                           ; 4 bytes @ 0x1F
   924                           
   925  003F                     ___fldiv@a:	
   926                           ; 4 bytes @ 0x1F
   927                           
   928                           
   929                           ; 4 bytes @ 0x1F
   930  003F                     	ds	4
   931  0043                     ___flsub@b:
   932  0043                     ___fldiv@b:	
   933                           ; 4 bytes @ 0x23
   934                           
   935                           
   936                           ; 4 bytes @ 0x23
   937  0043                     	ds	4
   938  0047                     ??___flsub:
   939  0047                     ??___fldiv:	
   940                           ; 1 bytes @ 0x27
   941                           
   942                           
   943                           ; 1 bytes @ 0x27
   944  0047                     	ds	5
   945  004C                     ___fldiv@rem:
   946                           
   947                           ; 4 bytes @ 0x2C
   948  004C                     	ds	4
   949  0050                     ___fldiv@sign:
   950                           
   951                           ; 1 bytes @ 0x30
   952  0050                     	ds	1
   953  0051                     ___fldiv@new_exp:
   954                           
   955                           ; 2 bytes @ 0x31
   956  0051                     	ds	2
   957  0053                     ___fldiv@grs:
   958                           
   959                           ; 4 bytes @ 0x33
   960  0053                     	ds	4
   961  0057                     ___fldiv@bexp:
   962                           
   963                           ; 1 bytes @ 0x37
   964  0057                     	ds	1
   965  0058                     ___fldiv@aexp:
   966                           
   967                           ; 1 bytes @ 0x38
   968  0058                     	ds	1
   969  0059                     ?___flmul:
   970  0059                     ___flmul@b:	
   971                           ; 4 bytes @ 0x39
   972                           
   973                           
   974                           ; 4 bytes @ 0x39
   975  0059                     	ds	4
   976  005D                     ___flmul@a:
   977                           
   978                           ; 4 bytes @ 0x3D
   979  005D                     	ds	4
   980  0061                     ??___flmul:
   981                           
   982                           ; 1 bytes @ 0x41
   983  0061                     	ds	5
   984  0066                     ?_convert:
   985  0066                     convert@a:	
   986                           ; 1 bytes @ 0x46
   987                           
   988                           
   989                           ; 4 bytes @ 0x46
   990  0066                     	ds	4
   991  006A                     convert@place:
   992                           
   993                           ; 2 bytes @ 0x4A
   994  006A                     	ds	2
   995  006C                     ??_convert:
   996                           
   997                           ; 1 bytes @ 0x4C
   998  006C                     	ds	2
   999                           
  1000                           	psect	maintext
  1001  1656                     __pmaintext:	
  1002 ;;
  1003 ;;Main: autosize = 0, tempsize = 4, incstack = 0, save=0
  1004 ;;
  1005 ;; *************** function _main *****************
  1006 ;; Defined at:
  1007 ;;		line 62 in file "Esclavo.c"
  1008 ;; Parameters:    Size  Location     Type
  1009 ;;		None
  1010 ;; Auto vars:     Size  Location     Type
  1011 ;;		None
  1012 ;; Return value:  Size  Location     Type
  1013 ;;                  1    wreg      void 
  1014 ;; Registers used:
  1015 ;;		wreg, fsr0l, fsr0h, status,2, status,0, btemp+1, pclath, cstack
  1016 ;; Tracked objects:
  1017 ;;		On entry : B00/0
  1018 ;;		On exit  : 0/0
  1019 ;;		Unchanged: 0/0
  1020 ;; Data sizes:     COMMON   BANK0   BANK1   BANK3   BANK2
  1021 ;;      Params:         0       0       0       0       0
  1022 ;;      Locals:         0       0       0       0       0
  1023 ;;      Temps:          0       0       4       0       0
  1024 ;;      Totals:         0       0       4       0       0
  1025 ;;Total ram usage:        4 bytes
  1026 ;; Hardware stack levels required when called: 6
  1027 ;; This function calls:
  1028 ;;		_Select_ch
  1029 ;;		_UARTInit
  1030 ;;		___fldiv
  1031 ;;		___flmul
  1032 ;;		___xxtofl
  1033 ;;		_configE
  1034 ;;		_convert
  1035 ;;		_start_adc
  1036 ;;		_start_ch
  1037 ;; This function is called by:
  1038 ;;		Startup code after reset
  1039 ;; This function uses a non-reentrant model
  1040 ;;
  1041                           
  1042                           
  1043                           ;psect for function _main
  1044  1656                     _main:
  1045  1656                     l3022:	
  1046                           ;incstack = 0
  1047                           ; Regs used in _main: [wreg-fsr0h+status,2+status,0+btemp+1+pclath+cstack]
  1048                           
  1049                           
  1050                           ;Esclavo.c: 63:     configE();
  1051  1656  160A  118A  2246  160A  118A  	fcall	_configE
  1052                           
  1053                           ;Esclavo.c: 64:     start_adc(2, 1, 0, 0);
  1054  165B  1283               	bcf	3,5	;RP0=0, select bank0
  1055  165C  1303               	bcf	3,6	;RP1=0, select bank0
  1056  165D  01A0               	clrf	start_adc@isr
  1057  165E  0AA0               	incf	start_adc@isr,f
  1058  165F  01A1               	clrf	start_adc@Vref
  1059  1660  01A2               	clrf	start_adc@justRL
  1060  1661  3002               	movlw	2
  1061  1662  160A  118A  23F1  160A  118A  	fcall	_start_adc
  1062                           
  1063                           ;Esclavo.c: 65:     start_ch(0);
  1064  1667  3000               	movlw	0
  1065  1668  160A  118A  245D  160A  118A  	fcall	_start_ch
  1066                           
  1067                           ;Esclavo.c: 66:     start_ch(1);
  1068  166D  3001               	movlw	1
  1069  166E  160A  118A  245D  160A  118A  	fcall	_start_ch
  1070                           
  1071                           ;Esclavo.c: 67:     Select_ch(0);
  1072  1673  3000               	movlw	0
  1073  1674  160A  118A  25BD  160A  118A  	fcall	_Select_ch
  1074  1679                     l3024:
  1075                           
  1076                           ;Esclavo.c: 69:     UARTInit(9600, 1);
  1077  1679  3000               	movlw	0
  1078  167A  1283               	bcf	3,5	;RP0=0, select bank0
  1079  167B  1303               	bcf	3,6	;RP1=0, select bank0
  1080  167C  00B1               	movwf	UARTInit@baud_rate+3
  1081  167D  3000               	movlw	0
  1082  167E  00B0               	movwf	UARTInit@baud_rate+2
  1083  167F  3025               	movlw	37
  1084  1680  00AF               	movwf	UARTInit@baud_rate+1
  1085  1681  3080               	movlw	128
  1086  1682  00AE               	movwf	UARTInit@baud_rate
  1087  1683  01B2               	clrf	UARTInit@BRGH
  1088  1684  0AB2               	incf	UARTInit@BRGH,f
  1089  1685  160A  118A  24CE  160A  118A  	fcall	_UARTInit
  1090  168A                     l3026:
  1091                           
  1092                           ;Esclavo.c: 71:          if (PIR1bits.ADIF == 1) {
  1093  168A  1283               	bcf	3,5	;RP0=0, select bank0
  1094  168B  1303               	bcf	3,6	;RP1=0, select bank0
  1095  168C  1F0C               	btfss	12,6	;volatile
  1096  168D  2E8F               	goto	u3981
  1097  168E  2E90               	goto	u3980
  1098  168F                     u3981:
  1099  168F  2EC5               	goto	l3044
  1100  1690                     u3980:
  1101  1690                     l3028:
  1102                           
  1103                           ;Esclavo.c: 72:             if (canal_act == 0) {
  1104  1690  1683               	bsf	3,5	;RP0=1, select bank1
  1105  1691  1303               	bcf	3,6	;RP1=0, select bank1
  1106  1692  0848               	movf	_canal_act^(0+128),w
  1107  1693  1D03               	btfss	3,2
  1108  1694  2E96               	goto	u3991
  1109  1695  2E97               	goto	u3990
  1110  1696                     u3991:
  1111  1696  2EAE               	goto	l3036
  1112  1697                     u3990:
  1113  1697                     l3030:
  1114                           
  1115                           ;Esclavo.c: 73:                 var_adc0 = ADRESH;
  1116  1697  1283               	bcf	3,5	;RP0=0, select bank0
  1117  1698  1303               	bcf	3,6	;RP1=0, select bank0
  1118  1699  081E               	movf	30,w	;volatile
  1119  169A  1683               	bsf	3,5	;RP0=1, select bank1
  1120  169B  1303               	bcf	3,6	;RP1=0, select bank1
  1121  169C  00BC               	movwf	??_main^(0+128)
  1122  169D  083C               	movf	??_main^(0+128),w
  1123  169E  1283               	bcf	3,5	;RP0=0, select bank0
  1124  169F  1303               	bcf	3,6	;RP1=0, select bank0
  1125  16A0  00EF               	movwf	_var_adc0	;volatile
  1126  16A1                     l3032:
  1127                           
  1128                           ;Esclavo.c: 74:                 Select_ch(0);
  1129  16A1  3000               	movlw	0
  1130  16A2  160A  118A  25BD  160A  118A  	fcall	_Select_ch
  1131  16A7                     l3034:
  1132                           
  1133                           ;Esclavo.c: 75:                 canal_act++;
  1134  16A7  3001               	movlw	1
  1135  16A8  1683               	bsf	3,5	;RP0=1, select bank1
  1136  16A9  1303               	bcf	3,6	;RP1=0, select bank1
  1137  16AA  00BC               	movwf	??_main^(0+128)
  1138  16AB  083C               	movf	??_main^(0+128),w
  1139  16AC  07C8               	addwf	_canal_act^(0+128),f
  1140                           
  1141                           ;Esclavo.c: 77:             } else {
  1142  16AD  2EC2               	goto	l3042
  1143  16AE                     l3036:
  1144                           
  1145                           ;Esclavo.c: 78:                 var_adc1 = ADRESH;
  1146  16AE  1283               	bcf	3,5	;RP0=0, select bank0
  1147  16AF  1303               	bcf	3,6	;RP1=0, select bank0
  1148  16B0  081E               	movf	30,w	;volatile
  1149  16B1  1683               	bsf	3,5	;RP0=1, select bank1
  1150  16B2  1303               	bcf	3,6	;RP1=0, select bank1
  1151  16B3  00BC               	movwf	??_main^(0+128)
  1152  16B4  083C               	movf	??_main^(0+128),w
  1153  16B5  1283               	bcf	3,5	;RP0=0, select bank0
  1154  16B6  1303               	bcf	3,6	;RP1=0, select bank0
  1155  16B7  00EE               	movwf	_var_adc1	;volatile
  1156  16B8                     l3038:
  1157                           
  1158                           ;Esclavo.c: 79:                 Select_ch(1);
  1159  16B8  3001               	movlw	1
  1160  16B9  160A  118A  25BD  160A  118A  	fcall	_Select_ch
  1161  16BE                     l3040:
  1162                           
  1163                           ;Esclavo.c: 80:                 canal_act--;
  1164  16BE  3001               	movlw	1
  1165  16BF  1683               	bsf	3,5	;RP0=1, select bank1
  1166  16C0  1303               	bcf	3,6	;RP1=0, select bank1
  1167  16C1  02C8               	subwf	_canal_act^(0+128),f
  1168  16C2                     l3042:
  1169                           
  1170                           ;Esclavo.c: 83:             PIR1bits.ADIF = 0;
  1171  16C2  1283               	bcf	3,5	;RP0=0, select bank0
  1172  16C3  1303               	bcf	3,6	;RP1=0, select bank0
  1173  16C4  130C               	bcf	12,6	;volatile
  1174  16C5                     l3044:
  1175                           
  1176                           ;Esclavo.c: 85:          conv0 = 0;
  1177  16C5  3000               	movlw	0
  1178  16C6  1683               	bsf	3,5	;RP0=1, select bank1
  1179  16C7  1303               	bcf	3,6	;RP1=0, select bank1
  1180  16C8  00C7               	movwf	(_conv0+3)^(0+128)
  1181  16C9  3000               	movlw	0
  1182  16CA  00C6               	movwf	(_conv0+2)^(0+128)
  1183  16CB  3000               	movlw	0
  1184  16CC  00C5               	movwf	(_conv0+1)^(0+128)
  1185  16CD  3000               	movlw	0
  1186  16CE  00C4               	movwf	_conv0^(0+128)
  1187  16CF                     l3046:
  1188                           
  1189                           ;Esclavo.c: 87:         conv0 = (var_adc0 / (float) 255)*5;
  1190  16CF  3040               	movlw	64
  1191  16D0  1283               	bcf	3,5	;RP0=0, select bank0
  1192  16D1  1303               	bcf	3,6	;RP1=0, select bank0
  1193  16D2  00DC               	movwf	___flmul@b+3
  1194  16D3  30A0               	movlw	160
  1195  16D4  00DB               	movwf	___flmul@b+2
  1196  16D5  3000               	movlw	0
  1197  16D6  00DA               	movwf	___flmul@b+1
  1198  16D7  3000               	movlw	0
  1199  16D8  00D9               	movwf	___flmul@b
  1200  16D9  3043               	movlw	67
  1201  16DA  00C2               	movwf	___fldiv@a+3
  1202  16DB  307F               	movlw	127
  1203  16DC  00C1               	movwf	___fldiv@a+2
  1204  16DD  3000               	movlw	0
  1205  16DE  00C0               	movwf	___fldiv@a+1
  1206  16DF  3000               	movlw	0
  1207  16E0  00BF               	movwf	___fldiv@a
  1208  16E1  086F               	movf	_var_adc0,w	;volatile
  1209  16E2  1683               	bsf	3,5	;RP0=1, select bank1
  1210  16E3  1303               	bcf	3,6	;RP1=0, select bank1
  1211  16E4  00BC               	movwf	??_main^(0+128)
  1212  16E5  01BD               	clrf	(??_main^(0+128)+1)
  1213  16E6  01BE               	clrf	(??_main^(0+128)+2)
  1214  16E7  01BF               	clrf	(??_main^(0+128)+3)
  1215  16E8  083F               	movf	(??_main+3)^(0+128),w
  1216  16E9  1283               	bcf	3,5	;RP0=0, select bank0
  1217  16EA  1303               	bcf	3,6	;RP1=0, select bank0
  1218  16EB  00B4               	movwf	___xxtofl@val+3
  1219  16EC  1683               	bsf	3,5	;RP0=1, select bank1
  1220  16ED  1303               	bcf	3,6	;RP1=0, select bank1
  1221  16EE  083E               	movf	(??_main+2)^(0+128),w
  1222  16EF  1283               	bcf	3,5	;RP0=0, select bank0
  1223  16F0  1303               	bcf	3,6	;RP1=0, select bank0
  1224  16F1  00B3               	movwf	___xxtofl@val+2
  1225  16F2  1683               	bsf	3,5	;RP0=1, select bank1
  1226  16F3  1303               	bcf	3,6	;RP1=0, select bank1
  1227  16F4  083D               	movf	(??_main+1)^(0+128),w
  1228  16F5  1283               	bcf	3,5	;RP0=0, select bank0
  1229  16F6  1303               	bcf	3,6	;RP1=0, select bank0
  1230  16F7  00B2               	movwf	___xxtofl@val+1
  1231  16F8  1683               	bsf	3,5	;RP0=1, select bank1
  1232  16F9  1303               	bcf	3,6	;RP1=0, select bank1
  1233  16FA  083C               	movf	??_main^(0+128),w
  1234  16FB  1283               	bcf	3,5	;RP0=0, select bank0
  1235  16FC  1303               	bcf	3,6	;RP1=0, select bank0
  1236  16FD  00B1               	movwf	___xxtofl@val
  1237  16FE  3001               	movlw	1
  1238  16FF  120A  158A  207A  160A  118A  	fcall	___xxtofl
  1239  1704  1283               	bcf	3,5	;RP0=0, select bank0
  1240  1705  1303               	bcf	3,6	;RP1=0, select bank0
  1241  1706  0834               	movf	?___xxtofl+3,w
  1242  1707  00C6               	movwf	___fldiv@b+3
  1243  1708  0833               	movf	?___xxtofl+2,w
  1244  1709  00C5               	movwf	___fldiv@b+2
  1245  170A  0832               	movf	?___xxtofl+1,w
  1246  170B  00C4               	movwf	___fldiv@b+1
  1247  170C  0831               	movf	?___xxtofl,w
  1248  170D  00C3               	movwf	___fldiv@b
  1249  170E  120A  118A  257F  160A  118A  	fcall	___fldiv
  1250  1713  1283               	bcf	3,5	;RP0=0, select bank0
  1251  1714  1303               	bcf	3,6	;RP1=0, select bank0
  1252  1715  0842               	movf	?___fldiv+3,w
  1253  1716  00E0               	movwf	___flmul@a+3
  1254  1717  0841               	movf	?___fldiv+2,w
  1255  1718  00DF               	movwf	___flmul@a+2
  1256  1719  0840               	movf	?___fldiv+1,w
  1257  171A  00DE               	movwf	___flmul@a+1
  1258  171B  083F               	movf	?___fldiv,w
  1259  171C  00DD               	movwf	___flmul@a
  1260  171D  120A  118A  2020  160A  118A  	fcall	___flmul
  1261  1722  1283               	bcf	3,5	;RP0=0, select bank0
  1262  1723  1303               	bcf	3,6	;RP1=0, select bank0
  1263  1724  085C               	movf	?___flmul+3,w
  1264  1725  1683               	bsf	3,5	;RP0=1, select bank1
  1265  1726  1303               	bcf	3,6	;RP1=0, select bank1
  1266  1727  00C7               	movwf	(_conv0+3)^(0+128)
  1267  1728  1283               	bcf	3,5	;RP0=0, select bank0
  1268  1729  1303               	bcf	3,6	;RP1=0, select bank0
  1269  172A  085B               	movf	?___flmul+2,w
  1270  172B  1683               	bsf	3,5	;RP0=1, select bank1
  1271  172C  1303               	bcf	3,6	;RP1=0, select bank1
  1272  172D  00C6               	movwf	(_conv0+2)^(0+128)
  1273  172E  1283               	bcf	3,5	;RP0=0, select bank0
  1274  172F  1303               	bcf	3,6	;RP1=0, select bank0
  1275  1730  085A               	movf	?___flmul+1,w
  1276  1731  1683               	bsf	3,5	;RP0=1, select bank1
  1277  1732  1303               	bcf	3,6	;RP1=0, select bank1
  1278  1733  00C5               	movwf	(_conv0+1)^(0+128)
  1279  1734  1283               	bcf	3,5	;RP0=0, select bank0
  1280  1735  1303               	bcf	3,6	;RP1=0, select bank0
  1281  1736  0859               	movf	?___flmul,w
  1282  1737  1683               	bsf	3,5	;RP0=1, select bank1
  1283  1738  1303               	bcf	3,6	;RP1=0, select bank1
  1284  1739  00C4               	movwf	_conv0^(0+128)
  1285  173A                     l3048:
  1286                           
  1287                           ;Esclavo.c: 88:         convert(adc0, conv0, 2);
  1288  173A  0847               	movf	(_conv0+3)^(0+128),w
  1289  173B  1283               	bcf	3,5	;RP0=0, select bank0
  1290  173C  1303               	bcf	3,6	;RP1=0, select bank0
  1291  173D  00E9               	movwf	convert@a+3
  1292  173E  1683               	bsf	3,5	;RP0=1, select bank1
  1293  173F  1303               	bcf	3,6	;RP1=0, select bank1
  1294  1740  0846               	movf	(_conv0+2)^(0+128),w
  1295  1741  1283               	bcf	3,5	;RP0=0, select bank0
  1296  1742  1303               	bcf	3,6	;RP1=0, select bank0
  1297  1743  00E8               	movwf	convert@a+2
  1298  1744  1683               	bsf	3,5	;RP0=1, select bank1
  1299  1745  1303               	bcf	3,6	;RP1=0, select bank1
  1300  1746  0845               	movf	(_conv0+1)^(0+128),w
  1301  1747  1283               	bcf	3,5	;RP0=0, select bank0
  1302  1748  1303               	bcf	3,6	;RP1=0, select bank0
  1303  1749  00E7               	movwf	convert@a+1
  1304  174A  1683               	bsf	3,5	;RP0=1, select bank1
  1305  174B  1303               	bcf	3,6	;RP1=0, select bank1
  1306  174C  0844               	movf	_conv0^(0+128),w
  1307  174D  1283               	bcf	3,5	;RP0=0, select bank0
  1308  174E  1303               	bcf	3,6	;RP1=0, select bank0
  1309  174F  00E6               	movwf	convert@a
  1310  1750  3002               	movlw	2
  1311  1751  00EA               	movwf	convert@place
  1312  1752  3000               	movlw	0
  1313  1753  00EB               	movwf	convert@place+1
  1314  1754  30D3               	movlw	(low (_adc0| 0))& (0+255)
  1315  1755  120A  158A  23BE  160A  118A  	fcall	_convert
  1316  175A                     l3050:
  1317                           
  1318                           ;Esclavo.c: 91:         conv1 = (var_adc1 / (float) 255)*5;
  1319  175A  3040               	movlw	64
  1320  175B  1283               	bcf	3,5	;RP0=0, select bank0
  1321  175C  1303               	bcf	3,6	;RP1=0, select bank0
  1322  175D  00DC               	movwf	___flmul@b+3
  1323  175E  30A0               	movlw	160
  1324  175F  00DB               	movwf	___flmul@b+2
  1325  1760  3000               	movlw	0
  1326  1761  00DA               	movwf	___flmul@b+1
  1327  1762  3000               	movlw	0
  1328  1763  00D9               	movwf	___flmul@b
  1329  1764  3043               	movlw	67
  1330  1765  00C2               	movwf	___fldiv@a+3
  1331  1766  307F               	movlw	127
  1332  1767  00C1               	movwf	___fldiv@a+2
  1333  1768  3000               	movlw	0
  1334  1769  00C0               	movwf	___fldiv@a+1
  1335  176A  3000               	movlw	0
  1336  176B  00BF               	movwf	___fldiv@a
  1337  176C  086E               	movf	_var_adc1,w	;volatile
  1338  176D  1683               	bsf	3,5	;RP0=1, select bank1
  1339  176E  1303               	bcf	3,6	;RP1=0, select bank1
  1340  176F  00BC               	movwf	??_main^(0+128)
  1341  1770  01BD               	clrf	(??_main^(0+128)+1)
  1342  1771  01BE               	clrf	(??_main^(0+128)+2)
  1343  1772  01BF               	clrf	(??_main^(0+128)+3)
  1344  1773  083F               	movf	(??_main+3)^(0+128),w
  1345  1774  1283               	bcf	3,5	;RP0=0, select bank0
  1346  1775  1303               	bcf	3,6	;RP1=0, select bank0
  1347  1776  00B4               	movwf	___xxtofl@val+3
  1348  1777  1683               	bsf	3,5	;RP0=1, select bank1
  1349  1778  1303               	bcf	3,6	;RP1=0, select bank1
  1350  1779  083E               	movf	(??_main+2)^(0+128),w
  1351  177A  1283               	bcf	3,5	;RP0=0, select bank0
  1352  177B  1303               	bcf	3,6	;RP1=0, select bank0
  1353  177C  00B3               	movwf	___xxtofl@val+2
  1354  177D  1683               	bsf	3,5	;RP0=1, select bank1
  1355  177E  1303               	bcf	3,6	;RP1=0, select bank1
  1356  177F  083D               	movf	(??_main+1)^(0+128),w
  1357  1780  1283               	bcf	3,5	;RP0=0, select bank0
  1358  1781  1303               	bcf	3,6	;RP1=0, select bank0
  1359  1782  00B2               	movwf	___xxtofl@val+1
  1360  1783  1683               	bsf	3,5	;RP0=1, select bank1
  1361  1784  1303               	bcf	3,6	;RP1=0, select bank1
  1362  1785  083C               	movf	??_main^(0+128),w
  1363  1786  1283               	bcf	3,5	;RP0=0, select bank0
  1364  1787  1303               	bcf	3,6	;RP1=0, select bank0
  1365  1788  00B1               	movwf	___xxtofl@val
  1366  1789  3001               	movlw	1
  1367  178A  120A  158A  207A  160A  118A  	fcall	___xxtofl
  1368  178F  1283               	bcf	3,5	;RP0=0, select bank0
  1369  1790  1303               	bcf	3,6	;RP1=0, select bank0
  1370  1791  0834               	movf	?___xxtofl+3,w
  1371  1792  00C6               	movwf	___fldiv@b+3
  1372  1793  0833               	movf	?___xxtofl+2,w
  1373  1794  00C5               	movwf	___fldiv@b+2
  1374  1795  0832               	movf	?___xxtofl+1,w
  1375  1796  00C4               	movwf	___fldiv@b+1
  1376  1797  0831               	movf	?___xxtofl,w
  1377  1798  00C3               	movwf	___fldiv@b
  1378  1799  120A  118A  257F  160A  118A  	fcall	___fldiv
  1379  179E  1283               	bcf	3,5	;RP0=0, select bank0
  1380  179F  1303               	bcf	3,6	;RP1=0, select bank0
  1381  17A0  0842               	movf	?___fldiv+3,w
  1382  17A1  00E0               	movwf	___flmul@a+3
  1383  17A2  0841               	movf	?___fldiv+2,w
  1384  17A3  00DF               	movwf	___flmul@a+2
  1385  17A4  0840               	movf	?___fldiv+1,w
  1386  17A5  00DE               	movwf	___flmul@a+1
  1387  17A6  083F               	movf	?___fldiv,w
  1388  17A7  00DD               	movwf	___flmul@a
  1389  17A8  120A  118A  2020  160A  118A  	fcall	___flmul
  1390  17AD  1283               	bcf	3,5	;RP0=0, select bank0
  1391  17AE  1303               	bcf	3,6	;RP1=0, select bank0
  1392  17AF  085C               	movf	?___flmul+3,w
  1393  17B0  1683               	bsf	3,5	;RP0=1, select bank1
  1394  17B1  1303               	bcf	3,6	;RP1=0, select bank1
  1395  17B2  00C3               	movwf	(_conv1+3)^(0+128)
  1396  17B3  1283               	bcf	3,5	;RP0=0, select bank0
  1397  17B4  1303               	bcf	3,6	;RP1=0, select bank0
  1398  17B5  085B               	movf	?___flmul+2,w
  1399  17B6  1683               	bsf	3,5	;RP0=1, select bank1
  1400  17B7  1303               	bcf	3,6	;RP1=0, select bank1
  1401  17B8  00C2               	movwf	(_conv1+2)^(0+128)
  1402  17B9  1283               	bcf	3,5	;RP0=0, select bank0
  1403  17BA  1303               	bcf	3,6	;RP1=0, select bank0
  1404  17BB  085A               	movf	?___flmul+1,w
  1405  17BC  1683               	bsf	3,5	;RP0=1, select bank1
  1406  17BD  1303               	bcf	3,6	;RP1=0, select bank1
  1407  17BE  00C1               	movwf	(_conv1+1)^(0+128)
  1408  17BF  1283               	bcf	3,5	;RP0=0, select bank0
  1409  17C0  1303               	bcf	3,6	;RP1=0, select bank0
  1410  17C1  0859               	movf	?___flmul,w
  1411  17C2  1683               	bsf	3,5	;RP0=1, select bank1
  1412  17C3  1303               	bcf	3,6	;RP1=0, select bank1
  1413  17C4  00C0               	movwf	_conv1^(0+128)
  1414  17C5                     l3052:
  1415                           
  1416                           ;Esclavo.c: 92:         convert(adc1, conv1, 2);
  1417  17C5  0843               	movf	(_conv1+3)^(0+128),w
  1418  17C6  1283               	bcf	3,5	;RP0=0, select bank0
  1419  17C7  1303               	bcf	3,6	;RP1=0, select bank0
  1420  17C8  00E9               	movwf	convert@a+3
  1421  17C9  1683               	bsf	3,5	;RP0=1, select bank1
  1422  17CA  1303               	bcf	3,6	;RP1=0, select bank1
  1423  17CB  0842               	movf	(_conv1+2)^(0+128),w
  1424  17CC  1283               	bcf	3,5	;RP0=0, select bank0
  1425  17CD  1303               	bcf	3,6	;RP1=0, select bank0
  1426  17CE  00E8               	movwf	convert@a+2
  1427  17CF  1683               	bsf	3,5	;RP0=1, select bank1
  1428  17D0  1303               	bcf	3,6	;RP1=0, select bank1
  1429  17D1  0841               	movf	(_conv1+1)^(0+128),w
  1430  17D2  1283               	bcf	3,5	;RP0=0, select bank0
  1431  17D3  1303               	bcf	3,6	;RP1=0, select bank0
  1432  17D4  00E7               	movwf	convert@a+1
  1433  17D5  1683               	bsf	3,5	;RP0=1, select bank1
  1434  17D6  1303               	bcf	3,6	;RP1=0, select bank1
  1435  17D7  0840               	movf	_conv1^(0+128),w
  1436  17D8  1283               	bcf	3,5	;RP0=0, select bank0
  1437  17D9  1303               	bcf	3,6	;RP1=0, select bank0
  1438  17DA  00E6               	movwf	convert@a
  1439  17DB  3002               	movlw	2
  1440  17DC  00EA               	movwf	convert@place
  1441  17DD  3000               	movlw	0
  1442  17DE  00EB               	movwf	convert@place+1
  1443  17DF  30C9               	movlw	(low (_adc1| 0))& (0+255)
  1444  17E0  120A  158A  23BE  160A  118A  	fcall	_convert
  1445  17E5                     l3054:
  1446                           
  1447                           ;Esclavo.c: 95:         PORTB++;
  1448  17E5  3001               	movlw	1
  1449  17E6  1683               	bsf	3,5	;RP0=1, select bank1
  1450  17E7  1303               	bcf	3,6	;RP1=0, select bank1
  1451  17E8  00BC               	movwf	??_main^(0+128)
  1452  17E9  083C               	movf	??_main^(0+128),w
  1453  17EA  1283               	bcf	3,5	;RP0=0, select bank0
  1454  17EB  1303               	bcf	3,6	;RP1=0, select bank0
  1455  17EC  0786               	addwf	6,f	;volatile
  1456  17ED                     l3056:
  1457                           
  1458                           ;Esclavo.c: 96:         _delay((unsigned long)((200)*(8000000/4000.0)));
  1459  17ED  3003               	movlw	3
  1460  17EE  1683               	bsf	3,5	;RP0=1, select bank1
  1461  17EF  1303               	bcf	3,6	;RP1=0, select bank1
  1462  17F0  00BE               	movwf	(??_main^(0+128)+2)
  1463  17F1  3008               	movlw	8
  1464  17F2  00BD               	movwf	(??_main^(0+128)+1)
  1465  17F3  3076               	movlw	118
  1466  17F4  00BC               	movwf	??_main^(0+128)
  1467  17F5                     u4007:
  1468  17F5  0BBC               	decfsz	??_main^(0+128),f
  1469  17F6  2FF5               	goto	u4007
  1470  17F7  0BBD               	decfsz	(??_main^(0+128)+1),f
  1471  17F8  2FF5               	goto	u4007
  1472  17F9  0BBE               	decfsz	(??_main^(0+128)+2),f
  1473  17FA  2FF5               	goto	u4007
  1474  17FB  0000               	nop
  1475  17FC  2E8A               	goto	l3026
  1476  17FD  120A  118A  280C   	ljmp	start
  1477  1800                     __end_of_main:
  1478                           
  1479                           	psect	text1
  1480  145D                     __ptext1:	
  1481 ;; *************** function _start_ch *****************
  1482 ;; Defined at:
  1483 ;;		line 124 in file "ADCEL3.c"
  1484 ;; Parameters:    Size  Location     Type
  1485 ;;  channel         1    wreg     unsigned char 
  1486 ;; Auto vars:     Size  Location     Type
  1487 ;;  channel         1    2[BANK0 ] unsigned char 
  1488 ;; Return value:  Size  Location     Type
  1489 ;;                  1    wreg      void 
  1490 ;; Registers used:
  1491 ;;		wreg, fsr0l, fsr0h, status,2, status,0
  1492 ;; Tracked objects:
  1493 ;;		On entry : 0/0
  1494 ;;		On exit  : 0/0
  1495 ;;		Unchanged: 0/0
  1496 ;; Data sizes:     COMMON   BANK0   BANK1   BANK3   BANK2
  1497 ;;      Params:         0       0       0       0       0
  1498 ;;      Locals:         0       1       0       0       0
  1499 ;;      Temps:          0       2       0       0       0
  1500 ;;      Totals:         0       3       0       0       0
  1501 ;;Total ram usage:        3 bytes
  1502 ;; Hardware stack levels used: 1
  1503 ;; Hardware stack levels required when called: 3
  1504 ;; This function calls:
  1505 ;;		Nothing
  1506 ;; This function is called by:
  1507 ;;		_main
  1508 ;; This function uses a non-reentrant model
  1509 ;;
  1510                           
  1511                           
  1512                           ;psect for function _start_ch
  1513  145D                     _start_ch:
  1514                           
  1515                           ;incstack = 0
  1516                           ; Regs used in _start_ch: [wreg-fsr0h+status,2+status,0]
  1517                           ;start_ch@channel stored from wreg
  1518  145D  1283               	bcf	3,5	;RP0=0, select bank0
  1519  145E  1303               	bcf	3,6	;RP1=0, select bank0
  1520  145F  00A2               	movwf	start_ch@channel
  1521  1460                     l2820:
  1522                           
  1523                           ;ADCEL3.c: 125:     switch (channel) {
  1524  1460  2C99               	goto	l2824
  1525  1461                     l252:	
  1526                           ;ADCEL3.c: 126:         case 0:
  1527                           
  1528                           
  1529                           ;ADCEL3.c: 127:             ANSELbits.ANS0 = 1;
  1530  1461  1683               	bsf	3,5	;RP0=1, select bank3
  1531  1462  1703               	bsf	3,6	;RP1=1, select bank3
  1532  1463  1408               	bsf	8,0	;volatile
  1533                           
  1534                           ;ADCEL3.c: 128:             break;
  1535  1464  2CCD               	goto	l267
  1536  1465                     l254:	
  1537                           ;ADCEL3.c: 129:         case 1:
  1538                           
  1539                           
  1540                           ;ADCEL3.c: 130:             ANSELbits.ANS1 = 1;
  1541  1465  1683               	bsf	3,5	;RP0=1, select bank3
  1542  1466  1703               	bsf	3,6	;RP1=1, select bank3
  1543  1467  1488               	bsf	8,1	;volatile
  1544                           
  1545                           ;ADCEL3.c: 131:             break;
  1546  1468  2CCD               	goto	l267
  1547  1469                     l255:	
  1548                           ;ADCEL3.c: 132:         case 2:
  1549                           
  1550                           
  1551                           ;ADCEL3.c: 133:             ANSELbits.ANS2 = 1;
  1552  1469  1683               	bsf	3,5	;RP0=1, select bank3
  1553  146A  1703               	bsf	3,6	;RP1=1, select bank3
  1554  146B  1508               	bsf	8,2	;volatile
  1555                           
  1556                           ;ADCEL3.c: 134:             break;
  1557  146C  2CCD               	goto	l267
  1558  146D                     l256:	
  1559                           ;ADCEL3.c: 135:         case 3:
  1560                           
  1561                           
  1562                           ;ADCEL3.c: 136:             ANSELbits.ANS3 = 1;
  1563  146D  1683               	bsf	3,5	;RP0=1, select bank3
  1564  146E  1703               	bsf	3,6	;RP1=1, select bank3
  1565  146F  1588               	bsf	8,3	;volatile
  1566                           
  1567                           ;ADCEL3.c: 137:             break;
  1568  1470  2CCD               	goto	l267
  1569  1471                     l257:	
  1570                           ;ADCEL3.c: 138:         case 4:
  1571                           
  1572                           
  1573                           ;ADCEL3.c: 139:             ANSELbits.ANS4 = 1;
  1574  1471  1683               	bsf	3,5	;RP0=1, select bank3
  1575  1472  1703               	bsf	3,6	;RP1=1, select bank3
  1576  1473  1608               	bsf	8,4	;volatile
  1577                           
  1578                           ;ADCEL3.c: 140:             break;
  1579  1474  2CCD               	goto	l267
  1580  1475                     l258:	
  1581                           ;ADCEL3.c: 141:         case 5:
  1582                           
  1583                           
  1584                           ;ADCEL3.c: 142:             ANSELbits.ANS5 = 1;
  1585  1475  1683               	bsf	3,5	;RP0=1, select bank3
  1586  1476  1703               	bsf	3,6	;RP1=1, select bank3
  1587  1477  1688               	bsf	8,5	;volatile
  1588                           
  1589                           ;ADCEL3.c: 143:             break;
  1590  1478  2CCD               	goto	l267
  1591  1479                     l259:	
  1592                           ;ADCEL3.c: 144:         case 6:
  1593                           
  1594                           
  1595                           ;ADCEL3.c: 145:             ANSELbits.ANS6 = 1;
  1596  1479  1683               	bsf	3,5	;RP0=1, select bank3
  1597  147A  1703               	bsf	3,6	;RP1=1, select bank3
  1598  147B  1708               	bsf	8,6	;volatile
  1599                           
  1600                           ;ADCEL3.c: 146:             break;
  1601  147C  2CCD               	goto	l267
  1602  147D                     l260:	
  1603                           ;ADCEL3.c: 147:         case 7:
  1604                           
  1605                           
  1606                           ;ADCEL3.c: 148:             ANSELbits.ANS7 = 1;
  1607  147D  1683               	bsf	3,5	;RP0=1, select bank3
  1608  147E  1703               	bsf	3,6	;RP1=1, select bank3
  1609  147F  1788               	bsf	8,7	;volatile
  1610                           
  1611                           ;ADCEL3.c: 149:             break;
  1612  1480  2CCD               	goto	l267
  1613  1481                     l261:	
  1614                           ;ADCEL3.c: 150:         case 8:
  1615                           
  1616                           
  1617                           ;ADCEL3.c: 151:             ANSELHbits.ANS8 = 1;
  1618  1481  1683               	bsf	3,5	;RP0=1, select bank3
  1619  1482  1703               	bsf	3,6	;RP1=1, select bank3
  1620  1483  1409               	bsf	9,0	;volatile
  1621                           
  1622                           ;ADCEL3.c: 152:             break;
  1623  1484  2CCD               	goto	l267
  1624  1485                     l262:	
  1625                           ;ADCEL3.c: 153:         case 9:
  1626                           
  1627                           
  1628                           ;ADCEL3.c: 154:             ANSELHbits.ANS9 = 1;
  1629  1485  1683               	bsf	3,5	;RP0=1, select bank3
  1630  1486  1703               	bsf	3,6	;RP1=1, select bank3
  1631  1487  1489               	bsf	9,1	;volatile
  1632                           
  1633                           ;ADCEL3.c: 155:             break;
  1634  1488  2CCD               	goto	l267
  1635  1489                     l263:	
  1636                           ;ADCEL3.c: 156:         case 10:
  1637                           
  1638                           
  1639                           ;ADCEL3.c: 157:             ANSELHbits.ANS10 = 1;
  1640  1489  1683               	bsf	3,5	;RP0=1, select bank3
  1641  148A  1703               	bsf	3,6	;RP1=1, select bank3
  1642  148B  1509               	bsf	9,2	;volatile
  1643                           
  1644                           ;ADCEL3.c: 158:             break;
  1645  148C  2CCD               	goto	l267
  1646  148D                     l264:	
  1647                           ;ADCEL3.c: 159:         case 11:
  1648                           
  1649                           
  1650                           ;ADCEL3.c: 160:             ANSELHbits.ANS11 = 1;
  1651  148D  1683               	bsf	3,5	;RP0=1, select bank3
  1652  148E  1703               	bsf	3,6	;RP1=1, select bank3
  1653  148F  1589               	bsf	9,3	;volatile
  1654                           
  1655                           ;ADCEL3.c: 161:             break;
  1656  1490  2CCD               	goto	l267
  1657  1491                     l265:	
  1658                           ;ADCEL3.c: 162:         case 12:
  1659                           
  1660                           
  1661                           ;ADCEL3.c: 163:             ANSELHbits.ANS12 = 1;
  1662  1491  1683               	bsf	3,5	;RP0=1, select bank3
  1663  1492  1703               	bsf	3,6	;RP1=1, select bank3
  1664  1493  1609               	bsf	9,4	;volatile
  1665                           
  1666                           ;ADCEL3.c: 164:             break;
  1667  1494  2CCD               	goto	l267
  1668  1495                     l266:	
  1669                           ;ADCEL3.c: 165:         case 13:
  1670                           
  1671                           
  1672                           ;ADCEL3.c: 166:             ANSELHbits.ANS13 = 1;
  1673  1495  1683               	bsf	3,5	;RP0=1, select bank3
  1674  1496  1703               	bsf	3,6	;RP1=1, select bank3
  1675  1497  1689               	bsf	9,5	;volatile
  1676                           
  1677                           ;ADCEL3.c: 167:             break;
  1678  1498  2CCD               	goto	l267
  1679  1499                     l2824:
  1680  1499  0822               	movf	start_ch@channel,w
  1681  149A  00A0               	movwf	??_start_ch
  1682  149B  01A1               	clrf	??_start_ch+1
  1683                           
  1684                           ; Switch on 2 bytes has been partitioned into a top level switch of size 1, and 1 sub-sw
      +                          itches
  1685                           ; Switch size 1, requested type "simple"
  1686                           ; Number of cases is 1, Range of values is 0 to 0
  1687                           ; switch strategies available:
  1688                           ; Name         Instructions Cycles
  1689                           ; simple_byte            4     3 (average)
  1690                           ; direct_byte           11     8 (fixed)
  1691                           ; jumptable            260     6 (fixed)
  1692                           ;	Chosen strategy is simple_byte
  1693  149C  0821               	movf	??_start_ch+1,w
  1694  149D  3A00               	xorlw	0	; case 0
  1695  149E  1903               	skipnz
  1696  149F  2CA1               	goto	l3188
  1697  14A0  2CCD               	goto	l267
  1698  14A1                     l3188:
  1699                           
  1700                           ; Switch size 1, requested type "simple"
  1701                           ; Number of cases is 14, Range of values is 0 to 13
  1702                           ; switch strategies available:
  1703                           ; Name         Instructions Cycles
  1704                           ; simple_byte           43    22 (average)
  1705                           ; direct_byte           50     8 (fixed)
  1706                           ; jumptable            260     6 (fixed)
  1707                           ;	Chosen strategy is simple_byte
  1708  14A1  0820               	movf	??_start_ch,w
  1709  14A2  3A00               	xorlw	0	; case 0
  1710  14A3  1903               	skipnz
  1711  14A4  2C61               	goto	l252
  1712  14A5  3A01               	xorlw	1	; case 1
  1713  14A6  1903               	skipnz
  1714  14A7  2C65               	goto	l254
  1715  14A8  3A03               	xorlw	3	; case 2
  1716  14A9  1903               	skipnz
  1717  14AA  2C69               	goto	l255
  1718  14AB  3A01               	xorlw	1	; case 3
  1719  14AC  1903               	skipnz
  1720  14AD  2C6D               	goto	l256
  1721  14AE  3A07               	xorlw	7	; case 4
  1722  14AF  1903               	skipnz
  1723  14B0  2C71               	goto	l257
  1724  14B1  3A01               	xorlw	1	; case 5
  1725  14B2  1903               	skipnz
  1726  14B3  2C75               	goto	l258
  1727  14B4  3A03               	xorlw	3	; case 6
  1728  14B5  1903               	skipnz
  1729  14B6  2C79               	goto	l259
  1730  14B7  3A01               	xorlw	1	; case 7
  1731  14B8  1903               	skipnz
  1732  14B9  2C7D               	goto	l260
  1733  14BA  3A0F               	xorlw	15	; case 8
  1734  14BB  1903               	skipnz
  1735  14BC  2C81               	goto	l261
  1736  14BD  3A01               	xorlw	1	; case 9
  1737  14BE  1903               	skipnz
  1738  14BF  2C85               	goto	l262
  1739  14C0  3A03               	xorlw	3	; case 10
  1740  14C1  1903               	skipnz
  1741  14C2  2C89               	goto	l263
  1742  14C3  3A01               	xorlw	1	; case 11
  1743  14C4  1903               	skipnz
  1744  14C5  2C8D               	goto	l264
  1745  14C6  3A07               	xorlw	7	; case 12
  1746  14C7  1903               	skipnz
  1747  14C8  2C91               	goto	l265
  1748  14C9  3A01               	xorlw	1	; case 13
  1749  14CA  1903               	skipnz
  1750  14CB  2C95               	goto	l266
  1751  14CC  2CCD               	goto	l267
  1752  14CD                     l267:
  1753  14CD  0008               	return
  1754  14CE                     __end_of_start_ch:
  1755                           
  1756                           	psect	text2
  1757  13F1                     __ptext2:	
  1758 ;; *************** function _start_adc *****************
  1759 ;; Defined at:
  1760 ;;		line 74 in file "ADCEL3.c"
  1761 ;; Parameters:    Size  Location     Type
  1762 ;;  frec            1    wreg     unsigned char 
  1763 ;;  isr             1    0[BANK0 ] unsigned char 
  1764 ;;  Vref            1    1[BANK0 ] unsigned char 
  1765 ;;  justRL          1    2[BANK0 ] unsigned char 
  1766 ;; Auto vars:     Size  Location     Type
  1767 ;;  frec            1    5[BANK0 ] unsigned char 
  1768 ;; Return value:  Size  Location     Type
  1769 ;;                  1    wreg      void 
  1770 ;; Registers used:
  1771 ;;		wreg, fsr0l, fsr0h, status,2, status,0
  1772 ;; Tracked objects:
  1773 ;;		On entry : 0/0
  1774 ;;		On exit  : 0/0
  1775 ;;		Unchanged: 0/0
  1776 ;; Data sizes:     COMMON   BANK0   BANK1   BANK3   BANK2
  1777 ;;      Params:         0       3       0       0       0
  1778 ;;      Locals:         0       1       0       0       0
  1779 ;;      Temps:          0       2       0       0       0
  1780 ;;      Totals:         0       6       0       0       0
  1781 ;;Total ram usage:        6 bytes
  1782 ;; Hardware stack levels used: 1
  1783 ;; Hardware stack levels required when called: 3
  1784 ;; This function calls:
  1785 ;;		Nothing
  1786 ;; This function is called by:
  1787 ;;		_main
  1788 ;; This function uses a non-reentrant model
  1789 ;;
  1790                           
  1791                           
  1792                           ;psect for function _start_adc
  1793  13F1                     _start_adc:
  1794                           
  1795                           ;incstack = 0
  1796                           ; Regs used in _start_adc: [wreg-fsr0h+status,2+status,0]
  1797                           ;start_adc@frec stored from wreg
  1798  13F1  1283               	bcf	3,5	;RP0=0, select bank0
  1799  13F2  1303               	bcf	3,6	;RP1=0, select bank0
  1800  13F3  00A5               	movwf	start_adc@frec
  1801  13F4                     l2794:
  1802                           
  1803                           ;ADCEL3.c: 75:     ADCON0bits.ADON = 1;
  1804  13F4  141F               	bsf	31,0	;volatile
  1805                           
  1806                           ;ADCEL3.c: 76:     switch (frec) {
  1807  13F5  2C02               	goto	l2798
  1808  13F6                     l234:	
  1809                           ;ADCEL3.c: 77:         case 1:
  1810                           
  1811                           
  1812                           ;ADCEL3.c: 78:             ADCON0bits.ADCS0 = 0;
  1813  13F6  131F               	bcf	31,6	;volatile
  1814                           
  1815                           ;ADCEL3.c: 79:             ADCON0bits.ADCS1 = 0;
  1816  13F7  139F               	bcf	31,7	;volatile
  1817                           
  1818                           ;ADCEL3.c: 80:             break;
  1819  13F8  2C18               	goto	l2800
  1820  13F9                     l236:	
  1821                           ;ADCEL3.c: 81:         case 2:
  1822                           
  1823                           
  1824                           ;ADCEL3.c: 82:             ADCON0bits.ADCS0 = 1;
  1825  13F9  171F               	bsf	31,6	;volatile
  1826                           
  1827                           ;ADCEL3.c: 83:             ADCON0bits.ADCS1 = 0;
  1828  13FA  139F               	bcf	31,7	;volatile
  1829                           
  1830                           ;ADCEL3.c: 84:             break;
  1831  13FB  2C18               	goto	l2800
  1832  13FC                     l237:	
  1833                           ;ADCEL3.c: 85:         case 3:
  1834                           
  1835                           
  1836                           ;ADCEL3.c: 86:             ADCON0bits.ADCS0 = 0;
  1837  13FC  131F               	bcf	31,6	;volatile
  1838                           
  1839                           ;ADCEL3.c: 87:             ADCON0bits.ADCS1 = 1;
  1840  13FD  179F               	bsf	31,7	;volatile
  1841                           
  1842                           ;ADCEL3.c: 88:             break;
  1843  13FE  2C18               	goto	l2800
  1844  13FF                     l238:	
  1845                           ;ADCEL3.c: 89:         case 4:
  1846                           
  1847                           
  1848                           ;ADCEL3.c: 90:             ADCON0bits.ADCS0 = 1;
  1849  13FF  171F               	bsf	31,6	;volatile
  1850                           
  1851                           ;ADCEL3.c: 91:             ADCON0bits.ADCS1 = 1;
  1852  1400  179F               	bsf	31,7	;volatile
  1853                           
  1854                           ;ADCEL3.c: 92:             break;
  1855  1401  2C18               	goto	l2800
  1856  1402                     l2798:
  1857  1402  0825               	movf	start_adc@frec,w
  1858  1403  00A3               	movwf	??_start_adc
  1859  1404  01A4               	clrf	??_start_adc+1
  1860                           
  1861                           ; Switch on 2 bytes has been partitioned into a top level switch of size 1, and 1 sub-sw
      +                          itches
  1862                           ; Switch size 1, requested type "simple"
  1863                           ; Number of cases is 1, Range of values is 0 to 0
  1864                           ; switch strategies available:
  1865                           ; Name         Instructions Cycles
  1866                           ; simple_byte            4     3 (average)
  1867                           ; direct_byte           11     8 (fixed)
  1868                           ; jumptable            260     6 (fixed)
  1869                           ;	Chosen strategy is simple_byte
  1870  1405  0824               	movf	??_start_adc+1,w
  1871  1406  3A00               	xorlw	0	; case 0
  1872  1407  1903               	skipnz
  1873  1408  2C0A               	goto	l3190
  1874  1409  2C18               	goto	l2800
  1875  140A                     l3190:
  1876                           
  1877                           ; Switch size 1, requested type "simple"
  1878                           ; Number of cases is 4, Range of values is 1 to 4
  1879                           ; switch strategies available:
  1880                           ; Name         Instructions Cycles
  1881                           ; simple_byte           13     7 (average)
  1882                           ; direct_byte           23    11 (fixed)
  1883                           ; jumptable            263     9 (fixed)
  1884                           ;	Chosen strategy is simple_byte
  1885  140A  0823               	movf	??_start_adc,w
  1886  140B  3A01               	xorlw	1	; case 1
  1887  140C  1903               	skipnz
  1888  140D  2BF6               	goto	l234
  1889  140E  3A03               	xorlw	3	; case 2
  1890  140F  1903               	skipnz
  1891  1410  2BF9               	goto	l236
  1892  1411  3A01               	xorlw	1	; case 3
  1893  1412  1903               	skipnz
  1894  1413  2BFC               	goto	l237
  1895  1414  3A07               	xorlw	7	; case 4
  1896  1415  1903               	skipnz
  1897  1416  2BFF               	goto	l238
  1898  1417  2C18               	goto	l2800
  1899  1418                     l2800:
  1900                           
  1901                           ;ADCEL3.c: 94:     if (isr == 1) {
  1902  1418  0320               	decf	start_adc@isr,w
  1903  1419  1D03               	btfss	3,2
  1904  141A  2C1C               	goto	u3731
  1905  141B  2C1D               	goto	u3730
  1906  141C                     u3731:
  1907  141C  2C23               	goto	l2804
  1908  141D                     u3730:
  1909  141D                     l2802:
  1910                           
  1911                           ;ADCEL3.c: 95:         PIE1bits.ADIE = 1;
  1912  141D  1683               	bsf	3,5	;RP0=1, select bank1
  1913  141E  1303               	bcf	3,6	;RP1=0, select bank1
  1914  141F  170C               	bsf	12,6	;volatile
  1915                           
  1916                           ;ADCEL3.c: 96:         PIR1bits.ADIF = 0;
  1917  1420  1283               	bcf	3,5	;RP0=0, select bank0
  1918  1421  1303               	bcf	3,6	;RP1=0, select bank0
  1919  1422  130C               	bcf	12,6	;volatile
  1920  1423                     l2804:
  1921                           
  1922                           ;ADCEL3.c: 98:     if (justRL == 0) {
  1923  1423  0822               	movf	start_adc@justRL,w
  1924  1424  1D03               	btfss	3,2
  1925  1425  2C27               	goto	u3741
  1926  1426  2C28               	goto	u3740
  1927  1427                     u3741:
  1928  1427  2C2C               	goto	l240
  1929  1428                     u3740:
  1930  1428                     l2806:
  1931                           
  1932                           ;ADCEL3.c: 99:         ADCON1bits.ADFM = 0;
  1933  1428  1683               	bsf	3,5	;RP0=1, select bank1
  1934  1429  1303               	bcf	3,6	;RP1=0, select bank1
  1935  142A  139F               	bcf	31,7	;volatile
  1936                           
  1937                           ;ADCEL3.c: 100:     } else {
  1938  142B  2C44               	goto	l2810
  1939  142C                     l240:
  1940                           
  1941                           ;ADCEL3.c: 101:         ADCON1bits.ADFM = 1;
  1942  142C  1683               	bsf	3,5	;RP0=1, select bank1
  1943  142D  1303               	bcf	3,6	;RP1=0, select bank1
  1944  142E  179F               	bsf	31,7	;volatile
  1945  142F  2C44               	goto	l2810
  1946  1430                     l243:	
  1947                           ;ADCEL3.c: 104:         case 0:
  1948                           
  1949                           
  1950                           ;ADCEL3.c: 105:             ADCON1bits.VCFG0 = 0;
  1951  1430  1683               	bsf	3,5	;RP0=1, select bank1
  1952  1431  1303               	bcf	3,6	;RP1=0, select bank1
  1953  1432  121F               	bcf	31,4	;volatile
  1954                           
  1955                           ;ADCEL3.c: 106:             ADCON1bits.VCFG1 = 0;
  1956  1433  129F               	bcf	31,5	;volatile
  1957                           
  1958                           ;ADCEL3.c: 107:             break;
  1959  1434  2C5C               	goto	l248
  1960  1435                     l245:	
  1961                           ;ADCEL3.c: 108:         case 1:
  1962                           
  1963                           
  1964                           ;ADCEL3.c: 109:             ADCON1bits.VCFG0 = 1;
  1965  1435  1683               	bsf	3,5	;RP0=1, select bank1
  1966  1436  1303               	bcf	3,6	;RP1=0, select bank1
  1967  1437  161F               	bsf	31,4	;volatile
  1968                           
  1969                           ;ADCEL3.c: 110:             ADCON1bits.VCFG1 = 0;
  1970  1438  129F               	bcf	31,5	;volatile
  1971                           
  1972                           ;ADCEL3.c: 111:             break;
  1973  1439  2C5C               	goto	l248
  1974  143A                     l246:	
  1975                           ;ADCEL3.c: 112:         case 2:
  1976                           
  1977                           
  1978                           ;ADCEL3.c: 113:             ADCON1bits.VCFG0 = 0;
  1979  143A  1683               	bsf	3,5	;RP0=1, select bank1
  1980  143B  1303               	bcf	3,6	;RP1=0, select bank1
  1981  143C  121F               	bcf	31,4	;volatile
  1982                           
  1983                           ;ADCEL3.c: 114:             ADCON1bits.VCFG1 = 1;
  1984  143D  169F               	bsf	31,5	;volatile
  1985                           
  1986                           ;ADCEL3.c: 115:             break;
  1987  143E  2C5C               	goto	l248
  1988  143F                     l247:	
  1989                           ;ADCEL3.c: 116:         case 3:
  1990                           
  1991                           
  1992                           ;ADCEL3.c: 117:             ADCON1bits.VCFG0 = 1;
  1993  143F  1683               	bsf	3,5	;RP0=1, select bank1
  1994  1440  1303               	bcf	3,6	;RP1=0, select bank1
  1995  1441  161F               	bsf	31,4	;volatile
  1996                           
  1997                           ;ADCEL3.c: 118:             ADCON1bits.VCFG1 = 1;
  1998  1442  169F               	bsf	31,5	;volatile
  1999                           
  2000                           ;ADCEL3.c: 119:             break;
  2001  1443  2C5C               	goto	l248
  2002  1444                     l2810:
  2003  1444  1283               	bcf	3,5	;RP0=0, select bank0
  2004  1445  1303               	bcf	3,6	;RP1=0, select bank0
  2005  1446  0821               	movf	start_adc@Vref,w
  2006  1447  00A3               	movwf	??_start_adc
  2007  1448  01A4               	clrf	??_start_adc+1
  2008                           
  2009                           ; Switch on 2 bytes has been partitioned into a top level switch of size 1, and 1 sub-sw
      +                          itches
  2010                           ; Switch size 1, requested type "simple"
  2011                           ; Number of cases is 1, Range of values is 0 to 0
  2012                           ; switch strategies available:
  2013                           ; Name         Instructions Cycles
  2014                           ; simple_byte            4     3 (average)
  2015                           ; direct_byte           11     8 (fixed)
  2016                           ; jumptable            260     6 (fixed)
  2017                           ;	Chosen strategy is simple_byte
  2018  1449  0824               	movf	??_start_adc+1,w
  2019  144A  3A00               	xorlw	0	; case 0
  2020  144B  1903               	skipnz
  2021  144C  2C4E               	goto	l3192
  2022  144D  2C5C               	goto	l248
  2023  144E                     l3192:
  2024                           
  2025                           ; Switch size 1, requested type "simple"
  2026                           ; Number of cases is 4, Range of values is 0 to 3
  2027                           ; switch strategies available:
  2028                           ; Name         Instructions Cycles
  2029                           ; simple_byte           13     7 (average)
  2030                           ; direct_byte           20     8 (fixed)
  2031                           ; jumptable            260     6 (fixed)
  2032                           ;	Chosen strategy is simple_byte
  2033  144E  0823               	movf	??_start_adc,w
  2034  144F  3A00               	xorlw	0	; case 0
  2035  1450  1903               	skipnz
  2036  1451  2C30               	goto	l243
  2037  1452  3A01               	xorlw	1	; case 1
  2038  1453  1903               	skipnz
  2039  1454  2C35               	goto	l245
  2040  1455  3A03               	xorlw	3	; case 2
  2041  1456  1903               	skipnz
  2042  1457  2C3A               	goto	l246
  2043  1458  3A01               	xorlw	1	; case 3
  2044  1459  1903               	skipnz
  2045  145A  2C3F               	goto	l247
  2046  145B  2C5C               	goto	l248
  2047  145C                     l248:
  2048  145C  0008               	return
  2049  145D                     __end_of_start_adc:
  2050                           
  2051                           	psect	text3
  2052  0BBE                     __ptext3:	
  2053 ;; *************** function _convert *****************
  2054 ;; Defined at:
  2055 ;;		line 16 in file "ADCEL3.c"
  2056 ;; Parameters:    Size  Location     Type
  2057 ;;  data            1    wreg     PTR unsigned char 
  2058 ;;		 -> adc1(10), adc0(10), 
  2059 ;;  a               4   70[BANK0 ] float 
  2060 ;;  place           2   74[BANK0 ] int 
  2061 ;; Auto vars:     Size  Location     Type
  2062 ;;  data            1   17[BANK1 ] PTR unsigned char 
  2063 ;;		 -> adc1(10), adc0(10), 
  2064 ;;  x               4   18[BANK1 ] float 
  2065 ;;  mu              2   26[BANK1 ] int 
  2066 ;;  digits          2   24[BANK1 ] int 
  2067 ;;  i               2   22[BANK1 ] int 
  2068 ;;  j               2   15[BANK1 ] int 
  2069 ;;  temp            2   13[BANK1 ] int 
  2070 ;; Return value:  Size  Location     Type
  2071 ;;                  1    wreg      void 
  2072 ;; Registers used:
  2073 ;;		wreg, fsr0l, fsr0h, status,2, status,0, btemp+1, pclath, cstack
  2074 ;; Tracked objects:
  2075 ;;		On entry : 0/0
  2076 ;;		On exit  : 0/0
  2077 ;;		Unchanged: 0/0
  2078 ;; Data sizes:     COMMON   BANK0   BANK1   BANK3   BANK2
  2079 ;;      Params:         0       6       0       0       0
  2080 ;;      Locals:         0       0      15       0       0
  2081 ;;      Temps:          0       2       0       0       0
  2082 ;;      Totals:         0       8      15       0       0
  2083 ;;Total ram usage:       23 bytes
  2084 ;; Hardware stack levels used: 1
  2085 ;; Hardware stack levels required when called: 5
  2086 ;; This function calls:
  2087 ;;		___awdiv
  2088 ;;		___fldiv
  2089 ;;		___flge
  2090 ;;		___flmul
  2091 ;;		___flsub
  2092 ;;		___fltol
  2093 ;;		___wmul
  2094 ;;		___xxtofl
  2095 ;; This function is called by:
  2096 ;;		_main
  2097 ;; This function uses a non-reentrant model
  2098 ;;
  2099                           
  2100                           
  2101                           ;psect for function _convert
  2102  0BBE                     _convert:
  2103                           
  2104                           ;incstack = 0
  2105                           ; Regs used in _convert: [wreg-fsr0h+status,2+status,0+btemp+1+pclath+cstack]
  2106                           ;convert@data stored from wreg
  2107  0BBE  1683               	bsf	3,5	;RP0=1, select bank1
  2108  0BBF  1303               	bcf	3,6	;RP1=0, select bank1
  2109  0BC0  00B1               	movwf	convert@data^(0+128)
  2110  0BC1                     l2878:
  2111                           
  2112                           ;ADCEL3.c: 16: void convert(char *data,float a, int place);ADCEL3.c: 17: {;ADCEL3.c: 18:
      +                                int temp=a;
  2113  0BC1  1283               	bcf	3,5	;RP0=0, select bank0
  2114  0BC2  1303               	bcf	3,6	;RP1=0, select bank0
  2115  0BC3  0869               	movf	convert@a+3,w
  2116  0BC4  00A3               	movwf	___fltol@f1+3
  2117  0BC5  0868               	movf	convert@a+2,w
  2118  0BC6  00A2               	movwf	___fltol@f1+2
  2119  0BC7  0867               	movf	convert@a+1,w
  2120  0BC8  00A1               	movwf	___fltol@f1+1
  2121  0BC9  0866               	movf	convert@a,w
  2122  0BCA  00A0               	movwf	___fltol@f1
  2123  0BCB  160A  118A  2541  120A  158A  	fcall	___fltol
  2124  0BD0  1283               	bcf	3,5	;RP0=0, select bank0
  2125  0BD1  1303               	bcf	3,6	;RP1=0, select bank0
  2126  0BD2  0821               	movf	?___fltol+1,w
  2127  0BD3  1683               	bsf	3,5	;RP0=1, select bank1
  2128  0BD4  1303               	bcf	3,6	;RP1=0, select bank1
  2129  0BD5  00AE               	movwf	(convert@temp+1)^(0+128)
  2130  0BD6  1283               	bcf	3,5	;RP0=0, select bank0
  2131  0BD7  1303               	bcf	3,6	;RP1=0, select bank0
  2132  0BD8  0820               	movf	?___fltol,w
  2133  0BD9  1683               	bsf	3,5	;RP0=1, select bank1
  2134  0BDA  1303               	bcf	3,6	;RP1=0, select bank1
  2135  0BDB  00AD               	movwf	convert@temp^(0+128)
  2136  0BDC                     l2880:
  2137  0BDC                     l2882:
  2138                           
  2139                           ;ADCEL3.c: 20:      int digits=0;
  2140  0BDC  01B8               	clrf	convert@digits^(0+128)
  2141  0BDD  01B9               	clrf	(convert@digits+1)^(0+128)
  2142  0BDE                     l2884:
  2143                           
  2144                           ;ADCEL3.c: 21:      int i=0,mu=1;
  2145  0BDE  01B6               	clrf	convert@i^(0+128)
  2146  0BDF  01B7               	clrf	(convert@i+1)^(0+128)
  2147  0BE0                     l2886:
  2148  0BE0  3001               	movlw	1
  2149  0BE1  00BA               	movwf	convert@mu^(0+128)
  2150  0BE2  3000               	movlw	0
  2151  0BE3  00BB               	movwf	(convert@mu^(0+128)+1)
  2152  0BE4                     l2888:
  2153  0BE4                     l2890:
  2154                           
  2155                           ;ADCEL3.c: 23:      if(a<0)
  2156  0BE4  1283               	bcf	3,5	;RP0=0, select bank0
  2157  0BE5  1303               	bcf	3,6	;RP1=0, select bank0
  2158  0BE6  0869               	movf	convert@a+3,w
  2159  0BE7  00A3               	movwf	___flge@ff1+3
  2160  0BE8  0868               	movf	convert@a+2,w
  2161  0BE9  00A2               	movwf	___flge@ff1+2
  2162  0BEA  0867               	movf	convert@a+1,w
  2163  0BEB  00A1               	movwf	___flge@ff1+1
  2164  0BEC  0866               	movf	convert@a,w
  2165  0BED  00A0               	movwf	___flge@ff1
  2166  0BEE  3000               	movlw	0
  2167  0BEF  00A7               	movwf	___flge@ff2+3
  2168  0BF0  3000               	movlw	0
  2169  0BF1  00A6               	movwf	___flge@ff2+2
  2170  0BF2  3000               	movlw	0
  2171  0BF3  00A5               	movwf	___flge@ff2+1
  2172  0BF4  3000               	movlw	0
  2173  0BF5  00A4               	movwf	___flge@ff2
  2174  0BF6  120A  118A  275C  120A  158A  	fcall	___flge
  2175  0BFB  1803               	btfsc	3,0
  2176  0BFC  2BFE               	goto	u3781
  2177  0BFD  2BFF               	goto	u3780
  2178  0BFE                     u3781:
  2179  0BFE  2C5D               	goto	l2902
  2180  0BFF                     u3780:
  2181  0BFF                     l2892:
  2182                           
  2183                           ;ADCEL3.c: 24:      {;ADCEL3.c: 25:             a=a*-1;
  2184  0BFF  30BF               	movlw	191
  2185  0C00  1283               	bcf	3,5	;RP0=0, select bank0
  2186  0C01  1303               	bcf	3,6	;RP1=0, select bank0
  2187  0C02  00DC               	movwf	___flmul@b+3
  2188  0C03  3080               	movlw	128
  2189  0C04  00DB               	movwf	___flmul@b+2
  2190  0C05  3000               	movlw	0
  2191  0C06  00DA               	movwf	___flmul@b+1
  2192  0C07  3000               	movlw	0
  2193  0C08  00D9               	movwf	___flmul@b
  2194  0C09  0869               	movf	convert@a+3,w
  2195  0C0A  00E0               	movwf	___flmul@a+3
  2196  0C0B  0868               	movf	convert@a+2,w
  2197  0C0C  00DF               	movwf	___flmul@a+2
  2198  0C0D  0867               	movf	convert@a+1,w
  2199  0C0E  00DE               	movwf	___flmul@a+1
  2200  0C0F  0866               	movf	convert@a,w
  2201  0C10  00DD               	movwf	___flmul@a
  2202  0C11  120A  118A  2020  120A  158A  	fcall	___flmul
  2203  0C16  1283               	bcf	3,5	;RP0=0, select bank0
  2204  0C17  1303               	bcf	3,6	;RP1=0, select bank0
  2205  0C18  085C               	movf	?___flmul+3,w
  2206  0C19  00E9               	movwf	convert@a+3
  2207  0C1A  085B               	movf	?___flmul+2,w
  2208  0C1B  00E8               	movwf	convert@a+2
  2209  0C1C  085A               	movf	?___flmul+1,w
  2210  0C1D  00E7               	movwf	convert@a+1
  2211  0C1E  0859               	movf	?___flmul,w
  2212  0C1F  00E6               	movwf	convert@a
  2213  0C20                     l2894:
  2214                           
  2215                           ;ADCEL3.c: 26:             data[i]='-';
  2216  0C20  302D               	movlw	45
  2217  0C21  00EC               	movwf	??_convert
  2218  0C22  1683               	bsf	3,5	;RP0=1, select bank1
  2219  0C23  1303               	bcf	3,6	;RP1=0, select bank1
  2220  0C24  0831               	movf	convert@data^(0+128),w
  2221  0C25  0084               	movwf	4
  2222  0C26  1283               	bcf	3,5	;RP0=0, select bank0
  2223  0C27  1303               	bcf	3,6	;RP1=0, select bank0
  2224  0C28  086C               	movf	??_convert,w
  2225  0C29  1383               	bcf	3,7	;select IRP bank0
  2226  0C2A  0080               	movwf	0
  2227  0C2B                     l2896:
  2228                           
  2229                           ;ADCEL3.c: 27:             i++;
  2230  0C2B  3001               	movlw	1
  2231  0C2C  1683               	bsf	3,5	;RP0=1, select bank1
  2232  0C2D  1303               	bcf	3,6	;RP1=0, select bank1
  2233  0C2E  07B6               	addwf	convert@i^(0+128),f
  2234  0C2F  1803               	skipnc
  2235  0C30  0AB7               	incf	(convert@i+1)^(0+128),f
  2236  0C31  3000               	movlw	0
  2237  0C32  07B7               	addwf	(convert@i+1)^(0+128),f
  2238  0C33  2C5D               	goto	l2902
  2239  0C34                     l2898:
  2240                           
  2241                           ;ADCEL3.c: 31:      {;ADCEL3.c: 32:          temp=temp/10;
  2242  0C34  300A               	movlw	10
  2243  0C35  1283               	bcf	3,5	;RP0=0, select bank0
  2244  0C36  1303               	bcf	3,6	;RP1=0, select bank0
  2245  0C37  00A0               	movwf	___awdiv@divisor
  2246  0C38  3000               	movlw	0
  2247  0C39  00A1               	movwf	___awdiv@divisor+1
  2248  0C3A  1683               	bsf	3,5	;RP0=1, select bank1
  2249  0C3B  1303               	bcf	3,6	;RP1=0, select bank1
  2250  0C3C  082E               	movf	(convert@temp+1)^(0+128),w
  2251  0C3D  1283               	bcf	3,5	;RP0=0, select bank0
  2252  0C3E  1303               	bcf	3,6	;RP1=0, select bank0
  2253  0C3F  00A3               	movwf	___awdiv@dividend+1
  2254  0C40  1683               	bsf	3,5	;RP0=1, select bank1
  2255  0C41  1303               	bcf	3,6	;RP1=0, select bank1
  2256  0C42  082D               	movf	convert@temp^(0+128),w
  2257  0C43  1283               	bcf	3,5	;RP0=0, select bank0
  2258  0C44  1303               	bcf	3,6	;RP1=0, select bank0
  2259  0C45  00A2               	movwf	___awdiv@dividend
  2260  0C46  160A  118A  2388  120A  158A  	fcall	___awdiv
  2261  0C4B  1283               	bcf	3,5	;RP0=0, select bank0
  2262  0C4C  1303               	bcf	3,6	;RP1=0, select bank0
  2263  0C4D  0821               	movf	?___awdiv+1,w
  2264  0C4E  1683               	bsf	3,5	;RP0=1, select bank1
  2265  0C4F  1303               	bcf	3,6	;RP1=0, select bank1
  2266  0C50  00AE               	movwf	(convert@temp+1)^(0+128)
  2267  0C51  1283               	bcf	3,5	;RP0=0, select bank0
  2268  0C52  1303               	bcf	3,6	;RP1=0, select bank0
  2269  0C53  0820               	movf	?___awdiv,w
  2270  0C54  1683               	bsf	3,5	;RP0=1, select bank1
  2271  0C55  1303               	bcf	3,6	;RP1=0, select bank1
  2272  0C56  00AD               	movwf	convert@temp^(0+128)
  2273  0C57                     l2900:
  2274                           
  2275                           ;ADCEL3.c: 33:          digits++;
  2276  0C57  3001               	movlw	1
  2277  0C58  07B8               	addwf	convert@digits^(0+128),f
  2278  0C59  1803               	skipnc
  2279  0C5A  0AB9               	incf	(convert@digits+1)^(0+128),f
  2280  0C5B  3000               	movlw	0
  2281  0C5C  07B9               	addwf	(convert@digits+1)^(0+128),f
  2282  0C5D                     l2902:
  2283                           
  2284                           ;ADCEL3.c: 30:      while(temp!=0)
  2285  0C5D  1683               	bsf	3,5	;RP0=1, select bank1
  2286  0C5E  1303               	bcf	3,6	;RP1=0, select bank1
  2287  0C5F  082D               	movf	convert@temp^(0+128),w
  2288  0C60  042E               	iorwf	(convert@temp+1)^(0+128),w
  2289  0C61  1D03               	btfss	3,2
  2290  0C62  2C64               	goto	u3791
  2291  0C63  2C65               	goto	u3790
  2292  0C64                     u3791:
  2293  0C64  2C34               	goto	l2898
  2294  0C65                     u3790:
  2295  0C65  2D9D               	goto	l2926
  2296  0C66                     l2904:
  2297                           
  2298                           ;ADCEL3.c: 36:      {;ADCEL3.c: 37:          if(digits==1)mu=1;
  2299  0C66  0338               	decf	convert@digits^(0+128),w
  2300  0C67  0439               	iorwf	(convert@digits+1)^(0+128),w
  2301  0C68  1D03               	btfss	3,2
  2302  0C69  2C6B               	goto	u3801
  2303  0C6A  2C6C               	goto	u3800
  2304  0C6B                     u3801:
  2305  0C6B  2C71               	goto	l2908
  2306  0C6C                     u3800:
  2307  0C6C                     l2906:
  2308  0C6C  3001               	movlw	1
  2309  0C6D  00BA               	movwf	convert@mu^(0+128)
  2310  0C6E  3000               	movlw	0
  2311  0C6F  00BB               	movwf	(convert@mu^(0+128)+1)
  2312  0C70  2CB3               	goto	l2916
  2313  0C71                     l2908:
  2314  0C71  3002               	movlw	2
  2315  0C72  00AF               	movwf	convert@j^(0+128)
  2316  0C73  3000               	movlw	0
  2317  0C74  00B0               	movwf	(convert@j^(0+128)+1)
  2318  0C75  2C9D               	goto	l2914
  2319  0C76                     l2910:
  2320  0C76  1683               	bsf	3,5	;RP0=1, select bank1
  2321  0C77  1303               	bcf	3,6	;RP1=0, select bank1
  2322  0C78  083B               	movf	(convert@mu+1)^(0+128),w
  2323  0C79  1283               	bcf	3,5	;RP0=0, select bank0
  2324  0C7A  1303               	bcf	3,6	;RP1=0, select bank0
  2325  0C7B  00AC               	movwf	___wmul@multiplier+1
  2326  0C7C  1683               	bsf	3,5	;RP0=1, select bank1
  2327  0C7D  1303               	bcf	3,6	;RP1=0, select bank1
  2328  0C7E  083A               	movf	convert@mu^(0+128),w
  2329  0C7F  1283               	bcf	3,5	;RP0=0, select bank0
  2330  0C80  1303               	bcf	3,6	;RP1=0, select bank0
  2331  0C81  00AB               	movwf	___wmul@multiplier
  2332  0C82  300A               	movlw	10
  2333  0C83  00AD               	movwf	___wmul@multiplicand
  2334  0C84  3000               	movlw	0
  2335  0C85  00AE               	movwf	___wmul@multiplicand+1
  2336  0C86  160A  118A  21F6  120A  158A  	fcall	___wmul
  2337  0C8B  1283               	bcf	3,5	;RP0=0, select bank0
  2338  0C8C  1303               	bcf	3,6	;RP1=0, select bank0
  2339  0C8D  082C               	movf	?___wmul+1,w
  2340  0C8E  1683               	bsf	3,5	;RP0=1, select bank1
  2341  0C8F  1303               	bcf	3,6	;RP1=0, select bank1
  2342  0C90  00BB               	movwf	(convert@mu+1)^(0+128)
  2343  0C91  1283               	bcf	3,5	;RP0=0, select bank0
  2344  0C92  1303               	bcf	3,6	;RP1=0, select bank0
  2345  0C93  082B               	movf	?___wmul,w
  2346  0C94  1683               	bsf	3,5	;RP0=1, select bank1
  2347  0C95  1303               	bcf	3,6	;RP1=0, select bank1
  2348  0C96  00BA               	movwf	convert@mu^(0+128)
  2349  0C97                     l2912:
  2350  0C97  3001               	movlw	1
  2351  0C98  07AF               	addwf	convert@j^(0+128),f
  2352  0C99  1803               	skipnc
  2353  0C9A  0AB0               	incf	(convert@j+1)^(0+128),f
  2354  0C9B  3000               	movlw	0
  2355  0C9C  07B0               	addwf	(convert@j+1)^(0+128),f
  2356  0C9D                     l2914:
  2357  0C9D  0839               	movf	(convert@digits+1)^(0+128),w
  2358  0C9E  3A80               	xorlw	128
  2359  0C9F  1283               	bcf	3,5	;RP0=0, select bank0
  2360  0CA0  1303               	bcf	3,6	;RP1=0, select bank0
  2361  0CA1  00EC               	movwf	??_convert
  2362  0CA2  1683               	bsf	3,5	;RP0=1, select bank1
  2363  0CA3  1303               	bcf	3,6	;RP1=0, select bank1
  2364  0CA4  0830               	movf	(convert@j+1)^(0+128),w
  2365  0CA5  3A80               	xorlw	128
  2366  0CA6  1283               	bcf	3,5	;RP0=0, select bank0
  2367  0CA7  1303               	bcf	3,6	;RP1=0, select bank0
  2368  0CA8  026C               	subwf	??_convert,w
  2369  0CA9  1D03               	skipz
  2370  0CAA  2CAF               	goto	u3815
  2371  0CAB  1683               	bsf	3,5	;RP0=1, select bank1
  2372  0CAC  1303               	bcf	3,6	;RP1=0, select bank1
  2373  0CAD  082F               	movf	convert@j^(0+128),w
  2374  0CAE  0238               	subwf	convert@digits^(0+128),w
  2375  0CAF                     u3815:
  2376  0CAF  1803               	skipnc
  2377  0CB0  2CB2               	goto	u3811
  2378  0CB1  2CB3               	goto	u3810
  2379  0CB2                     u3811:
  2380  0CB2  2C76               	goto	l2910
  2381  0CB3                     u3810:
  2382  0CB3                     l2916:
  2383                           
  2384                           ;ADCEL3.c: 40:          x=a/mu;
  2385  0CB3  1683               	bsf	3,5	;RP0=1, select bank1
  2386  0CB4  1303               	bcf	3,6	;RP1=0, select bank1
  2387  0CB5  083A               	movf	convert@mu^(0+128),w
  2388  0CB6  1283               	bcf	3,5	;RP0=0, select bank0
  2389  0CB7  1303               	bcf	3,6	;RP1=0, select bank0
  2390  0CB8  00B1               	movwf	___xxtofl@val
  2391  0CB9  1683               	bsf	3,5	;RP0=1, select bank1
  2392  0CBA  1303               	bcf	3,6	;RP1=0, select bank1
  2393  0CBB  083B               	movf	(convert@mu+1)^(0+128),w
  2394  0CBC  1283               	bcf	3,5	;RP0=0, select bank0
  2395  0CBD  1303               	bcf	3,6	;RP1=0, select bank0
  2396  0CBE  00B2               	movwf	___xxtofl@val+1
  2397  0CBF  3000               	movlw	0
  2398  0CC0  1BB2               	btfsc	___xxtofl@val+1,7
  2399  0CC1  30FF               	movlw	255
  2400  0CC2  00B3               	movwf	___xxtofl@val+2
  2401  0CC3  00B4               	movwf	___xxtofl@val+3
  2402  0CC4  3001               	movlw	1
  2403  0CC5  120A  158A  207A  120A  158A  	fcall	___xxtofl
  2404  0CCA  1283               	bcf	3,5	;RP0=0, select bank0
  2405  0CCB  1303               	bcf	3,6	;RP1=0, select bank0
  2406  0CCC  0834               	movf	?___xxtofl+3,w
  2407  0CCD  00C2               	movwf	___fldiv@a+3
  2408  0CCE  0833               	movf	?___xxtofl+2,w
  2409  0CCF  00C1               	movwf	___fldiv@a+2
  2410  0CD0  0832               	movf	?___xxtofl+1,w
  2411  0CD1  00C0               	movwf	___fldiv@a+1
  2412  0CD2  0831               	movf	?___xxtofl,w
  2413  0CD3  00BF               	movwf	___fldiv@a
  2414  0CD4  0869               	movf	convert@a+3,w
  2415  0CD5  00C6               	movwf	___fldiv@b+3
  2416  0CD6  0868               	movf	convert@a+2,w
  2417  0CD7  00C5               	movwf	___fldiv@b+2
  2418  0CD8  0867               	movf	convert@a+1,w
  2419  0CD9  00C4               	movwf	___fldiv@b+1
  2420  0CDA  0866               	movf	convert@a,w
  2421  0CDB  00C3               	movwf	___fldiv@b
  2422  0CDC  120A  118A  257F  120A  158A  	fcall	___fldiv
  2423  0CE1  1283               	bcf	3,5	;RP0=0, select bank0
  2424  0CE2  1303               	bcf	3,6	;RP1=0, select bank0
  2425  0CE3  0842               	movf	?___fldiv+3,w
  2426  0CE4  1683               	bsf	3,5	;RP0=1, select bank1
  2427  0CE5  1303               	bcf	3,6	;RP1=0, select bank1
  2428  0CE6  00B5               	movwf	(convert@x+3)^(0+128)
  2429  0CE7  1283               	bcf	3,5	;RP0=0, select bank0
  2430  0CE8  1303               	bcf	3,6	;RP1=0, select bank0
  2431  0CE9  0841               	movf	?___fldiv+2,w
  2432  0CEA  1683               	bsf	3,5	;RP0=1, select bank1
  2433  0CEB  1303               	bcf	3,6	;RP1=0, select bank1
  2434  0CEC  00B4               	movwf	(convert@x+2)^(0+128)
  2435  0CED  1283               	bcf	3,5	;RP0=0, select bank0
  2436  0CEE  1303               	bcf	3,6	;RP1=0, select bank0
  2437  0CEF  0840               	movf	?___fldiv+1,w
  2438  0CF0  1683               	bsf	3,5	;RP0=1, select bank1
  2439  0CF1  1303               	bcf	3,6	;RP1=0, select bank1
  2440  0CF2  00B3               	movwf	(convert@x+1)^(0+128)
  2441  0CF3  1283               	bcf	3,5	;RP0=0, select bank0
  2442  0CF4  1303               	bcf	3,6	;RP1=0, select bank0
  2443  0CF5  083F               	movf	?___fldiv,w
  2444  0CF6  1683               	bsf	3,5	;RP0=1, select bank1
  2445  0CF7  1303               	bcf	3,6	;RP1=0, select bank1
  2446  0CF8  00B2               	movwf	convert@x^(0+128)
  2447                           
  2448                           ;ADCEL3.c: 41:          a=a-((int)x*mu);
  2449  0CF9  083B               	movf	(convert@mu+1)^(0+128),w
  2450  0CFA  1283               	bcf	3,5	;RP0=0, select bank0
  2451  0CFB  1303               	bcf	3,6	;RP1=0, select bank0
  2452  0CFC  00AE               	movwf	___wmul@multiplicand+1
  2453  0CFD  1683               	bsf	3,5	;RP0=1, select bank1
  2454  0CFE  1303               	bcf	3,6	;RP1=0, select bank1
  2455  0CFF  083A               	movf	convert@mu^(0+128),w
  2456  0D00  1283               	bcf	3,5	;RP0=0, select bank0
  2457  0D01  1303               	bcf	3,6	;RP1=0, select bank0
  2458  0D02  00AD               	movwf	___wmul@multiplicand
  2459  0D03  1683               	bsf	3,5	;RP0=1, select bank1
  2460  0D04  1303               	bcf	3,6	;RP1=0, select bank1
  2461  0D05  0835               	movf	(convert@x+3)^(0+128),w
  2462  0D06  1283               	bcf	3,5	;RP0=0, select bank0
  2463  0D07  1303               	bcf	3,6	;RP1=0, select bank0
  2464  0D08  00A3               	movwf	___fltol@f1+3
  2465  0D09  1683               	bsf	3,5	;RP0=1, select bank1
  2466  0D0A  1303               	bcf	3,6	;RP1=0, select bank1
  2467  0D0B  0834               	movf	(convert@x+2)^(0+128),w
  2468  0D0C  1283               	bcf	3,5	;RP0=0, select bank0
  2469  0D0D  1303               	bcf	3,6	;RP1=0, select bank0
  2470  0D0E  00A2               	movwf	___fltol@f1+2
  2471  0D0F  1683               	bsf	3,5	;RP0=1, select bank1
  2472  0D10  1303               	bcf	3,6	;RP1=0, select bank1
  2473  0D11  0833               	movf	(convert@x+1)^(0+128),w
  2474  0D12  1283               	bcf	3,5	;RP0=0, select bank0
  2475  0D13  1303               	bcf	3,6	;RP1=0, select bank0
  2476  0D14  00A1               	movwf	___fltol@f1+1
  2477  0D15  1683               	bsf	3,5	;RP0=1, select bank1
  2478  0D16  1303               	bcf	3,6	;RP1=0, select bank1
  2479  0D17  0832               	movf	convert@x^(0+128),w
  2480  0D18  1283               	bcf	3,5	;RP0=0, select bank0
  2481  0D19  1303               	bcf	3,6	;RP1=0, select bank0
  2482  0D1A  00A0               	movwf	___fltol@f1
  2483  0D1B  160A  118A  2541  120A  158A  	fcall	___fltol
  2484  0D20  1283               	bcf	3,5	;RP0=0, select bank0
  2485  0D21  1303               	bcf	3,6	;RP1=0, select bank0
  2486  0D22  0821               	movf	?___fltol+1,w
  2487  0D23  00AC               	movwf	___wmul@multiplier+1
  2488  0D24  0820               	movf	?___fltol,w
  2489  0D25  00AB               	movwf	___wmul@multiplier
  2490  0D26  160A  118A  21F6  120A  158A  	fcall	___wmul
  2491  0D2B  1283               	bcf	3,5	;RP0=0, select bank0
  2492  0D2C  1303               	bcf	3,6	;RP1=0, select bank0
  2493  0D2D  082B               	movf	?___wmul,w
  2494  0D2E  00B1               	movwf	___xxtofl@val
  2495  0D2F  082C               	movf	?___wmul+1,w
  2496  0D30  00B2               	movwf	___xxtofl@val+1
  2497  0D31  3000               	movlw	0
  2498  0D32  1BB2               	btfsc	___xxtofl@val+1,7
  2499  0D33  30FF               	movlw	255
  2500  0D34  00B3               	movwf	___xxtofl@val+2
  2501  0D35  00B4               	movwf	___xxtofl@val+3
  2502  0D36  3001               	movlw	1
  2503  0D37  120A  158A  207A  120A  158A  	fcall	___xxtofl
  2504  0D3C  1283               	bcf	3,5	;RP0=0, select bank0
  2505  0D3D  1303               	bcf	3,6	;RP1=0, select bank0
  2506  0D3E  0834               	movf	?___xxtofl+3,w
  2507  0D3F  00C2               	movwf	___flsub@a+3
  2508  0D40  0833               	movf	?___xxtofl+2,w
  2509  0D41  00C1               	movwf	___flsub@a+2
  2510  0D42  0832               	movf	?___xxtofl+1,w
  2511  0D43  00C0               	movwf	___flsub@a+1
  2512  0D44  0831               	movf	?___xxtofl,w
  2513  0D45  00BF               	movwf	___flsub@a
  2514  0D46  0869               	movf	convert@a+3,w
  2515  0D47  00C6               	movwf	___flsub@b+3
  2516  0D48  0868               	movf	convert@a+2,w
  2517  0D49  00C5               	movwf	___flsub@b+2
  2518  0D4A  0867               	movf	convert@a+1,w
  2519  0D4B  00C4               	movwf	___flsub@b+1
  2520  0D4C  0866               	movf	convert@a,w
  2521  0D4D  00C3               	movwf	___flsub@b
  2522  0D4E  160A  118A  21D2  120A  158A  	fcall	___flsub
  2523  0D53  1283               	bcf	3,5	;RP0=0, select bank0
  2524  0D54  1303               	bcf	3,6	;RP1=0, select bank0
  2525  0D55  0842               	movf	?___flsub+3,w
  2526  0D56  00E9               	movwf	convert@a+3
  2527  0D57  0841               	movf	?___flsub+2,w
  2528  0D58  00E8               	movwf	convert@a+2
  2529  0D59  0840               	movf	?___flsub+1,w
  2530  0D5A  00E7               	movwf	convert@a+1
  2531  0D5B  083F               	movf	?___flsub,w
  2532  0D5C  00E6               	movwf	convert@a
  2533  0D5D                     l2918:
  2534                           
  2535                           ;ADCEL3.c: 42:          data[i]=0x30+((int)x);
  2536  0D5D  1683               	bsf	3,5	;RP0=1, select bank1
  2537  0D5E  1303               	bcf	3,6	;RP1=0, select bank1
  2538  0D5F  0835               	movf	(convert@x+3)^(0+128),w
  2539  0D60  1283               	bcf	3,5	;RP0=0, select bank0
  2540  0D61  1303               	bcf	3,6	;RP1=0, select bank0
  2541  0D62  00A3               	movwf	___fltol@f1+3
  2542  0D63  1683               	bsf	3,5	;RP0=1, select bank1
  2543  0D64  1303               	bcf	3,6	;RP1=0, select bank1
  2544  0D65  0834               	movf	(convert@x+2)^(0+128),w
  2545  0D66  1283               	bcf	3,5	;RP0=0, select bank0
  2546  0D67  1303               	bcf	3,6	;RP1=0, select bank0
  2547  0D68  00A2               	movwf	___fltol@f1+2
  2548  0D69  1683               	bsf	3,5	;RP0=1, select bank1
  2549  0D6A  1303               	bcf	3,6	;RP1=0, select bank1
  2550  0D6B  0833               	movf	(convert@x+1)^(0+128),w
  2551  0D6C  1283               	bcf	3,5	;RP0=0, select bank0
  2552  0D6D  1303               	bcf	3,6	;RP1=0, select bank0
  2553  0D6E  00A1               	movwf	___fltol@f1+1
  2554  0D6F  1683               	bsf	3,5	;RP0=1, select bank1
  2555  0D70  1303               	bcf	3,6	;RP1=0, select bank1
  2556  0D71  0832               	movf	convert@x^(0+128),w
  2557  0D72  1283               	bcf	3,5	;RP0=0, select bank0
  2558  0D73  1303               	bcf	3,6	;RP1=0, select bank0
  2559  0D74  00A0               	movwf	___fltol@f1
  2560  0D75  160A  118A  2541  120A  158A  	fcall	___fltol
  2561  0D7A  1283               	bcf	3,5	;RP0=0, select bank0
  2562  0D7B  1303               	bcf	3,6	;RP1=0, select bank0
  2563  0D7C  0820               	movf	?___fltol,w
  2564  0D7D  3E30               	addlw	48
  2565  0D7E  00EC               	movwf	??_convert
  2566  0D7F  1683               	bsf	3,5	;RP0=1, select bank1
  2567  0D80  1303               	bcf	3,6	;RP1=0, select bank1
  2568  0D81  0836               	movf	convert@i^(0+128),w
  2569  0D82  0731               	addwf	convert@data^(0+128),w
  2570  0D83  1283               	bcf	3,5	;RP0=0, select bank0
  2571  0D84  1303               	bcf	3,6	;RP1=0, select bank0
  2572  0D85  00ED               	movwf	??_convert+1
  2573  0D86  086D               	movf	??_convert+1,w
  2574  0D87  0084               	movwf	4
  2575  0D88  086C               	movf	??_convert,w
  2576  0D89  1383               	bcf	3,7	;select IRP bank0
  2577  0D8A  0080               	movwf	0
  2578  0D8B                     l2920:
  2579                           
  2580                           ;ADCEL3.c: 43:          i++;
  2581  0D8B  3001               	movlw	1
  2582  0D8C  1683               	bsf	3,5	;RP0=1, select bank1
  2583  0D8D  1303               	bcf	3,6	;RP1=0, select bank1
  2584  0D8E  07B6               	addwf	convert@i^(0+128),f
  2585  0D8F  1803               	skipnc
  2586  0D90  0AB7               	incf	(convert@i+1)^(0+128),f
  2587  0D91  3000               	movlw	0
  2588  0D92  07B7               	addwf	(convert@i+1)^(0+128),f
  2589  0D93                     l2922:
  2590                           
  2591                           ;ADCEL3.c: 44:          digits--;
  2592  0D93  30FF               	movlw	255
  2593  0D94  07B8               	addwf	convert@digits^(0+128),f
  2594  0D95  1803               	skipnc
  2595  0D96  0AB9               	incf	(convert@digits+1)^(0+128),f
  2596  0D97  30FF               	movlw	255
  2597  0D98  07B9               	addwf	(convert@digits+1)^(0+128),f
  2598  0D99                     l2924:
  2599                           
  2600                           ;ADCEL3.c: 45:          mu=1;
  2601  0D99  3001               	movlw	1
  2602  0D9A  00BA               	movwf	convert@mu^(0+128)
  2603  0D9B  3000               	movlw	0
  2604  0D9C  00BB               	movwf	(convert@mu^(0+128)+1)
  2605  0D9D                     l2926:
  2606                           
  2607                           ;ADCEL3.c: 35:      while(digits!=0)
  2608  0D9D  0838               	movf	convert@digits^(0+128),w
  2609  0D9E  0439               	iorwf	(convert@digits+1)^(0+128),w
  2610  0D9F  1D03               	btfss	3,2
  2611  0DA0  2DA2               	goto	u3821
  2612  0DA1  2DA3               	goto	u3820
  2613  0DA2                     u3821:
  2614  0DA2  2C66               	goto	l2904
  2615  0DA3                     u3820:
  2616  0DA3                     l2928:
  2617                           
  2618                           ;ADCEL3.c: 48:      data[i]='.';
  2619  0DA3  302E               	movlw	46
  2620  0DA4  1283               	bcf	3,5	;RP0=0, select bank0
  2621  0DA5  1303               	bcf	3,6	;RP1=0, select bank0
  2622  0DA6  00EC               	movwf	??_convert
  2623  0DA7  1683               	bsf	3,5	;RP0=1, select bank1
  2624  0DA8  1303               	bcf	3,6	;RP1=0, select bank1
  2625  0DA9  0836               	movf	convert@i^(0+128),w
  2626  0DAA  0731               	addwf	convert@data^(0+128),w
  2627  0DAB  1283               	bcf	3,5	;RP0=0, select bank0
  2628  0DAC  1303               	bcf	3,6	;RP1=0, select bank0
  2629  0DAD  00ED               	movwf	??_convert+1
  2630  0DAE  086D               	movf	??_convert+1,w
  2631  0DAF  0084               	movwf	4
  2632  0DB0  086C               	movf	??_convert,w
  2633  0DB1  1383               	bcf	3,7	;select IRP bank0
  2634  0DB2  0080               	movwf	0
  2635  0DB3                     l2930:
  2636                           
  2637                           ;ADCEL3.c: 49:      i++;
  2638  0DB3  3001               	movlw	1
  2639  0DB4  1683               	bsf	3,5	;RP0=1, select bank1
  2640  0DB5  1303               	bcf	3,6	;RP1=0, select bank1
  2641  0DB6  07B6               	addwf	convert@i^(0+128),f
  2642  0DB7  1803               	skipnc
  2643  0DB8  0AB7               	incf	(convert@i+1)^(0+128),f
  2644  0DB9  3000               	movlw	0
  2645  0DBA  07B7               	addwf	(convert@i+1)^(0+128),f
  2646  0DBB                     l2932:
  2647  0DBB                     l2934:
  2648                           
  2649                           ;ADCEL3.c: 51:      for(j=1;j<=place;j++)mu=mu*10;
  2650  0DBB  3001               	movlw	1
  2651  0DBC  00AF               	movwf	convert@j^(0+128)
  2652  0DBD  3000               	movlw	0
  2653  0DBE  00B0               	movwf	(convert@j^(0+128)+1)
  2654  0DBF  2DE7               	goto	l2940
  2655  0DC0                     l2936:
  2656  0DC0  1683               	bsf	3,5	;RP0=1, select bank1
  2657  0DC1  1303               	bcf	3,6	;RP1=0, select bank1
  2658  0DC2  083B               	movf	(convert@mu+1)^(0+128),w
  2659  0DC3  1283               	bcf	3,5	;RP0=0, select bank0
  2660  0DC4  1303               	bcf	3,6	;RP1=0, select bank0
  2661  0DC5  00AC               	movwf	___wmul@multiplier+1
  2662  0DC6  1683               	bsf	3,5	;RP0=1, select bank1
  2663  0DC7  1303               	bcf	3,6	;RP1=0, select bank1
  2664  0DC8  083A               	movf	convert@mu^(0+128),w
  2665  0DC9  1283               	bcf	3,5	;RP0=0, select bank0
  2666  0DCA  1303               	bcf	3,6	;RP1=0, select bank0
  2667  0DCB  00AB               	movwf	___wmul@multiplier
  2668  0DCC  300A               	movlw	10
  2669  0DCD  00AD               	movwf	___wmul@multiplicand
  2670  0DCE  3000               	movlw	0
  2671  0DCF  00AE               	movwf	___wmul@multiplicand+1
  2672  0DD0  160A  118A  21F6  120A  158A  	fcall	___wmul
  2673  0DD5  1283               	bcf	3,5	;RP0=0, select bank0
  2674  0DD6  1303               	bcf	3,6	;RP1=0, select bank0
  2675  0DD7  082C               	movf	?___wmul+1,w
  2676  0DD8  1683               	bsf	3,5	;RP0=1, select bank1
  2677  0DD9  1303               	bcf	3,6	;RP1=0, select bank1
  2678  0DDA  00BB               	movwf	(convert@mu+1)^(0+128)
  2679  0DDB  1283               	bcf	3,5	;RP0=0, select bank0
  2680  0DDC  1303               	bcf	3,6	;RP1=0, select bank0
  2681  0DDD  082B               	movf	?___wmul,w
  2682  0DDE  1683               	bsf	3,5	;RP0=1, select bank1
  2683  0DDF  1303               	bcf	3,6	;RP1=0, select bank1
  2684  0DE0  00BA               	movwf	convert@mu^(0+128)
  2685  0DE1                     l2938:
  2686  0DE1  3001               	movlw	1
  2687  0DE2  07AF               	addwf	convert@j^(0+128),f
  2688  0DE3  1803               	skipnc
  2689  0DE4  0AB0               	incf	(convert@j+1)^(0+128),f
  2690  0DE5  3000               	movlw	0
  2691  0DE6  07B0               	addwf	(convert@j+1)^(0+128),f
  2692  0DE7                     l2940:
  2693  0DE7  1283               	bcf	3,5	;RP0=0, select bank0
  2694  0DE8  1303               	bcf	3,6	;RP1=0, select bank0
  2695  0DE9  086B               	movf	convert@place+1,w
  2696  0DEA  3A80               	xorlw	128
  2697  0DEB  00EC               	movwf	??_convert
  2698  0DEC  1683               	bsf	3,5	;RP0=1, select bank1
  2699  0DED  1303               	bcf	3,6	;RP1=0, select bank1
  2700  0DEE  0830               	movf	(convert@j+1)^(0+128),w
  2701  0DEF  3A80               	xorlw	128
  2702  0DF0  1283               	bcf	3,5	;RP0=0, select bank0
  2703  0DF1  1303               	bcf	3,6	;RP1=0, select bank0
  2704  0DF2  026C               	subwf	??_convert,w
  2705  0DF3  1D03               	skipz
  2706  0DF4  2DFB               	goto	u3835
  2707  0DF5  1683               	bsf	3,5	;RP0=1, select bank1
  2708  0DF6  1303               	bcf	3,6	;RP1=0, select bank1
  2709  0DF7  082F               	movf	convert@j^(0+128),w
  2710  0DF8  1283               	bcf	3,5	;RP0=0, select bank0
  2711  0DF9  1303               	bcf	3,6	;RP1=0, select bank0
  2712  0DFA  026A               	subwf	convert@place,w
  2713  0DFB                     u3835:
  2714  0DFB  1803               	skipnc
  2715  0DFC  2DFE               	goto	u3831
  2716  0DFD  2DFF               	goto	u3830
  2717  0DFE                     u3831:
  2718  0DFE  2DC0               	goto	l2936
  2719  0DFF                     u3830:
  2720  0DFF                     l2942:
  2721                           
  2722                           ;ADCEL3.c: 52:      x=(a-(int)a)*mu;
  2723  0DFF  1683               	bsf	3,5	;RP0=1, select bank1
  2724  0E00  1303               	bcf	3,6	;RP1=0, select bank1
  2725  0E01  083A               	movf	convert@mu^(0+128),w
  2726  0E02  1283               	bcf	3,5	;RP0=0, select bank0
  2727  0E03  1303               	bcf	3,6	;RP1=0, select bank0
  2728  0E04  00B1               	movwf	___xxtofl@val
  2729  0E05  1683               	bsf	3,5	;RP0=1, select bank1
  2730  0E06  1303               	bcf	3,6	;RP1=0, select bank1
  2731  0E07  083B               	movf	(convert@mu+1)^(0+128),w
  2732  0E08  1283               	bcf	3,5	;RP0=0, select bank0
  2733  0E09  1303               	bcf	3,6	;RP1=0, select bank0
  2734  0E0A  00B2               	movwf	___xxtofl@val+1
  2735  0E0B  3000               	movlw	0
  2736  0E0C  1BB2               	btfsc	___xxtofl@val+1,7
  2737  0E0D  30FF               	movlw	255
  2738  0E0E  00B3               	movwf	___xxtofl@val+2
  2739  0E0F  00B4               	movwf	___xxtofl@val+3
  2740  0E10  3001               	movlw	1
  2741  0E11  120A  158A  207A  120A  158A  	fcall	___xxtofl
  2742  0E16  1283               	bcf	3,5	;RP0=0, select bank0
  2743  0E17  1303               	bcf	3,6	;RP1=0, select bank0
  2744  0E18  0834               	movf	?___xxtofl+3,w
  2745  0E19  00DC               	movwf	___flmul@b+3
  2746  0E1A  0833               	movf	?___xxtofl+2,w
  2747  0E1B  00DB               	movwf	___flmul@b+2
  2748  0E1C  0832               	movf	?___xxtofl+1,w
  2749  0E1D  00DA               	movwf	___flmul@b+1
  2750  0E1E  0831               	movf	?___xxtofl,w
  2751  0E1F  00D9               	movwf	___flmul@b
  2752  0E20  0869               	movf	convert@a+3,w
  2753  0E21  00A3               	movwf	___fltol@f1+3
  2754  0E22  0868               	movf	convert@a+2,w
  2755  0E23  00A2               	movwf	___fltol@f1+2
  2756  0E24  0867               	movf	convert@a+1,w
  2757  0E25  00A1               	movwf	___fltol@f1+1
  2758  0E26  0866               	movf	convert@a,w
  2759  0E27  00A0               	movwf	___fltol@f1
  2760  0E28  160A  118A  2541  120A  158A  	fcall	___fltol
  2761  0E2D  1283               	bcf	3,5	;RP0=0, select bank0
  2762  0E2E  1303               	bcf	3,6	;RP1=0, select bank0
  2763  0E2F  0820               	movf	?___fltol,w
  2764  0E30  00B1               	movwf	___xxtofl@val
  2765  0E31  0821               	movf	?___fltol+1,w
  2766  0E32  00B2               	movwf	___xxtofl@val+1
  2767  0E33  3000               	movlw	0
  2768  0E34  1BB2               	btfsc	___xxtofl@val+1,7
  2769  0E35  30FF               	movlw	255
  2770  0E36  00B3               	movwf	___xxtofl@val+2
  2771  0E37  00B4               	movwf	___xxtofl@val+3
  2772  0E38  3001               	movlw	1
  2773  0E39  120A  158A  207A  120A  158A  	fcall	___xxtofl
  2774  0E3E  1283               	bcf	3,5	;RP0=0, select bank0
  2775  0E3F  1303               	bcf	3,6	;RP1=0, select bank0
  2776  0E40  0834               	movf	?___xxtofl+3,w
  2777  0E41  00C2               	movwf	___flsub@a+3
  2778  0E42  0833               	movf	?___xxtofl+2,w
  2779  0E43  00C1               	movwf	___flsub@a+2
  2780  0E44  0832               	movf	?___xxtofl+1,w
  2781  0E45  00C0               	movwf	___flsub@a+1
  2782  0E46  0831               	movf	?___xxtofl,w
  2783  0E47  00BF               	movwf	___flsub@a
  2784  0E48  0869               	movf	convert@a+3,w
  2785  0E49  00C6               	movwf	___flsub@b+3
  2786  0E4A  0868               	movf	convert@a+2,w
  2787  0E4B  00C5               	movwf	___flsub@b+2
  2788  0E4C  0867               	movf	convert@a+1,w
  2789  0E4D  00C4               	movwf	___flsub@b+1
  2790  0E4E  0866               	movf	convert@a,w
  2791  0E4F  00C3               	movwf	___flsub@b
  2792  0E50  160A  118A  21D2  120A  158A  	fcall	___flsub
  2793  0E55  1283               	bcf	3,5	;RP0=0, select bank0
  2794  0E56  1303               	bcf	3,6	;RP1=0, select bank0
  2795  0E57  0842               	movf	?___flsub+3,w
  2796  0E58  00E0               	movwf	___flmul@a+3
  2797  0E59  0841               	movf	?___flsub+2,w
  2798  0E5A  00DF               	movwf	___flmul@a+2
  2799  0E5B  0840               	movf	?___flsub+1,w
  2800  0E5C  00DE               	movwf	___flmul@a+1
  2801  0E5D  083F               	movf	?___flsub,w
  2802  0E5E  00DD               	movwf	___flmul@a
  2803  0E5F  120A  118A  2020  120A  158A  	fcall	___flmul
  2804  0E64  1283               	bcf	3,5	;RP0=0, select bank0
  2805  0E65  1303               	bcf	3,6	;RP1=0, select bank0
  2806  0E66  085C               	movf	?___flmul+3,w
  2807  0E67  1683               	bsf	3,5	;RP0=1, select bank1
  2808  0E68  1303               	bcf	3,6	;RP1=0, select bank1
  2809  0E69  00B5               	movwf	(convert@x+3)^(0+128)
  2810  0E6A  1283               	bcf	3,5	;RP0=0, select bank0
  2811  0E6B  1303               	bcf	3,6	;RP1=0, select bank0
  2812  0E6C  085B               	movf	?___flmul+2,w
  2813  0E6D  1683               	bsf	3,5	;RP0=1, select bank1
  2814  0E6E  1303               	bcf	3,6	;RP1=0, select bank1
  2815  0E6F  00B4               	movwf	(convert@x+2)^(0+128)
  2816  0E70  1283               	bcf	3,5	;RP0=0, select bank0
  2817  0E71  1303               	bcf	3,6	;RP1=0, select bank0
  2818  0E72  085A               	movf	?___flmul+1,w
  2819  0E73  1683               	bsf	3,5	;RP0=1, select bank1
  2820  0E74  1303               	bcf	3,6	;RP1=0, select bank1
  2821  0E75  00B3               	movwf	(convert@x+1)^(0+128)
  2822  0E76  1283               	bcf	3,5	;RP0=0, select bank0
  2823  0E77  1303               	bcf	3,6	;RP1=0, select bank0
  2824  0E78  0859               	movf	?___flmul,w
  2825  0E79  1683               	bsf	3,5	;RP0=1, select bank1
  2826  0E7A  1303               	bcf	3,6	;RP1=0, select bank1
  2827  0E7B  00B2               	movwf	convert@x^(0+128)
  2828  0E7C                     l2944:
  2829                           
  2830                           ;ADCEL3.c: 53:      a=x;
  2831  0E7C  0835               	movf	(convert@x+3)^(0+128),w
  2832  0E7D  1283               	bcf	3,5	;RP0=0, select bank0
  2833  0E7E  1303               	bcf	3,6	;RP1=0, select bank0
  2834  0E7F  00E9               	movwf	convert@a+3
  2835  0E80  1683               	bsf	3,5	;RP0=1, select bank1
  2836  0E81  1303               	bcf	3,6	;RP1=0, select bank1
  2837  0E82  0834               	movf	(convert@x+2)^(0+128),w
  2838  0E83  1283               	bcf	3,5	;RP0=0, select bank0
  2839  0E84  1303               	bcf	3,6	;RP1=0, select bank0
  2840  0E85  00E8               	movwf	convert@a+2
  2841  0E86  1683               	bsf	3,5	;RP0=1, select bank1
  2842  0E87  1303               	bcf	3,6	;RP1=0, select bank1
  2843  0E88  0833               	movf	(convert@x+1)^(0+128),w
  2844  0E89  1283               	bcf	3,5	;RP0=0, select bank0
  2845  0E8A  1303               	bcf	3,6	;RP1=0, select bank0
  2846  0E8B  00E7               	movwf	convert@a+1
  2847  0E8C  1683               	bsf	3,5	;RP0=1, select bank1
  2848  0E8D  1303               	bcf	3,6	;RP1=0, select bank1
  2849  0E8E  0832               	movf	convert@x^(0+128),w
  2850  0E8F  1283               	bcf	3,5	;RP0=0, select bank0
  2851  0E90  1303               	bcf	3,6	;RP1=0, select bank0
  2852  0E91  00E6               	movwf	convert@a
  2853  0E92                     l2946:
  2854  0E92  0869               	movf	convert@a+3,w
  2855  0E93  00A3               	movwf	___fltol@f1+3
  2856  0E94  0868               	movf	convert@a+2,w
  2857  0E95  00A2               	movwf	___fltol@f1+2
  2858  0E96  0867               	movf	convert@a+1,w
  2859  0E97  00A1               	movwf	___fltol@f1+1
  2860  0E98  0866               	movf	convert@a,w
  2861  0E99  00A0               	movwf	___fltol@f1
  2862  0E9A  160A  118A  2541  120A  158A  	fcall	___fltol
  2863  0E9F                     l2948:
  2864  0E9F                     l2950:
  2865                           
  2866                           ;ADCEL3.c: 56:      mu=1;
  2867  0E9F  3001               	movlw	1
  2868  0EA0  1683               	bsf	3,5	;RP0=1, select bank1
  2869  0EA1  1303               	bcf	3,6	;RP1=0, select bank1
  2870  0EA2  00BA               	movwf	convert@mu^(0+128)
  2871  0EA3  3000               	movlw	0
  2872  0EA4  00BB               	movwf	(convert@mu^(0+128)+1)
  2873  0EA5                     l2952:
  2874                           
  2875                           ;ADCEL3.c: 57:      digits=place;
  2876  0EA5  1283               	bcf	3,5	;RP0=0, select bank0
  2877  0EA6  1303               	bcf	3,6	;RP1=0, select bank0
  2878  0EA7  086B               	movf	convert@place+1,w
  2879  0EA8  1683               	bsf	3,5	;RP0=1, select bank1
  2880  0EA9  1303               	bcf	3,6	;RP1=0, select bank1
  2881  0EAA  00B9               	movwf	(convert@digits+1)^(0+128)
  2882  0EAB  1283               	bcf	3,5	;RP0=0, select bank0
  2883  0EAC  1303               	bcf	3,6	;RP1=0, select bank0
  2884  0EAD  086A               	movf	convert@place,w
  2885  0EAE  1683               	bsf	3,5	;RP0=1, select bank1
  2886  0EAF  1303               	bcf	3,6	;RP1=0, select bank1
  2887  0EB0  00B8               	movwf	convert@digits^(0+128)
  2888                           
  2889                           ;ADCEL3.c: 58:      while(digits!=0)
  2890  0EB1  2FE9               	goto	l2976
  2891  0EB2                     l2954:
  2892                           
  2893                           ;ADCEL3.c: 59:      {;ADCEL3.c: 60:          if(digits==1)mu=1;
  2894  0EB2  0338               	decf	convert@digits^(0+128),w
  2895  0EB3  0439               	iorwf	(convert@digits+1)^(0+128),w
  2896  0EB4  1D03               	btfss	3,2
  2897  0EB5  2EB7               	goto	u3841
  2898  0EB6  2EB8               	goto	u3840
  2899  0EB7                     u3841:
  2900  0EB7  2EBD               	goto	l2958
  2901  0EB8                     u3840:
  2902  0EB8                     l2956:
  2903  0EB8  3001               	movlw	1
  2904  0EB9  00BA               	movwf	convert@mu^(0+128)
  2905  0EBA  3000               	movlw	0
  2906  0EBB  00BB               	movwf	(convert@mu^(0+128)+1)
  2907  0EBC  2EFF               	goto	l2966
  2908  0EBD                     l2958:
  2909  0EBD  3002               	movlw	2
  2910  0EBE  00AF               	movwf	convert@j^(0+128)
  2911  0EBF  3000               	movlw	0
  2912  0EC0  00B0               	movwf	(convert@j^(0+128)+1)
  2913  0EC1  2EE9               	goto	l2964
  2914  0EC2                     l2960:
  2915  0EC2  1683               	bsf	3,5	;RP0=1, select bank1
  2916  0EC3  1303               	bcf	3,6	;RP1=0, select bank1
  2917  0EC4  083B               	movf	(convert@mu+1)^(0+128),w
  2918  0EC5  1283               	bcf	3,5	;RP0=0, select bank0
  2919  0EC6  1303               	bcf	3,6	;RP1=0, select bank0
  2920  0EC7  00AC               	movwf	___wmul@multiplier+1
  2921  0EC8  1683               	bsf	3,5	;RP0=1, select bank1
  2922  0EC9  1303               	bcf	3,6	;RP1=0, select bank1
  2923  0ECA  083A               	movf	convert@mu^(0+128),w
  2924  0ECB  1283               	bcf	3,5	;RP0=0, select bank0
  2925  0ECC  1303               	bcf	3,6	;RP1=0, select bank0
  2926  0ECD  00AB               	movwf	___wmul@multiplier
  2927  0ECE  300A               	movlw	10
  2928  0ECF  00AD               	movwf	___wmul@multiplicand
  2929  0ED0  3000               	movlw	0
  2930  0ED1  00AE               	movwf	___wmul@multiplicand+1
  2931  0ED2  160A  118A  21F6  120A  158A  	fcall	___wmul
  2932  0ED7  1283               	bcf	3,5	;RP0=0, select bank0
  2933  0ED8  1303               	bcf	3,6	;RP1=0, select bank0
  2934  0ED9  082C               	movf	?___wmul+1,w
  2935  0EDA  1683               	bsf	3,5	;RP0=1, select bank1
  2936  0EDB  1303               	bcf	3,6	;RP1=0, select bank1
  2937  0EDC  00BB               	movwf	(convert@mu+1)^(0+128)
  2938  0EDD  1283               	bcf	3,5	;RP0=0, select bank0
  2939  0EDE  1303               	bcf	3,6	;RP1=0, select bank0
  2940  0EDF  082B               	movf	?___wmul,w
  2941  0EE0  1683               	bsf	3,5	;RP0=1, select bank1
  2942  0EE1  1303               	bcf	3,6	;RP1=0, select bank1
  2943  0EE2  00BA               	movwf	convert@mu^(0+128)
  2944  0EE3                     l2962:
  2945  0EE3  3001               	movlw	1
  2946  0EE4  07AF               	addwf	convert@j^(0+128),f
  2947  0EE5  1803               	skipnc
  2948  0EE6  0AB0               	incf	(convert@j+1)^(0+128),f
  2949  0EE7  3000               	movlw	0
  2950  0EE8  07B0               	addwf	(convert@j+1)^(0+128),f
  2951  0EE9                     l2964:
  2952  0EE9  0839               	movf	(convert@digits+1)^(0+128),w
  2953  0EEA  3A80               	xorlw	128
  2954  0EEB  1283               	bcf	3,5	;RP0=0, select bank0
  2955  0EEC  1303               	bcf	3,6	;RP1=0, select bank0
  2956  0EED  00EC               	movwf	??_convert
  2957  0EEE  1683               	bsf	3,5	;RP0=1, select bank1
  2958  0EEF  1303               	bcf	3,6	;RP1=0, select bank1
  2959  0EF0  0830               	movf	(convert@j+1)^(0+128),w
  2960  0EF1  3A80               	xorlw	128
  2961  0EF2  1283               	bcf	3,5	;RP0=0, select bank0
  2962  0EF3  1303               	bcf	3,6	;RP1=0, select bank0
  2963  0EF4  026C               	subwf	??_convert,w
  2964  0EF5  1D03               	skipz
  2965  0EF6  2EFB               	goto	u3855
  2966  0EF7  1683               	bsf	3,5	;RP0=1, select bank1
  2967  0EF8  1303               	bcf	3,6	;RP1=0, select bank1
  2968  0EF9  082F               	movf	convert@j^(0+128),w
  2969  0EFA  0238               	subwf	convert@digits^(0+128),w
  2970  0EFB                     u3855:
  2971  0EFB  1803               	skipnc
  2972  0EFC  2EFE               	goto	u3851
  2973  0EFD  2EFF               	goto	u3850
  2974  0EFE                     u3851:
  2975  0EFE  2EC2               	goto	l2960
  2976  0EFF                     u3850:
  2977  0EFF                     l2966:
  2978                           
  2979                           ;ADCEL3.c: 63:          x=a/mu;
  2980  0EFF  1683               	bsf	3,5	;RP0=1, select bank1
  2981  0F00  1303               	bcf	3,6	;RP1=0, select bank1
  2982  0F01  083A               	movf	convert@mu^(0+128),w
  2983  0F02  1283               	bcf	3,5	;RP0=0, select bank0
  2984  0F03  1303               	bcf	3,6	;RP1=0, select bank0
  2985  0F04  00B1               	movwf	___xxtofl@val
  2986  0F05  1683               	bsf	3,5	;RP0=1, select bank1
  2987  0F06  1303               	bcf	3,6	;RP1=0, select bank1
  2988  0F07  083B               	movf	(convert@mu+1)^(0+128),w
  2989  0F08  1283               	bcf	3,5	;RP0=0, select bank0
  2990  0F09  1303               	bcf	3,6	;RP1=0, select bank0
  2991  0F0A  00B2               	movwf	___xxtofl@val+1
  2992  0F0B  3000               	movlw	0
  2993  0F0C  1BB2               	btfsc	___xxtofl@val+1,7
  2994  0F0D  30FF               	movlw	255
  2995  0F0E  00B3               	movwf	___xxtofl@val+2
  2996  0F0F  00B4               	movwf	___xxtofl@val+3
  2997  0F10  3001               	movlw	1
  2998  0F11  120A  158A  207A  120A  158A  	fcall	___xxtofl
  2999  0F16  1283               	bcf	3,5	;RP0=0, select bank0
  3000  0F17  1303               	bcf	3,6	;RP1=0, select bank0
  3001  0F18  0834               	movf	?___xxtofl+3,w
  3002  0F19  00C2               	movwf	___fldiv@a+3
  3003  0F1A  0833               	movf	?___xxtofl+2,w
  3004  0F1B  00C1               	movwf	___fldiv@a+2
  3005  0F1C  0832               	movf	?___xxtofl+1,w
  3006  0F1D  00C0               	movwf	___fldiv@a+1
  3007  0F1E  0831               	movf	?___xxtofl,w
  3008  0F1F  00BF               	movwf	___fldiv@a
  3009  0F20  0869               	movf	convert@a+3,w
  3010  0F21  00C6               	movwf	___fldiv@b+3
  3011  0F22  0868               	movf	convert@a+2,w
  3012  0F23  00C5               	movwf	___fldiv@b+2
  3013  0F24  0867               	movf	convert@a+1,w
  3014  0F25  00C4               	movwf	___fldiv@b+1
  3015  0F26  0866               	movf	convert@a,w
  3016  0F27  00C3               	movwf	___fldiv@b
  3017  0F28  120A  118A  257F  120A  158A  	fcall	___fldiv
  3018  0F2D  1283               	bcf	3,5	;RP0=0, select bank0
  3019  0F2E  1303               	bcf	3,6	;RP1=0, select bank0
  3020  0F2F  0842               	movf	?___fldiv+3,w
  3021  0F30  1683               	bsf	3,5	;RP0=1, select bank1
  3022  0F31  1303               	bcf	3,6	;RP1=0, select bank1
  3023  0F32  00B5               	movwf	(convert@x+3)^(0+128)
  3024  0F33  1283               	bcf	3,5	;RP0=0, select bank0
  3025  0F34  1303               	bcf	3,6	;RP1=0, select bank0
  3026  0F35  0841               	movf	?___fldiv+2,w
  3027  0F36  1683               	bsf	3,5	;RP0=1, select bank1
  3028  0F37  1303               	bcf	3,6	;RP1=0, select bank1
  3029  0F38  00B4               	movwf	(convert@x+2)^(0+128)
  3030  0F39  1283               	bcf	3,5	;RP0=0, select bank0
  3031  0F3A  1303               	bcf	3,6	;RP1=0, select bank0
  3032  0F3B  0840               	movf	?___fldiv+1,w
  3033  0F3C  1683               	bsf	3,5	;RP0=1, select bank1
  3034  0F3D  1303               	bcf	3,6	;RP1=0, select bank1
  3035  0F3E  00B3               	movwf	(convert@x+1)^(0+128)
  3036  0F3F  1283               	bcf	3,5	;RP0=0, select bank0
  3037  0F40  1303               	bcf	3,6	;RP1=0, select bank0
  3038  0F41  083F               	movf	?___fldiv,w
  3039  0F42  1683               	bsf	3,5	;RP0=1, select bank1
  3040  0F43  1303               	bcf	3,6	;RP1=0, select bank1
  3041  0F44  00B2               	movwf	convert@x^(0+128)
  3042                           
  3043                           ;ADCEL3.c: 64:          a=a-((int)x*mu);
  3044  0F45  083B               	movf	(convert@mu+1)^(0+128),w
  3045  0F46  1283               	bcf	3,5	;RP0=0, select bank0
  3046  0F47  1303               	bcf	3,6	;RP1=0, select bank0
  3047  0F48  00AE               	movwf	___wmul@multiplicand+1
  3048  0F49  1683               	bsf	3,5	;RP0=1, select bank1
  3049  0F4A  1303               	bcf	3,6	;RP1=0, select bank1
  3050  0F4B  083A               	movf	convert@mu^(0+128),w
  3051  0F4C  1283               	bcf	3,5	;RP0=0, select bank0
  3052  0F4D  1303               	bcf	3,6	;RP1=0, select bank0
  3053  0F4E  00AD               	movwf	___wmul@multiplicand
  3054  0F4F  1683               	bsf	3,5	;RP0=1, select bank1
  3055  0F50  1303               	bcf	3,6	;RP1=0, select bank1
  3056  0F51  0835               	movf	(convert@x+3)^(0+128),w
  3057  0F52  1283               	bcf	3,5	;RP0=0, select bank0
  3058  0F53  1303               	bcf	3,6	;RP1=0, select bank0
  3059  0F54  00A3               	movwf	___fltol@f1+3
  3060  0F55  1683               	bsf	3,5	;RP0=1, select bank1
  3061  0F56  1303               	bcf	3,6	;RP1=0, select bank1
  3062  0F57  0834               	movf	(convert@x+2)^(0+128),w
  3063  0F58  1283               	bcf	3,5	;RP0=0, select bank0
  3064  0F59  1303               	bcf	3,6	;RP1=0, select bank0
  3065  0F5A  00A2               	movwf	___fltol@f1+2
  3066  0F5B  1683               	bsf	3,5	;RP0=1, select bank1
  3067  0F5C  1303               	bcf	3,6	;RP1=0, select bank1
  3068  0F5D  0833               	movf	(convert@x+1)^(0+128),w
  3069  0F5E  1283               	bcf	3,5	;RP0=0, select bank0
  3070  0F5F  1303               	bcf	3,6	;RP1=0, select bank0
  3071  0F60  00A1               	movwf	___fltol@f1+1
  3072  0F61  1683               	bsf	3,5	;RP0=1, select bank1
  3073  0F62  1303               	bcf	3,6	;RP1=0, select bank1
  3074  0F63  0832               	movf	convert@x^(0+128),w
  3075  0F64  1283               	bcf	3,5	;RP0=0, select bank0
  3076  0F65  1303               	bcf	3,6	;RP1=0, select bank0
  3077  0F66  00A0               	movwf	___fltol@f1
  3078  0F67  160A  118A  2541  120A  158A  	fcall	___fltol
  3079  0F6C  1283               	bcf	3,5	;RP0=0, select bank0
  3080  0F6D  1303               	bcf	3,6	;RP1=0, select bank0
  3081  0F6E  0821               	movf	?___fltol+1,w
  3082  0F6F  00AC               	movwf	___wmul@multiplier+1
  3083  0F70  0820               	movf	?___fltol,w
  3084  0F71  00AB               	movwf	___wmul@multiplier
  3085  0F72  160A  118A  21F6  120A  158A  	fcall	___wmul
  3086  0F77  1283               	bcf	3,5	;RP0=0, select bank0
  3087  0F78  1303               	bcf	3,6	;RP1=0, select bank0
  3088  0F79  082B               	movf	?___wmul,w
  3089  0F7A  00B1               	movwf	___xxtofl@val
  3090  0F7B  082C               	movf	?___wmul+1,w
  3091  0F7C  00B2               	movwf	___xxtofl@val+1
  3092  0F7D  3000               	movlw	0
  3093  0F7E  1BB2               	btfsc	___xxtofl@val+1,7
  3094  0F7F  30FF               	movlw	255
  3095  0F80  00B3               	movwf	___xxtofl@val+2
  3096  0F81  00B4               	movwf	___xxtofl@val+3
  3097  0F82  3001               	movlw	1
  3098  0F83  120A  158A  207A  120A  158A  	fcall	___xxtofl
  3099  0F88  1283               	bcf	3,5	;RP0=0, select bank0
  3100  0F89  1303               	bcf	3,6	;RP1=0, select bank0
  3101  0F8A  0834               	movf	?___xxtofl+3,w
  3102  0F8B  00C2               	movwf	___flsub@a+3
  3103  0F8C  0833               	movf	?___xxtofl+2,w
  3104  0F8D  00C1               	movwf	___flsub@a+2
  3105  0F8E  0832               	movf	?___xxtofl+1,w
  3106  0F8F  00C0               	movwf	___flsub@a+1
  3107  0F90  0831               	movf	?___xxtofl,w
  3108  0F91  00BF               	movwf	___flsub@a
  3109  0F92  0869               	movf	convert@a+3,w
  3110  0F93  00C6               	movwf	___flsub@b+3
  3111  0F94  0868               	movf	convert@a+2,w
  3112  0F95  00C5               	movwf	___flsub@b+2
  3113  0F96  0867               	movf	convert@a+1,w
  3114  0F97  00C4               	movwf	___flsub@b+1
  3115  0F98  0866               	movf	convert@a,w
  3116  0F99  00C3               	movwf	___flsub@b
  3117  0F9A  160A  118A  21D2  120A  158A  	fcall	___flsub
  3118  0F9F  1283               	bcf	3,5	;RP0=0, select bank0
  3119  0FA0  1303               	bcf	3,6	;RP1=0, select bank0
  3120  0FA1  0842               	movf	?___flsub+3,w
  3121  0FA2  00E9               	movwf	convert@a+3
  3122  0FA3  0841               	movf	?___flsub+2,w
  3123  0FA4  00E8               	movwf	convert@a+2
  3124  0FA5  0840               	movf	?___flsub+1,w
  3125  0FA6  00E7               	movwf	convert@a+1
  3126  0FA7  083F               	movf	?___flsub,w
  3127  0FA8  00E6               	movwf	convert@a
  3128  0FA9                     l2968:
  3129                           
  3130                           ;ADCEL3.c: 65:          data[i]=0x30+((int)x);
  3131  0FA9  1683               	bsf	3,5	;RP0=1, select bank1
  3132  0FAA  1303               	bcf	3,6	;RP1=0, select bank1
  3133  0FAB  0835               	movf	(convert@x+3)^(0+128),w
  3134  0FAC  1283               	bcf	3,5	;RP0=0, select bank0
  3135  0FAD  1303               	bcf	3,6	;RP1=0, select bank0
  3136  0FAE  00A3               	movwf	___fltol@f1+3
  3137  0FAF  1683               	bsf	3,5	;RP0=1, select bank1
  3138  0FB0  1303               	bcf	3,6	;RP1=0, select bank1
  3139  0FB1  0834               	movf	(convert@x+2)^(0+128),w
  3140  0FB2  1283               	bcf	3,5	;RP0=0, select bank0
  3141  0FB3  1303               	bcf	3,6	;RP1=0, select bank0
  3142  0FB4  00A2               	movwf	___fltol@f1+2
  3143  0FB5  1683               	bsf	3,5	;RP0=1, select bank1
  3144  0FB6  1303               	bcf	3,6	;RP1=0, select bank1
  3145  0FB7  0833               	movf	(convert@x+1)^(0+128),w
  3146  0FB8  1283               	bcf	3,5	;RP0=0, select bank0
  3147  0FB9  1303               	bcf	3,6	;RP1=0, select bank0
  3148  0FBA  00A1               	movwf	___fltol@f1+1
  3149  0FBB  1683               	bsf	3,5	;RP0=1, select bank1
  3150  0FBC  1303               	bcf	3,6	;RP1=0, select bank1
  3151  0FBD  0832               	movf	convert@x^(0+128),w
  3152  0FBE  1283               	bcf	3,5	;RP0=0, select bank0
  3153  0FBF  1303               	bcf	3,6	;RP1=0, select bank0
  3154  0FC0  00A0               	movwf	___fltol@f1
  3155  0FC1  160A  118A  2541  120A  158A  	fcall	___fltol
  3156  0FC6  1283               	bcf	3,5	;RP0=0, select bank0
  3157  0FC7  1303               	bcf	3,6	;RP1=0, select bank0
  3158  0FC8  0820               	movf	?___fltol,w
  3159  0FC9  3E30               	addlw	48
  3160  0FCA  00EC               	movwf	??_convert
  3161  0FCB  1683               	bsf	3,5	;RP0=1, select bank1
  3162  0FCC  1303               	bcf	3,6	;RP1=0, select bank1
  3163  0FCD  0836               	movf	convert@i^(0+128),w
  3164  0FCE  0731               	addwf	convert@data^(0+128),w
  3165  0FCF  1283               	bcf	3,5	;RP0=0, select bank0
  3166  0FD0  1303               	bcf	3,6	;RP1=0, select bank0
  3167  0FD1  00ED               	movwf	??_convert+1
  3168  0FD2  086D               	movf	??_convert+1,w
  3169  0FD3  0084               	movwf	4
  3170  0FD4  086C               	movf	??_convert,w
  3171  0FD5  1383               	bcf	3,7	;select IRP bank0
  3172  0FD6  0080               	movwf	0
  3173  0FD7                     l2970:
  3174                           
  3175                           ;ADCEL3.c: 66:          i++;
  3176  0FD7  3001               	movlw	1
  3177  0FD8  1683               	bsf	3,5	;RP0=1, select bank1
  3178  0FD9  1303               	bcf	3,6	;RP1=0, select bank1
  3179  0FDA  07B6               	addwf	convert@i^(0+128),f
  3180  0FDB  1803               	skipnc
  3181  0FDC  0AB7               	incf	(convert@i+1)^(0+128),f
  3182  0FDD  3000               	movlw	0
  3183  0FDE  07B7               	addwf	(convert@i+1)^(0+128),f
  3184  0FDF                     l2972:
  3185                           
  3186                           ;ADCEL3.c: 67:          digits--;
  3187  0FDF  30FF               	movlw	255
  3188  0FE0  07B8               	addwf	convert@digits^(0+128),f
  3189  0FE1  1803               	skipnc
  3190  0FE2  0AB9               	incf	(convert@digits+1)^(0+128),f
  3191  0FE3  30FF               	movlw	255
  3192  0FE4  07B9               	addwf	(convert@digits+1)^(0+128),f
  3193  0FE5                     l2974:
  3194                           
  3195                           ;ADCEL3.c: 68:          mu=1;
  3196  0FE5  3001               	movlw	1
  3197  0FE6  00BA               	movwf	convert@mu^(0+128)
  3198  0FE7  3000               	movlw	0
  3199  0FE8  00BB               	movwf	(convert@mu^(0+128)+1)
  3200  0FE9                     l2976:
  3201                           
  3202                           ;ADCEL3.c: 58:      while(digits!=0)
  3203  0FE9  0838               	movf	convert@digits^(0+128),w
  3204  0FEA  0439               	iorwf	(convert@digits+1)^(0+128),w
  3205  0FEB  1D03               	btfss	3,2
  3206  0FEC  2FEE               	goto	u3861
  3207  0FED  2FEF               	goto	u3860
  3208  0FEE                     u3861:
  3209  0FEE  2EB2               	goto	l2954
  3210  0FEF                     u3860:
  3211  0FEF                     l2978:
  3212                           
  3213                           ;ADCEL3.c: 71:     data[i]='\n';
  3214  0FEF  300A               	movlw	10
  3215  0FF0  1283               	bcf	3,5	;RP0=0, select bank0
  3216  0FF1  1303               	bcf	3,6	;RP1=0, select bank0
  3217  0FF2  00EC               	movwf	??_convert
  3218  0FF3  1683               	bsf	3,5	;RP0=1, select bank1
  3219  0FF4  1303               	bcf	3,6	;RP1=0, select bank1
  3220  0FF5  0836               	movf	convert@i^(0+128),w
  3221  0FF6  0731               	addwf	convert@data^(0+128),w
  3222  0FF7  1283               	bcf	3,5	;RP0=0, select bank0
  3223  0FF8  1303               	bcf	3,6	;RP1=0, select bank0
  3224  0FF9  00ED               	movwf	??_convert+1
  3225  0FFA  086D               	movf	??_convert+1,w
  3226  0FFB  0084               	movwf	4
  3227  0FFC  086C               	movf	??_convert,w
  3228  0FFD  1383               	bcf	3,7	;select IRP bank0
  3229  0FFE  0080               	movwf	0
  3230  0FFF                     l230:
  3231  0FFF  0008               	return
  3232  1000                     __end_of_convert:
  3233                           
  3234                           	psect	text4
  3235  087A                     __ptext4:	
  3236 ;; *************** function ___xxtofl *****************
  3237 ;; Defined at:
  3238 ;;		line 10 in file "C:\Program Files\Microchip\xc8\v2.32\pic\sources\c90\common\xxtofl.c"
  3239 ;; Parameters:    Size  Location     Type
  3240 ;;  sign            1    wreg     unsigned char 
  3241 ;;  val             4   17[BANK0 ] long 
  3242 ;; Auto vars:     Size  Location     Type
  3243 ;;  sign            1   25[BANK0 ] unsigned char 
  3244 ;;  arg             4   27[BANK0 ] unsigned long 
  3245 ;;  exp             1   26[BANK0 ] unsigned char 
  3246 ;; Return value:  Size  Location     Type
  3247 ;;                  4   17[BANK0 ] unsigned char 
  3248 ;; Registers used:
  3249 ;;		wreg, status,2, status,0
  3250 ;; Tracked objects:
  3251 ;;		On entry : 0/0
  3252 ;;		On exit  : 0/0
  3253 ;;		Unchanged: 0/0
  3254 ;; Data sizes:     COMMON   BANK0   BANK1   BANK3   BANK2
  3255 ;;      Params:         0       4       0       0       0
  3256 ;;      Locals:         0       6       0       0       0
  3257 ;;      Temps:          0       4       0       0       0
  3258 ;;      Totals:         0      14       0       0       0
  3259 ;;Total ram usage:       14 bytes
  3260 ;; Hardware stack levels used: 1
  3261 ;; Hardware stack levels required when called: 3
  3262 ;; This function calls:
  3263 ;;		Nothing
  3264 ;; This function is called by:
  3265 ;;		_main
  3266 ;;		_convert
  3267 ;; This function uses a non-reentrant model
  3268 ;;
  3269                           
  3270                           
  3271                           ;psect for function ___xxtofl
  3272  087A                     ___xxtofl:
  3273                           
  3274                           ;incstack = 0
  3275                           ; Regs used in ___xxtofl: [wreg+status,2+status,0]
  3276                           ;___xxtofl@sign stored from wreg
  3277  087A  1283               	bcf	3,5	;RP0=0, select bank0
  3278  087B  1303               	bcf	3,6	;RP1=0, select bank0
  3279  087C  00B9               	movwf	___xxtofl@sign
  3280  087D                     l2722:
  3281  087D  0839               	movf	___xxtofl@sign,w
  3282  087E  1903               	btfsc	3,2
  3283  087F  2881               	goto	u3591
  3284  0880  2882               	goto	u3590
  3285  0881                     u3591:
  3286  0881  2896               	goto	l2728
  3287  0882                     u3590:
  3288  0882                     l2724:
  3289  0882  1FB4               	btfss	___xxtofl@val+3,7
  3290  0883  2885               	goto	u3601
  3291  0884  2886               	goto	u3600
  3292  0885                     u3601:
  3293  0885  2896               	goto	l2728
  3294  0886                     u3600:
  3295  0886                     l2726:
  3296  0886  0931               	comf	___xxtofl@val,w
  3297  0887  00BB               	movwf	___xxtofl@arg
  3298  0888  0932               	comf	___xxtofl@val+1,w
  3299  0889  00BC               	movwf	___xxtofl@arg+1
  3300  088A  0933               	comf	___xxtofl@val+2,w
  3301  088B  00BD               	movwf	___xxtofl@arg+2
  3302  088C  0934               	comf	___xxtofl@val+3,w
  3303  088D  00BE               	movwf	___xxtofl@arg+3
  3304  088E  0ABB               	incf	___xxtofl@arg,f
  3305  088F  1903               	skipnz
  3306  0890  0ABC               	incf	___xxtofl@arg+1,f
  3307  0891  1903               	skipnz
  3308  0892  0ABD               	incf	___xxtofl@arg+2,f
  3309  0893  1903               	skipnz
  3310  0894  0ABE               	incf	___xxtofl@arg+3,f
  3311  0895  289E               	goto	l807
  3312  0896                     l2728:
  3313  0896  0834               	movf	___xxtofl@val+3,w
  3314  0897  00BE               	movwf	___xxtofl@arg+3
  3315  0898  0833               	movf	___xxtofl@val+2,w
  3316  0899  00BD               	movwf	___xxtofl@arg+2
  3317  089A  0832               	movf	___xxtofl@val+1,w
  3318  089B  00BC               	movwf	___xxtofl@arg+1
  3319  089C  0831               	movf	___xxtofl@val,w
  3320  089D  00BB               	movwf	___xxtofl@arg
  3321  089E                     l807:
  3322  089E  0834               	movf	___xxtofl@val+3,w
  3323  089F  0433               	iorwf	___xxtofl@val+2,w
  3324  08A0  0432               	iorwf	___xxtofl@val+1,w
  3325  08A1  0431               	iorwf	___xxtofl@val,w
  3326  08A2  1D03               	skipz
  3327  08A3  28A5               	goto	u3611
  3328  08A4  28A6               	goto	u3610
  3329  08A5                     u3611:
  3330  08A5  28AF               	goto	l2734
  3331  08A6                     u3610:
  3332  08A6                     l2730:
  3333  08A6  3000               	movlw	0
  3334  08A7  00B4               	movwf	?___xxtofl+3
  3335  08A8  3000               	movlw	0
  3336  08A9  00B3               	movwf	?___xxtofl+2
  3337  08AA  3000               	movlw	0
  3338  08AB  00B2               	movwf	?___xxtofl+1
  3339  08AC  3000               	movlw	0
  3340  08AD  00B1               	movwf	?___xxtofl
  3341  08AE  2935               	goto	l809
  3342  08AF                     l2734:
  3343  08AF  3096               	movlw	150
  3344  08B0  00B5               	movwf	??___xxtofl
  3345  08B1  0835               	movf	??___xxtofl,w
  3346  08B2  00BA               	movwf	___xxtofl@exp
  3347  08B3  28C1               	goto	l2738
  3348  08B4                     l2736:
  3349  08B4  3001               	movlw	1
  3350  08B5  00B5               	movwf	??___xxtofl
  3351  08B6  0835               	movf	??___xxtofl,w
  3352  08B7  07BA               	addwf	___xxtofl@exp,f
  3353  08B8  3001               	movlw	1
  3354  08B9                     u3625:
  3355  08B9  1003               	clrc
  3356  08BA  0CBE               	rrf	___xxtofl@arg+3,f
  3357  08BB  0CBD               	rrf	___xxtofl@arg+2,f
  3358  08BC  0CBC               	rrf	___xxtofl@arg+1,f
  3359  08BD  0CBB               	rrf	___xxtofl@arg,f
  3360  08BE  3EFF               	addlw	-1
  3361  08BF  1D03               	skipz
  3362  08C0  28B9               	goto	u3625
  3363  08C1                     l2738:
  3364  08C1  30FE               	movlw	254
  3365  08C2  053E               	andwf	___xxtofl@arg+3,w
  3366  08C3  1D03               	btfss	3,2
  3367  08C4  28C6               	goto	u3631
  3368  08C5  28C7               	goto	u3630
  3369  08C6                     u3631:
  3370  08C6  28B4               	goto	l2736
  3371  08C7                     u3630:
  3372  08C7  28E3               	goto	l813
  3373  08C8                     l2740:
  3374  08C8  3001               	movlw	1
  3375  08C9  00B5               	movwf	??___xxtofl
  3376  08CA  0835               	movf	??___xxtofl,w
  3377  08CB  07BA               	addwf	___xxtofl@exp,f
  3378  08CC                     l2742:
  3379  08CC  3001               	movlw	1
  3380  08CD  07BB               	addwf	___xxtofl@arg,f
  3381  08CE  3000               	movlw	0
  3382  08CF  1803               	skipnc
  3383  08D0  3001               	movlw	1
  3384  08D1  07BC               	addwf	___xxtofl@arg+1,f
  3385  08D2  3000               	movlw	0
  3386  08D3  1803               	skipnc
  3387  08D4  3001               	movlw	1
  3388  08D5  07BD               	addwf	___xxtofl@arg+2,f
  3389  08D6  3000               	movlw	0
  3390  08D7  1803               	skipnc
  3391  08D8  3001               	movlw	1
  3392  08D9  07BE               	addwf	___xxtofl@arg+3,f
  3393  08DA                     l2744:
  3394  08DA  3001               	movlw	1
  3395  08DB                     u3645:
  3396  08DB  1003               	clrc
  3397  08DC  0CBE               	rrf	___xxtofl@arg+3,f
  3398  08DD  0CBD               	rrf	___xxtofl@arg+2,f
  3399  08DE  0CBC               	rrf	___xxtofl@arg+1,f
  3400  08DF  0CBB               	rrf	___xxtofl@arg,f
  3401  08E0  3EFF               	addlw	-1
  3402  08E1  1D03               	skipz
  3403  08E2  28DB               	goto	u3645
  3404  08E3                     l813:
  3405  08E3  30FF               	movlw	255
  3406  08E4  053E               	andwf	___xxtofl@arg+3,w
  3407  08E5  1D03               	btfss	3,2
  3408  08E6  28E8               	goto	u3651
  3409  08E7  28E9               	goto	u3650
  3410  08E8                     u3651:
  3411  08E8  28C8               	goto	l2740
  3412  08E9                     u3650:
  3413  08E9  28F5               	goto	l2748
  3414  08EA                     l2746:
  3415  08EA  3001               	movlw	1
  3416  08EB  02BA               	subwf	___xxtofl@exp,f
  3417  08EC  3001               	movlw	1
  3418  08ED  00B5               	movwf	??___xxtofl
  3419  08EE                     u3665:
  3420  08EE  1003               	clrc
  3421  08EF  0DBB               	rlf	___xxtofl@arg,f
  3422  08F0  0DBC               	rlf	___xxtofl@arg+1,f
  3423  08F1  0DBD               	rlf	___xxtofl@arg+2,f
  3424  08F2  0DBE               	rlf	___xxtofl@arg+3,f
  3425  08F3  0BB5               	decfsz	??___xxtofl,f
  3426  08F4  28EE               	goto	u3665
  3427  08F5                     l2748:
  3428  08F5  1BBD               	btfsc	___xxtofl@arg+2,7
  3429  08F6  28F8               	goto	u3671
  3430  08F7  28F9               	goto	u3670
  3431  08F8                     u3671:
  3432  08F8  28FF               	goto	l820
  3433  08F9                     u3670:
  3434  08F9                     l2750:
  3435  08F9  3002               	movlw	2
  3436  08FA  023A               	subwf	___xxtofl@exp,w
  3437  08FB  1803               	skipnc
  3438  08FC  28FE               	goto	u3681
  3439  08FD  28FF               	goto	u3680
  3440  08FE                     u3681:
  3441  08FE  28EA               	goto	l2746
  3442  08FF                     u3680:
  3443  08FF                     l820:
  3444  08FF  183A               	btfsc	___xxtofl@exp,0
  3445  0900  2902               	goto	u3691
  3446  0901  2903               	goto	u3690
  3447  0902                     u3691:
  3448  0902  290B               	goto	l821
  3449  0903                     u3690:
  3450  0903                     l2752:
  3451  0903  30FF               	movlw	255
  3452  0904  05BB               	andwf	___xxtofl@arg,f
  3453  0905  30FF               	movlw	255
  3454  0906  05BC               	andwf	___xxtofl@arg+1,f
  3455  0907  307F               	movlw	127
  3456  0908  05BD               	andwf	___xxtofl@arg+2,f
  3457  0909  30FF               	movlw	255
  3458  090A  05BE               	andwf	___xxtofl@arg+3,f
  3459  090B                     l821:
  3460  090B  1003               	clrc
  3461  090C  0CBA               	rrf	___xxtofl@exp,f
  3462  090D                     l2754:
  3463  090D  083A               	movf	___xxtofl@exp,w
  3464  090E  00B5               	movwf	??___xxtofl
  3465  090F  01B6               	clrf	??___xxtofl+1
  3466  0910  01B7               	clrf	??___xxtofl+2
  3467  0911  01B8               	clrf	??___xxtofl+3
  3468  0912  3018               	movlw	24
  3469  0913                     u3705:
  3470  0913  1003               	clrc
  3471  0914  0DB5               	rlf	??___xxtofl,f
  3472  0915  0DB6               	rlf	??___xxtofl+1,f
  3473  0916  0DB7               	rlf	??___xxtofl+2,f
  3474  0917  0DB8               	rlf	??___xxtofl+3,f
  3475  0918                     u3700:
  3476  0918  3EFF               	addlw	-1
  3477  0919  1D03               	skipz
  3478  091A  2913               	goto	u3705
  3479  091B  0835               	movf	??___xxtofl,w
  3480  091C  04BB               	iorwf	___xxtofl@arg,f
  3481  091D  0836               	movf	??___xxtofl+1,w
  3482  091E  04BC               	iorwf	___xxtofl@arg+1,f
  3483  091F  0837               	movf	??___xxtofl+2,w
  3484  0920  04BD               	iorwf	___xxtofl@arg+2,f
  3485  0921  0838               	movf	??___xxtofl+3,w
  3486  0922  04BE               	iorwf	___xxtofl@arg+3,f
  3487  0923                     l2756:
  3488  0923  0839               	movf	___xxtofl@sign,w
  3489  0924  1903               	btfsc	3,2
  3490  0925  2927               	goto	u3711
  3491  0926  2928               	goto	u3710
  3492  0927                     u3711:
  3493  0927  292D               	goto	l2762
  3494  0928                     u3710:
  3495  0928                     l2758:
  3496  0928  1FB4               	btfss	___xxtofl@val+3,7
  3497  0929  292B               	goto	u3721
  3498  092A  292C               	goto	u3720
  3499  092B                     u3721:
  3500  092B  292D               	goto	l2762
  3501  092C                     u3720:
  3502  092C                     l2760:
  3503  092C  17BE               	bsf	___xxtofl@arg+3,7
  3504  092D                     l2762:
  3505  092D  083E               	movf	___xxtofl@arg+3,w
  3506  092E  00B4               	movwf	?___xxtofl+3
  3507  092F  083D               	movf	___xxtofl@arg+2,w
  3508  0930  00B3               	movwf	?___xxtofl+2
  3509  0931  083C               	movf	___xxtofl@arg+1,w
  3510  0932  00B2               	movwf	?___xxtofl+1
  3511  0933  083B               	movf	___xxtofl@arg,w
  3512  0934  00B1               	movwf	?___xxtofl
  3513  0935                     l809:
  3514  0935  0008               	return
  3515  0936                     __end_of___xxtofl:
  3516                           
  3517                           	psect	text5
  3518  11F6                     __ptext5:	
  3519 ;; *************** function ___wmul *****************
  3520 ;; Defined at:
  3521 ;;		line 15 in file "C:\Program Files\Microchip\xc8\v2.32\pic\sources\c90\common\Umul16.c"
  3522 ;; Parameters:    Size  Location     Type
  3523 ;;  multiplier      2   11[BANK0 ] unsigned int 
  3524 ;;  multiplicand    2   13[BANK0 ] unsigned int 
  3525 ;; Auto vars:     Size  Location     Type
  3526 ;;  product         2   15[BANK0 ] unsigned int 
  3527 ;; Return value:  Size  Location     Type
  3528 ;;                  2   11[BANK0 ] unsigned int 
  3529 ;; Registers used:
  3530 ;;		wreg, status,2, status,0
  3531 ;; Tracked objects:
  3532 ;;		On entry : 0/0
  3533 ;;		On exit  : 0/0
  3534 ;;		Unchanged: 0/0
  3535 ;; Data sizes:     COMMON   BANK0   BANK1   BANK3   BANK2
  3536 ;;      Params:         0       4       0       0       0
  3537 ;;      Locals:         0       2       0       0       0
  3538 ;;      Temps:          0       0       0       0       0
  3539 ;;      Totals:         0       6       0       0       0
  3540 ;;Total ram usage:        6 bytes
  3541 ;; Hardware stack levels used: 1
  3542 ;; Hardware stack levels required when called: 3
  3543 ;; This function calls:
  3544 ;;		Nothing
  3545 ;; This function is called by:
  3546 ;;		_convert
  3547 ;; This function uses a non-reentrant model
  3548 ;;
  3549                           
  3550                           
  3551                           ;psect for function ___wmul
  3552  11F6                     ___wmul:
  3553  11F6                     l2296:	
  3554                           ;incstack = 0
  3555                           ; Regs used in ___wmul: [wreg+status,2+status,0]
  3556                           
  3557  11F6  1283               	bcf	3,5	;RP0=0, select bank0
  3558  11F7  1303               	bcf	3,6	;RP1=0, select bank0
  3559  11F8  01AF               	clrf	___wmul@product
  3560  11F9  01B0               	clrf	___wmul@product+1
  3561  11FA                     l2298:
  3562  11FA  1C2B               	btfss	___wmul@multiplier,0
  3563  11FB  29FD               	goto	u2551
  3564  11FC  29FE               	goto	u2550
  3565  11FD                     u2551:
  3566  11FD  2A04               	goto	l374
  3567  11FE                     u2550:
  3568  11FE                     l2300:
  3569  11FE  082D               	movf	___wmul@multiplicand,w
  3570  11FF  07AF               	addwf	___wmul@product,f
  3571  1200  1803               	skipnc
  3572  1201  0AB0               	incf	___wmul@product+1,f
  3573  1202  082E               	movf	___wmul@multiplicand+1,w
  3574  1203  07B0               	addwf	___wmul@product+1,f
  3575  1204                     l374:
  3576  1204  3001               	movlw	1
  3577  1205                     u2565:
  3578  1205  1003               	clrc
  3579  1206  0DAD               	rlf	___wmul@multiplicand,f
  3580  1207  0DAE               	rlf	___wmul@multiplicand+1,f
  3581  1208  3EFF               	addlw	-1
  3582  1209  1D03               	skipz
  3583  120A  2A05               	goto	u2565
  3584  120B                     l2302:
  3585  120B  3001               	movlw	1
  3586  120C                     u2575:
  3587  120C  1003               	clrc
  3588  120D  0CAC               	rrf	___wmul@multiplier+1,f
  3589  120E  0CAB               	rrf	___wmul@multiplier,f
  3590  120F  3EFF               	addlw	-1
  3591  1210  1D03               	skipz
  3592  1211  2A0C               	goto	u2575
  3593  1212                     l2304:
  3594  1212  082B               	movf	___wmul@multiplier,w
  3595  1213  042C               	iorwf	___wmul@multiplier+1,w
  3596  1214  1D03               	btfss	3,2
  3597  1215  2A17               	goto	u2581
  3598  1216  2A18               	goto	u2580
  3599  1217                     u2581:
  3600  1217  29FA               	goto	l2298
  3601  1218                     u2580:
  3602  1218                     l2306:
  3603  1218  0830               	movf	___wmul@product+1,w
  3604  1219  00AC               	movwf	?___wmul+1
  3605  121A  082F               	movf	___wmul@product,w
  3606  121B  00AB               	movwf	?___wmul
  3607  121C                     l376:
  3608  121C  0008               	return
  3609  121D                     __end_of___wmul:
  3610                           
  3611                           	psect	text6
  3612  1541                     __ptext6:	
  3613 ;; *************** function ___fltol *****************
  3614 ;; Defined at:
  3615 ;;		line 43 in file "C:\Program Files\Microchip\xc8\v2.32\pic\sources\c90\common\fltol.c"
  3616 ;; Parameters:    Size  Location     Type
  3617 ;;  f1              4    0[BANK0 ] unsigned int 
  3618 ;; Auto vars:     Size  Location     Type
  3619 ;;  exp1            1   10[BANK0 ] unsigned char 
  3620 ;;  sign1           1    9[BANK0 ] unsigned char 
  3621 ;; Return value:  Size  Location     Type
  3622 ;;                  4    0[BANK0 ] long 
  3623 ;; Registers used:
  3624 ;;		wreg, status,2, status,0
  3625 ;; Tracked objects:
  3626 ;;		On entry : 0/0
  3627 ;;		On exit  : 0/0
  3628 ;;		Unchanged: 0/0
  3629 ;; Data sizes:     COMMON   BANK0   BANK1   BANK3   BANK2
  3630 ;;      Params:         0       4       0       0       0
  3631 ;;      Locals:         0       2       0       0       0
  3632 ;;      Temps:          0       5       0       0       0
  3633 ;;      Totals:         0      11       0       0       0
  3634 ;;Total ram usage:       11 bytes
  3635 ;; Hardware stack levels used: 1
  3636 ;; Hardware stack levels required when called: 3
  3637 ;; This function calls:
  3638 ;;		Nothing
  3639 ;; This function is called by:
  3640 ;;		_convert
  3641 ;; This function uses a non-reentrant model
  3642 ;;
  3643                           
  3644                           
  3645                           ;psect for function ___fltol
  3646  1541                     ___fltol:
  3647  1541                     l2398:	
  3648                           ;incstack = 0
  3649                           ; Regs used in ___fltol: [wreg+status,2+status,0]
  3650                           
  3651  1541  1003               	clrc
  3652  1542  1283               	bcf	3,5	;RP0=0, select bank0
  3653  1543  1303               	bcf	3,6	;RP1=0, select bank0
  3654  1544  0D22               	rlf	___fltol@f1+2,w
  3655  1545  0D23               	rlf	___fltol@f1+3,w
  3656  1546  00A4               	movwf	??___fltol
  3657  1547  0824               	movf	??___fltol,w
  3658  1548  00AA               	movwf	___fltol@exp1
  3659  1549  082A               	movf	___fltol@exp1,w
  3660  154A  1D03               	btfss	3,2
  3661  154B  2D4D               	goto	u2831
  3662  154C  2D4E               	goto	u2830
  3663  154D                     u2831:
  3664  154D  2D57               	goto	l2404
  3665  154E                     u2830:
  3666  154E                     l2400:
  3667  154E  3000               	movlw	0
  3668  154F  00A3               	movwf	?___fltol+3
  3669  1550  3000               	movlw	0
  3670  1551  00A2               	movwf	?___fltol+2
  3671  1552  3000               	movlw	0
  3672  1553  00A1               	movwf	?___fltol+1
  3673  1554  3000               	movlw	0
  3674  1555  00A0               	movwf	?___fltol
  3675  1556  2DBC               	goto	l560
  3676  1557                     l2404:
  3677  1557  0820               	movf	___fltol@f1,w
  3678  1558  00A4               	movwf	??___fltol
  3679  1559  0821               	movf	___fltol@f1+1,w
  3680  155A  00A5               	movwf	??___fltol+1
  3681  155B  0822               	movf	___fltol@f1+2,w
  3682  155C  00A6               	movwf	??___fltol+2
  3683  155D  0823               	movf	___fltol@f1+3,w
  3684  155E  00A7               	movwf	??___fltol+3
  3685  155F  301F               	movlw	31
  3686  1560                     u2845:
  3687  1560  1003               	clrc
  3688  1561  0CA7               	rrf	??___fltol+3,f
  3689  1562  0CA6               	rrf	??___fltol+2,f
  3690  1563  0CA5               	rrf	??___fltol+1,f
  3691  1564  0CA4               	rrf	??___fltol,f
  3692  1565                     u2840:
  3693  1565  3EFF               	addlw	-1
  3694  1566  1D03               	skipz
  3695  1567  2D60               	goto	u2845
  3696  1568  0824               	movf	??___fltol,w
  3697  1569  00A8               	movwf	??___fltol+4
  3698  156A  0828               	movf	??___fltol+4,w
  3699  156B  00A9               	movwf	___fltol@sign1
  3700  156C                     l2406:
  3701  156C  17A2               	bsf	___fltol@f1+2,7
  3702  156D                     l2408:
  3703  156D  30FF               	movlw	255
  3704  156E  05A0               	andwf	___fltol@f1,f
  3705  156F  30FF               	movlw	255
  3706  1570  05A1               	andwf	___fltol@f1+1,f
  3707  1571  30FF               	movlw	255
  3708  1572  05A2               	andwf	___fltol@f1+2,f
  3709  1573  3000               	movlw	0
  3710  1574  05A3               	andwf	___fltol@f1+3,f
  3711  1575                     l2410:
  3712  1575  3096               	movlw	150
  3713  1576  02AA               	subwf	___fltol@exp1,f
  3714  1577                     l2412:
  3715  1577  1FAA               	btfss	___fltol@exp1,7
  3716  1578  2D7A               	goto	u2851
  3717  1579  2D7B               	goto	u2850
  3718  157A                     u2851:
  3719  157A  2D95               	goto	l2422
  3720  157B                     u2850:
  3721  157B                     l2414:
  3722  157B  082A               	movf	___fltol@exp1,w
  3723  157C  3A80               	xorlw	128
  3724  157D  3E97               	addlw	151
  3725  157E  1803               	skipnc
  3726  157F  2D81               	goto	u2861
  3727  1580  2D82               	goto	u2860
  3728  1581                     u2861:
  3729  1581  2D83               	goto	l2420
  3730  1582                     u2860:
  3731  1582  2D4E               	goto	l2400
  3732  1583                     l2420:
  3733  1583  3001               	movlw	1
  3734  1584                     u2875:
  3735  1584  1003               	clrc
  3736  1585  0CA3               	rrf	___fltol@f1+3,f
  3737  1586  0CA2               	rrf	___fltol@f1+2,f
  3738  1587  0CA1               	rrf	___fltol@f1+1,f
  3739  1588  0CA0               	rrf	___fltol@f1,f
  3740  1589  3EFF               	addlw	-1
  3741  158A  1D03               	skipz
  3742  158B  2D84               	goto	u2875
  3743  158C  3001               	movlw	1
  3744  158D  00A4               	movwf	??___fltol
  3745  158E  0824               	movf	??___fltol,w
  3746  158F  07AA               	addwf	___fltol@exp1,f
  3747  1590  1D03               	btfss	3,2
  3748  1591  2D93               	goto	u2881
  3749  1592  2D94               	goto	u2880
  3750  1593                     u2881:
  3751  1593  2D83               	goto	l2420
  3752  1594                     u2880:
  3753  1594  2DAC               	goto	l2430
  3754  1595                     l2422:
  3755  1595  3020               	movlw	32
  3756  1596  022A               	subwf	___fltol@exp1,w
  3757  1597  1C03               	skipc
  3758  1598  2D9A               	goto	u2891
  3759  1599  2D9B               	goto	u2890
  3760  159A                     u2891:
  3761  159A  2DA7               	goto	l567
  3762  159B                     u2890:
  3763  159B  2D4E               	goto	l2400
  3764  159C                     l2428:
  3765  159C  3001               	movlw	1
  3766  159D  00A4               	movwf	??___fltol
  3767  159E                     u2905:
  3768  159E  1003               	clrc
  3769  159F  0DA0               	rlf	___fltol@f1,f
  3770  15A0  0DA1               	rlf	___fltol@f1+1,f
  3771  15A1  0DA2               	rlf	___fltol@f1+2,f
  3772  15A2  0DA3               	rlf	___fltol@f1+3,f
  3773  15A3  0BA4               	decfsz	??___fltol,f
  3774  15A4  2D9E               	goto	u2905
  3775  15A5  3001               	movlw	1
  3776  15A6  02AA               	subwf	___fltol@exp1,f
  3777  15A7                     l567:
  3778  15A7  082A               	movf	___fltol@exp1,w
  3779  15A8  1D03               	btfss	3,2
  3780  15A9  2DAB               	goto	u2911
  3781  15AA  2DAC               	goto	u2910
  3782  15AB                     u2911:
  3783  15AB  2D9C               	goto	l2428
  3784  15AC                     u2910:
  3785  15AC                     l2430:
  3786  15AC  0829               	movf	___fltol@sign1,w
  3787  15AD  1903               	btfsc	3,2
  3788  15AE  2DB0               	goto	u2921
  3789  15AF  2DB1               	goto	u2920
  3790  15B0                     u2921:
  3791  15B0  2DBC               	goto	l570
  3792  15B1                     u2920:
  3793  15B1                     l2432:
  3794  15B1  09A0               	comf	___fltol@f1,f
  3795  15B2  09A1               	comf	___fltol@f1+1,f
  3796  15B3  09A2               	comf	___fltol@f1+2,f
  3797  15B4  09A3               	comf	___fltol@f1+3,f
  3798  15B5  0AA0               	incf	___fltol@f1,f
  3799  15B6  1903               	skipnz
  3800  15B7  0AA1               	incf	___fltol@f1+1,f
  3801  15B8  1903               	skipnz
  3802  15B9  0AA2               	incf	___fltol@f1+2,f
  3803  15BA  1903               	skipnz
  3804  15BB  0AA3               	incf	___fltol@f1+3,f
  3805  15BC                     l570:
  3806  15BC                     l560:
  3807  15BC  0008               	return
  3808  15BD                     __end_of___fltol:
  3809                           
  3810                           	psect	text7
  3811  11D2                     __ptext7:	
  3812 ;; *************** function ___flsub *****************
  3813 ;; Defined at:
  3814 ;;		line 242 in file "C:\Program Files\Microchip\xc8\v2.32\pic\sources\c90\common\sprcadd.c"
  3815 ;; Parameters:    Size  Location     Type
  3816 ;;  a               4   31[BANK0 ] long 
  3817 ;;  b               4   35[BANK0 ] long 
  3818 ;; Auto vars:     Size  Location     Type
  3819 ;;		None
  3820 ;; Return value:  Size  Location     Type
  3821 ;;                  4   31[BANK0 ] long 
  3822 ;; Registers used:
  3823 ;;		wreg, status,2, status,0, btemp+1, pclath, cstack
  3824 ;; Tracked objects:
  3825 ;;		On entry : 0/0
  3826 ;;		On exit  : 0/0
  3827 ;;		Unchanged: 0/0
  3828 ;; Data sizes:     COMMON   BANK0   BANK1   BANK3   BANK2
  3829 ;;      Params:         0       8       0       0       0
  3830 ;;      Locals:         0       0       0       0       0
  3831 ;;      Temps:          0       0       0       0       0
  3832 ;;      Totals:         0       8       0       0       0
  3833 ;;Total ram usage:        8 bytes
  3834 ;; Hardware stack levels used: 1
  3835 ;; Hardware stack levels required when called: 4
  3836 ;; This function calls:
  3837 ;;		___fladd
  3838 ;; This function is called by:
  3839 ;;		_convert
  3840 ;; This function uses a non-reentrant model
  3841 ;;
  3842                           
  3843                           
  3844                           ;psect for function ___flsub
  3845  11D2                     ___flsub:
  3846  11D2                     l2434:	
  3847                           ;incstack = 0
  3848                           ; Regs used in ___flsub: [wreg+status,2+status,0+btemp+1+pclath+cstack]
  3849                           
  3850  11D2  3080               	movlw	128
  3851  11D3  1283               	bcf	3,5	;RP0=0, select bank0
  3852  11D4  1303               	bcf	3,6	;RP1=0, select bank0
  3853  11D5  06C2               	xorwf	___flsub@a+3,f
  3854  11D6                     l2436:
  3855  11D6  0846               	movf	___flsub@b+3,w
  3856  11D7  00A3               	movwf	___fladd@b+3
  3857  11D8  0845               	movf	___flsub@b+2,w
  3858  11D9  00A2               	movwf	___fladd@b+2
  3859  11DA  0844               	movf	___flsub@b+1,w
  3860  11DB  00A1               	movwf	___fladd@b+1
  3861  11DC  0843               	movf	___flsub@b,w
  3862  11DD  00A0               	movwf	___fladd@b
  3863  11DE  0842               	movf	___flsub@a+3,w
  3864  11DF  00A7               	movwf	___fladd@a+3
  3865  11E0  0841               	movf	___flsub@a+2,w
  3866  11E1  00A6               	movwf	___fladd@a+2
  3867  11E2  0840               	movf	___flsub@a+1,w
  3868  11E3  00A5               	movwf	___fladd@a+1
  3869  11E4  083F               	movf	___flsub@a,w
  3870  11E5  00A4               	movwf	___fladd@a
  3871  11E6  120A  158A  2136  160A  118A  	fcall	___fladd
  3872  11EB  1283               	bcf	3,5	;RP0=0, select bank0
  3873  11EC  1303               	bcf	3,6	;RP1=0, select bank0
  3874  11ED  0823               	movf	?___fladd+3,w
  3875  11EE  00C2               	movwf	?___flsub+3
  3876  11EF  0822               	movf	?___fladd+2,w
  3877  11F0  00C1               	movwf	?___flsub+2
  3878  11F1  0821               	movf	?___fladd+1,w
  3879  11F2  00C0               	movwf	?___flsub+1
  3880  11F3  0820               	movf	?___fladd,w
  3881  11F4  00BF               	movwf	?___flsub
  3882  11F5                     l713:
  3883  11F5  0008               	return
  3884  11F6                     __end_of___flsub:
  3885                           
  3886                           	psect	text8
  3887  0936                     __ptext8:	
  3888 ;; *************** function ___fladd *****************
  3889 ;; Defined at:
  3890 ;;		line 10 in file "C:\Program Files\Microchip\xc8\v2.32\pic\sources\c90\common\sprcadd.c"
  3891 ;; Parameters:    Size  Location     Type
  3892 ;;  b               4    0[BANK0 ] long 
  3893 ;;  a               4    4[BANK0 ] long 
  3894 ;; Auto vars:     Size  Location     Type
  3895 ;;  grs             1   19[BANK0 ] unsigned char 
  3896 ;;  bexp            1   18[BANK0 ] unsigned char 
  3897 ;;  aexp            1   17[BANK0 ] unsigned char 
  3898 ;;  signs           1   16[BANK0 ] unsigned char 
  3899 ;; Return value:  Size  Location     Type
  3900 ;;                  4    0[BANK0 ] unsigned char 
  3901 ;; Registers used:
  3902 ;;		wreg, status,2, status,0, btemp+1
  3903 ;; Tracked objects:
  3904 ;;		On entry : 0/0
  3905 ;;		On exit  : 0/0
  3906 ;;		Unchanged: 0/0
  3907 ;; Data sizes:     COMMON   BANK0   BANK1   BANK3   BANK2
  3908 ;;      Params:         0       8       0       0       0
  3909 ;;      Locals:         0       4       0       0       0
  3910 ;;      Temps:          0       8       0       0       0
  3911 ;;      Totals:         0      20       0       0       0
  3912 ;;Total ram usage:       20 bytes
  3913 ;; Hardware stack levels used: 1
  3914 ;; Hardware stack levels required when called: 3
  3915 ;; This function calls:
  3916 ;;		Nothing
  3917 ;; This function is called by:
  3918 ;;		___flsub
  3919 ;; This function uses a non-reentrant model
  3920 ;;
  3921                           
  3922                           
  3923                           ;psect for function ___fladd
  3924  0936                     ___fladd:
  3925  0936                     l2048:	
  3926                           ;incstack = 0
  3927                           ; Regs used in ___fladd: [wreg+status,2+status,0+btemp+1]
  3928                           
  3929  0936  1283               	bcf	3,5	;RP0=0, select bank0
  3930  0937  1303               	bcf	3,6	;RP1=0, select bank0
  3931  0938  0823               	movf	___fladd@b+3,w
  3932  0939  3980               	andlw	128
  3933  093A  00A8               	movwf	??___fladd
  3934  093B  0828               	movf	??___fladd,w
  3935  093C  00B0               	movwf	___fladd@signs
  3936  093D                     l2050:
  3937  093D  0823               	movf	___fladd@b+3,w
  3938  093E  00A8               	movwf	??___fladd
  3939  093F  0728               	addwf	??___fladd,w
  3940  0940  00A9               	movwf	??___fladd+1
  3941  0941  0829               	movf	??___fladd+1,w
  3942  0942  00B2               	movwf	___fladd@bexp
  3943  0943                     l2052:
  3944  0943  1FA2               	btfss	___fladd@b+2,7
  3945  0944  2946               	goto	u2041
  3946  0945  2947               	goto	u2040
  3947  0946                     u2041:
  3948  0946  2948               	goto	l2056
  3949  0947                     u2040:
  3950  0947                     l2054:
  3951  0947  1432               	bsf	___fladd@bexp,0
  3952  0948                     l2056:
  3953  0948  0832               	movf	___fladd@bexp,w
  3954  0949  1903               	btfsc	3,2
  3955  094A  294C               	goto	u2051
  3956  094B  294D               	goto	u2050
  3957  094C                     u2051:
  3958  094C  295D               	goto	l2066
  3959  094D                     u2050:
  3960  094D                     l2058:
  3961  094D  0A32               	incf	___fladd@bexp,w
  3962  094E  1D03               	btfss	3,2
  3963  094F  2951               	goto	u2061
  3964  0950  2952               	goto	u2060
  3965  0951                     u2061:
  3966  0951  295A               	goto	l2062
  3967  0952                     u2060:
  3968  0952                     l2060:
  3969  0952  3000               	movlw	0
  3970  0953  00A3               	movwf	___fladd@b+3
  3971  0954  3000               	movlw	0
  3972  0955  00A2               	movwf	___fladd@b+2
  3973  0956  3000               	movlw	0
  3974  0957  00A1               	movwf	___fladd@b+1
  3975  0958  3000               	movlw	0
  3976  0959  00A0               	movwf	___fladd@b
  3977  095A                     l2062:
  3978  095A  17A2               	bsf	___fladd@b+2,7
  3979  095B                     l2064:
  3980  095B  01A3               	clrf	___fladd@b+3
  3981  095C  2965               	goto	l2068
  3982  095D                     l2066:
  3983  095D  3000               	movlw	0
  3984  095E  00A3               	movwf	___fladd@b+3
  3985  095F  3000               	movlw	0
  3986  0960  00A2               	movwf	___fladd@b+2
  3987  0961  3000               	movlw	0
  3988  0962  00A1               	movwf	___fladd@b+1
  3989  0963  3000               	movlw	0
  3990  0964  00A0               	movwf	___fladd@b
  3991  0965                     l2068:
  3992  0965  0827               	movf	___fladd@a+3,w
  3993  0966  3980               	andlw	128
  3994  0967  00A8               	movwf	??___fladd
  3995  0968  0828               	movf	??___fladd,w
  3996  0969  00B1               	movwf	___fladd@aexp
  3997  096A                     l2070:
  3998  096A  0831               	movf	___fladd@aexp,w
  3999  096B  0630               	xorwf	___fladd@signs,w
  4000  096C  1903               	skipnz
  4001  096D  296F               	goto	u2071
  4002  096E  2970               	goto	u2070
  4003  096F                     u2071:
  4004  096F  2971               	goto	l2074
  4005  0970                     u2070:
  4006  0970                     l2072:
  4007  0970  1730               	bsf	___fladd@signs,6
  4008  0971                     l2074:
  4009  0971  0827               	movf	___fladd@a+3,w
  4010  0972  00A8               	movwf	??___fladd
  4011  0973  0728               	addwf	??___fladd,w
  4012  0974  00A9               	movwf	??___fladd+1
  4013  0975  0829               	movf	??___fladd+1,w
  4014  0976  00B1               	movwf	___fladd@aexp
  4015  0977                     l2076:
  4016  0977  1FA6               	btfss	___fladd@a+2,7
  4017  0978  297A               	goto	u2081
  4018  0979  297B               	goto	u2080
  4019  097A                     u2081:
  4020  097A  297C               	goto	l2080
  4021  097B                     u2080:
  4022  097B                     l2078:
  4023  097B  1431               	bsf	___fladd@aexp,0
  4024  097C                     l2080:
  4025  097C  0831               	movf	___fladd@aexp,w
  4026  097D  1903               	btfsc	3,2
  4027  097E  2980               	goto	u2091
  4028  097F  2981               	goto	u2090
  4029  0980                     u2091:
  4030  0980  2991               	goto	l2090
  4031  0981                     u2090:
  4032  0981                     l2082:
  4033  0981  0A31               	incf	___fladd@aexp,w
  4034  0982  1D03               	btfss	3,2
  4035  0983  2985               	goto	u2101
  4036  0984  2986               	goto	u2100
  4037  0985                     u2101:
  4038  0985  298E               	goto	l2086
  4039  0986                     u2100:
  4040  0986                     l2084:
  4041  0986  3000               	movlw	0
  4042  0987  00A7               	movwf	___fladd@a+3
  4043  0988  3000               	movlw	0
  4044  0989  00A6               	movwf	___fladd@a+2
  4045  098A  3000               	movlw	0
  4046  098B  00A5               	movwf	___fladd@a+1
  4047  098C  3000               	movlw	0
  4048  098D  00A4               	movwf	___fladd@a
  4049  098E                     l2086:
  4050  098E  17A6               	bsf	___fladd@a+2,7
  4051  098F                     l2088:
  4052  098F  01A7               	clrf	___fladd@a+3
  4053  0990  2999               	goto	l667
  4054  0991                     l2090:
  4055  0991  3000               	movlw	0
  4056  0992  00A7               	movwf	___fladd@a+3
  4057  0993  3000               	movlw	0
  4058  0994  00A6               	movwf	___fladd@a+2
  4059  0995  3000               	movlw	0
  4060  0996  00A5               	movwf	___fladd@a+1
  4061  0997  3000               	movlw	0
  4062  0998  00A4               	movwf	___fladd@a
  4063  0999                     l667:
  4064  0999  0832               	movf	___fladd@bexp,w
  4065  099A  0231               	subwf	___fladd@aexp,w
  4066  099B  1803               	skipnc
  4067  099C  299E               	goto	u2111
  4068  099D  299F               	goto	u2110
  4069  099E                     u2111:
  4070  099E  29E3               	goto	l2126
  4071  099F                     u2110:
  4072  099F                     l2092:
  4073  099F  1F30               	btfss	___fladd@signs,6
  4074  09A0  29A2               	goto	u2121
  4075  09A1  29A3               	goto	u2120
  4076  09A2                     u2121:
  4077  09A2  29A7               	goto	l2096
  4078  09A3                     u2120:
  4079  09A3                     l2094:
  4080  09A3  3080               	movlw	128
  4081  09A4  00A8               	movwf	??___fladd
  4082  09A5  0828               	movf	??___fladd,w
  4083  09A6  06B0               	xorwf	___fladd@signs,f
  4084  09A7                     l2096:
  4085  09A7  0832               	movf	___fladd@bexp,w
  4086  09A8  00A8               	movwf	??___fladd
  4087  09A9  0828               	movf	??___fladd,w
  4088  09AA  00B3               	movwf	___fladd@grs
  4089  09AB                     l2098:
  4090  09AB  0831               	movf	___fladd@aexp,w
  4091  09AC  00A8               	movwf	??___fladd
  4092  09AD  0828               	movf	??___fladd,w
  4093  09AE  00B2               	movwf	___fladd@bexp
  4094  09AF                     l2100:
  4095  09AF  0833               	movf	___fladd@grs,w
  4096  09B0  00A8               	movwf	??___fladd
  4097  09B1  0828               	movf	??___fladd,w
  4098  09B2  00B1               	movwf	___fladd@aexp
  4099  09B3                     l2102:
  4100  09B3  0820               	movf	___fladd@b,w
  4101  09B4  00A8               	movwf	??___fladd
  4102  09B5  0828               	movf	??___fladd,w
  4103  09B6  00B3               	movwf	___fladd@grs
  4104  09B7                     l2104:
  4105  09B7  0824               	movf	___fladd@a,w
  4106  09B8  00A8               	movwf	??___fladd
  4107  09B9  0828               	movf	??___fladd,w
  4108  09BA  00A0               	movwf	___fladd@b
  4109  09BB                     l2106:
  4110  09BB  0833               	movf	___fladd@grs,w
  4111  09BC  00A8               	movwf	??___fladd
  4112  09BD  0828               	movf	??___fladd,w
  4113  09BE  00A4               	movwf	___fladd@a
  4114  09BF                     l2108:
  4115  09BF  0821               	movf	___fladd@b+1,w
  4116  09C0  00A8               	movwf	??___fladd
  4117  09C1  0828               	movf	??___fladd,w
  4118  09C2  00B3               	movwf	___fladd@grs
  4119  09C3                     l2110:
  4120  09C3  0825               	movf	___fladd@a+1,w
  4121  09C4  00A8               	movwf	??___fladd
  4122  09C5  0828               	movf	??___fladd,w
  4123  09C6  00A1               	movwf	___fladd@b+1
  4124  09C7                     l2112:
  4125  09C7  0833               	movf	___fladd@grs,w
  4126  09C8  00A8               	movwf	??___fladd
  4127  09C9  0828               	movf	??___fladd,w
  4128  09CA  00A5               	movwf	___fladd@a+1
  4129  09CB                     l2114:
  4130  09CB  0822               	movf	___fladd@b+2,w
  4131  09CC  00A8               	movwf	??___fladd
  4132  09CD  0828               	movf	??___fladd,w
  4133  09CE  00B3               	movwf	___fladd@grs
  4134  09CF                     l2116:
  4135  09CF  0826               	movf	___fladd@a+2,w
  4136  09D0  00A8               	movwf	??___fladd
  4137  09D1  0828               	movf	??___fladd,w
  4138  09D2  00A2               	movwf	___fladd@b+2
  4139  09D3                     l2118:
  4140  09D3  0833               	movf	___fladd@grs,w
  4141  09D4  00A8               	movwf	??___fladd
  4142  09D5  0828               	movf	??___fladd,w
  4143  09D6  00A6               	movwf	___fladd@a+2
  4144  09D7                     l2120:
  4145  09D7  0823               	movf	___fladd@b+3,w
  4146  09D8  00A8               	movwf	??___fladd
  4147  09D9  0828               	movf	??___fladd,w
  4148  09DA  00B3               	movwf	___fladd@grs
  4149  09DB                     l2122:
  4150  09DB  0827               	movf	___fladd@a+3,w
  4151  09DC  00A8               	movwf	??___fladd
  4152  09DD  0828               	movf	??___fladd,w
  4153  09DE  00A3               	movwf	___fladd@b+3
  4154  09DF                     l2124:
  4155  09DF  0833               	movf	___fladd@grs,w
  4156  09E0  00A8               	movwf	??___fladd
  4157  09E1  0828               	movf	??___fladd,w
  4158  09E2  00A7               	movwf	___fladd@a+3
  4159  09E3                     l2126:
  4160  09E3  01B3               	clrf	___fladd@grs
  4161  09E4                     l2128:
  4162  09E4  0831               	movf	___fladd@aexp,w
  4163  09E5  00A8               	movwf	??___fladd
  4164  09E6  01A9               	clrf	??___fladd+1
  4165  09E7  0829               	movf	??___fladd+1,w
  4166  09E8  00AB               	movwf	??___fladd+3
  4167  09E9  0832               	movf	___fladd@bexp,w
  4168  09EA  0228               	subwf	??___fladd,w
  4169  09EB  00AA               	movwf	??___fladd+2
  4170  09EC  1C03               	skipc
  4171  09ED  03AB               	decf	??___fladd+3,f
  4172  09EE  082B               	movf	??___fladd+3,w
  4173  09EF  3A80               	xorlw	128
  4174  09F0  00FF               	movwf	btemp+1
  4175  09F1  3080               	movlw	128
  4176  09F2  027F               	subwf	btemp+1,w
  4177  09F3  1D03               	skipz
  4178  09F4  29F7               	goto	u2135
  4179  09F5  301A               	movlw	26
  4180  09F6  022A               	subwf	??___fladd+2,w
  4181  09F7                     u2135:
  4182  09F7  1C03               	skipc
  4183  09F8  29FA               	goto	u2131
  4184  09F9  29FB               	goto	u2130
  4185  09FA                     u2131:
  4186  09FA  2A38               	goto	l2144
  4187  09FB                     u2130:
  4188  09FB                     l2130:
  4189  09FB  1283               	bcf	3,5	;RP0=0, select bank0
  4190  09FC  1303               	bcf	3,6	;RP1=0, select bank0
  4191  09FD  0823               	movf	___fladd@b+3,w
  4192  09FE  0422               	iorwf	___fladd@b+2,w
  4193  09FF  0421               	iorwf	___fladd@b+1,w
  4194  0A00  0420               	iorwf	___fladd@b,w
  4195  0A01  1D03               	skipz
  4196  0A02  2A04               	goto	u2141
  4197  0A03  2A06               	goto	u2140
  4198  0A04                     u2141:
  4199  0A04  3001               	movlw	1
  4200  0A05  2A07               	goto	u2150
  4201  0A06                     u2140:
  4202  0A06  3000               	movlw	0
  4203  0A07                     u2150:
  4204  0A07  00A8               	movwf	??___fladd
  4205  0A08  0828               	movf	??___fladd,w
  4206  0A09  00B3               	movwf	___fladd@grs
  4207  0A0A  3000               	movlw	0
  4208  0A0B  00A3               	movwf	___fladd@b+3
  4209  0A0C  3000               	movlw	0
  4210  0A0D  00A2               	movwf	___fladd@b+2
  4211  0A0E  3000               	movlw	0
  4212  0A0F  00A1               	movwf	___fladd@b+1
  4213  0A10  3000               	movlw	0
  4214  0A11  00A0               	movwf	___fladd@b
  4215  0A12  0831               	movf	___fladd@aexp,w
  4216  0A13  00A8               	movwf	??___fladd
  4217  0A14  0828               	movf	??___fladd,w
  4218  0A15  00B2               	movwf	___fladd@bexp
  4219  0A16  2A40               	goto	l671
  4220  0A17                     l673:
  4221  0A17  1C33               	btfss	___fladd@grs,0
  4222  0A18  2A1A               	goto	u2161
  4223  0A19  2A1B               	goto	u2160
  4224  0A1A                     u2161:
  4225  0A1A  2A24               	goto	l2134
  4226  0A1B                     u2160:
  4227  0A1B                     l2132:
  4228  0A1B  0833               	movf	___fladd@grs,w
  4229  0A1C  00A8               	movwf	??___fladd
  4230  0A1D  1003               	clrc
  4231  0A1E  0C28               	rrf	??___fladd,w
  4232  0A1F  3801               	iorlw	1
  4233  0A20  00A9               	movwf	??___fladd+1
  4234  0A21  0829               	movf	??___fladd+1,w
  4235  0A22  00B3               	movwf	___fladd@grs
  4236  0A23  2A26               	goto	l2136
  4237  0A24                     l2134:
  4238  0A24  1003               	clrc
  4239  0A25  0CB3               	rrf	___fladd@grs,f
  4240  0A26                     l2136:
  4241  0A26  1C20               	btfss	___fladd@b,0
  4242  0A27  2A29               	goto	u2171
  4243  0A28  2A2A               	goto	u2170
  4244  0A29                     u2171:
  4245  0A29  2A2B               	goto	l2140
  4246  0A2A                     u2170:
  4247  0A2A                     l2138:
  4248  0A2A  17B3               	bsf	___fladd@grs,7
  4249  0A2B                     l2140:
  4250  0A2B  3001               	movlw	1
  4251  0A2C  00A8               	movwf	??___fladd
  4252  0A2D                     u2185:
  4253  0A2D  0D23               	rlf	___fladd@b+3,w
  4254  0A2E  0CA3               	rrf	___fladd@b+3,f
  4255  0A2F  0CA2               	rrf	___fladd@b+2,f
  4256  0A30  0CA1               	rrf	___fladd@b+1,f
  4257  0A31  0CA0               	rrf	___fladd@b,f
  4258  0A32  0BA8               	decfsz	??___fladd& (0+127),f
  4259  0A33  2A2D               	goto	u2185
  4260  0A34                     l2142:
  4261  0A34  3001               	movlw	1
  4262  0A35  00A8               	movwf	??___fladd
  4263  0A36  0828               	movf	??___fladd,w
  4264  0A37  07B2               	addwf	___fladd@bexp,f
  4265  0A38                     l2144:
  4266  0A38  1283               	bcf	3,5	;RP0=0, select bank0
  4267  0A39  1303               	bcf	3,6	;RP1=0, select bank0
  4268  0A3A  0831               	movf	___fladd@aexp,w
  4269  0A3B  0232               	subwf	___fladd@bexp,w
  4270  0A3C  1C03               	skipc
  4271  0A3D  2A3F               	goto	u2191
  4272  0A3E  2A40               	goto	u2190
  4273  0A3F                     u2191:
  4274  0A3F  2A17               	goto	l673
  4275  0A40                     u2190:
  4276  0A40                     l671:
  4277  0A40  1B30               	btfsc	___fladd@signs,6
  4278  0A41  2A43               	goto	u2201
  4279  0A42  2A44               	goto	u2200
  4280  0A43                     u2201:
  4281  0A43  2A8F               	goto	l2170
  4282  0A44                     u2200:
  4283  0A44                     l2146:
  4284  0A44  0832               	movf	___fladd@bexp,w
  4285  0A45  1D03               	btfss	3,2
  4286  0A46  2A48               	goto	u2211
  4287  0A47  2A49               	goto	u2210
  4288  0A48                     u2211:
  4289  0A48  2A52               	goto	l2152
  4290  0A49                     u2210:
  4291  0A49                     l2148:
  4292  0A49  3000               	movlw	0
  4293  0A4A  00A3               	movwf	?___fladd+3
  4294  0A4B  3000               	movlw	0
  4295  0A4C  00A2               	movwf	?___fladd+2
  4296  0A4D  3000               	movlw	0
  4297  0A4E  00A1               	movwf	?___fladd+1
  4298  0A4F  3000               	movlw	0
  4299  0A50  00A0               	movwf	?___fladd
  4300  0A51  2BBD               	goto	l680
  4301  0A52                     l2152:
  4302  0A52  0824               	movf	___fladd@a,w
  4303  0A53  07A0               	addwf	___fladd@b,f
  4304  0A54  0825               	movf	___fladd@a+1,w
  4305  0A55  1103               	clrz
  4306  0A56  1803               	skipnc
  4307  0A57  3E01               	addlw	1
  4308  0A58  1903               	skipnz
  4309  0A59  2A5B               	goto	u2221
  4310  0A5A  07A1               	addwf	___fladd@b+1,f
  4311  0A5B                     u2221:
  4312  0A5B  0826               	movf	___fladd@a+2,w
  4313  0A5C  1103               	clrz
  4314  0A5D  1803               	skipnc
  4315  0A5E  3E01               	addlw	1
  4316  0A5F  1903               	skipnz
  4317  0A60  2A62               	goto	u2222
  4318  0A61  07A2               	addwf	___fladd@b+2,f
  4319  0A62                     u2222:
  4320  0A62  0827               	movf	___fladd@a+3,w
  4321  0A63  1103               	clrz
  4322  0A64  1803               	skipnc
  4323  0A65  3E01               	addlw	1
  4324  0A66  1903               	skipnz
  4325  0A67  2A69               	goto	u2223
  4326  0A68  07A3               	addwf	___fladd@b+3,f
  4327  0A69                     u2223:
  4328  0A69                     l2154:
  4329  0A69  1C23               	btfss	___fladd@b+3,0
  4330  0A6A  2A6C               	goto	u2231
  4331  0A6B  2A6D               	goto	u2230
  4332  0A6C                     u2231:
  4333  0A6C  2B43               	goto	l2204
  4334  0A6D                     u2230:
  4335  0A6D                     l2156:
  4336  0A6D  1C33               	btfss	___fladd@grs,0
  4337  0A6E  2A70               	goto	u2241
  4338  0A6F  2A71               	goto	u2240
  4339  0A70                     u2241:
  4340  0A70  2A7A               	goto	l2160
  4341  0A71                     u2240:
  4342  0A71                     l2158:
  4343  0A71  0833               	movf	___fladd@grs,w
  4344  0A72  00A8               	movwf	??___fladd
  4345  0A73  1003               	clrc
  4346  0A74  0C28               	rrf	??___fladd,w
  4347  0A75  3801               	iorlw	1
  4348  0A76  00A9               	movwf	??___fladd+1
  4349  0A77  0829               	movf	??___fladd+1,w
  4350  0A78  00B3               	movwf	___fladd@grs
  4351  0A79  2A7C               	goto	l2162
  4352  0A7A                     l2160:
  4353  0A7A  1003               	clrc
  4354  0A7B  0CB3               	rrf	___fladd@grs,f
  4355  0A7C                     l2162:
  4356  0A7C  1C20               	btfss	___fladd@b,0
  4357  0A7D  2A7F               	goto	u2251
  4358  0A7E  2A80               	goto	u2250
  4359  0A7F                     u2251:
  4360  0A7F  2A81               	goto	l2166
  4361  0A80                     u2250:
  4362  0A80                     l2164:
  4363  0A80  17B3               	bsf	___fladd@grs,7
  4364  0A81                     l2166:
  4365  0A81  3001               	movlw	1
  4366  0A82  00A8               	movwf	??___fladd
  4367  0A83                     u2265:
  4368  0A83  0D23               	rlf	___fladd@b+3,w
  4369  0A84  0CA3               	rrf	___fladd@b+3,f
  4370  0A85  0CA2               	rrf	___fladd@b+2,f
  4371  0A86  0CA1               	rrf	___fladd@b+1,f
  4372  0A87  0CA0               	rrf	___fladd@b,f
  4373  0A88  0BA8               	decfsz	??___fladd& (0+127),f
  4374  0A89  2A83               	goto	u2265
  4375  0A8A                     l2168:
  4376  0A8A  3001               	movlw	1
  4377  0A8B  00A8               	movwf	??___fladd
  4378  0A8C  0828               	movf	??___fladd,w
  4379  0A8D  07B2               	addwf	___fladd@bexp,f
  4380  0A8E  2B43               	goto	l2204
  4381  0A8F                     l2170:
  4382  0A8F  0823               	movf	___fladd@b+3,w
  4383  0A90  3A80               	xorlw	128
  4384  0A91  00FF               	movwf	btemp+1
  4385  0A92  0827               	movf	___fladd@a+3,w
  4386  0A93  3A80               	xorlw	128
  4387  0A94  027F               	subwf	btemp+1,w
  4388  0A95  1D03               	skipz
  4389  0A96  2AA1               	goto	u2273
  4390  0A97  0826               	movf	___fladd@a+2,w
  4391  0A98  0222               	subwf	___fladd@b+2,w
  4392  0A99  1D03               	skipz
  4393  0A9A  2AA1               	goto	u2273
  4394  0A9B  0825               	movf	___fladd@a+1,w
  4395  0A9C  0221               	subwf	___fladd@b+1,w
  4396  0A9D  1D03               	skipz
  4397  0A9E  2AA1               	goto	u2273
  4398  0A9F  0824               	movf	___fladd@a,w
  4399  0AA0  0220               	subwf	___fladd@b,w
  4400  0AA1                     u2273:
  4401  0AA1  1803               	skipnc
  4402  0AA2  2AA4               	goto	u2271
  4403  0AA3  2AA5               	goto	u2270
  4404  0AA4                     u2271:
  4405  0AA4  2AFD               	goto	l2180
  4406  0AA5                     u2270:
  4407  0AA5                     l2172:
  4408  0AA5  30FF               	movlw	255
  4409  0AA6  00A8               	movwf	??___fladd
  4410  0AA7  30FF               	movlw	255
  4411  0AA8  00A9               	movwf	??___fladd+1
  4412  0AA9  30FF               	movlw	255
  4413  0AAA  00AA               	movwf	??___fladd+2
  4414  0AAB  30FF               	movlw	255
  4415  0AAC  00AB               	movwf	??___fladd+3
  4416  0AAD  0824               	movf	___fladd@a,w
  4417  0AAE  00AC               	movwf	??___fladd+4
  4418  0AAF  0825               	movf	___fladd@a+1,w
  4419  0AB0  00AD               	movwf	??___fladd+5
  4420  0AB1  0826               	movf	___fladd@a+2,w
  4421  0AB2  00AE               	movwf	??___fladd+6
  4422  0AB3  0827               	movf	___fladd@a+3,w
  4423  0AB4  00AF               	movwf	??___fladd+7
  4424  0AB5  0820               	movf	___fladd@b,w
  4425  0AB6  02AC               	subwf	??___fladd+4,f
  4426  0AB7  0821               	movf	___fladd@b+1,w
  4427  0AB8  1C03               	skipc
  4428  0AB9  0F21               	incfsz	___fladd@b+1,w
  4429  0ABA  2ABC               	goto	u2281
  4430  0ABB  2ABD               	goto	u2282
  4431  0ABC                     u2281:
  4432  0ABC  02AD               	subwf	??___fladd+5,f
  4433  0ABD                     u2282:
  4434  0ABD  0822               	movf	___fladd@b+2,w
  4435  0ABE  1C03               	skipc
  4436  0ABF  0F22               	incfsz	___fladd@b+2,w
  4437  0AC0  2AC2               	goto	u2283
  4438  0AC1  2AC3               	goto	u2284
  4439  0AC2                     u2283:
  4440  0AC2  02AE               	subwf	??___fladd+6,f
  4441  0AC3                     u2284:
  4442  0AC3  0823               	movf	___fladd@b+3,w
  4443  0AC4  1C03               	skipc
  4444  0AC5  0F23               	incfsz	___fladd@b+3,w
  4445  0AC6  2AC8               	goto	u2285
  4446  0AC7  2AC9               	goto	u2286
  4447  0AC8                     u2285:
  4448  0AC8  02AF               	subwf	??___fladd+7,f
  4449  0AC9                     u2286:
  4450  0AC9  082C               	movf	??___fladd+4,w
  4451  0ACA  07A8               	addwf	??___fladd,f
  4452  0ACB  082D               	movf	??___fladd+5,w
  4453  0ACC  1803               	skipnc
  4454  0ACD  0F2D               	incfsz	??___fladd+5,w
  4455  0ACE  2AD0               	goto	u2290
  4456  0ACF  2AD1               	goto	u2291
  4457  0AD0                     u2290:
  4458  0AD0  07A9               	addwf	??___fladd+1,f
  4459  0AD1                     u2291:
  4460  0AD1  082E               	movf	??___fladd+6,w
  4461  0AD2  1803               	skipnc
  4462  0AD3  0F2E               	incfsz	??___fladd+6,w
  4463  0AD4  2AD6               	goto	u2292
  4464  0AD5  2AD7               	goto	u2293
  4465  0AD6                     u2292:
  4466  0AD6  07AA               	addwf	??___fladd+2,f
  4467  0AD7                     u2293:
  4468  0AD7  082F               	movf	??___fladd+7,w
  4469  0AD8  1803               	skipnc
  4470  0AD9  0A2F               	incf	??___fladd+7,w
  4471  0ADA  07AB               	addwf	??___fladd+3,f
  4472  0ADB  082B               	movf	??___fladd+3,w
  4473  0ADC  00A3               	movwf	___fladd@b+3
  4474  0ADD  082A               	movf	??___fladd+2,w
  4475  0ADE  00A2               	movwf	___fladd@b+2
  4476  0ADF  0829               	movf	??___fladd+1,w
  4477  0AE0  00A1               	movwf	___fladd@b+1
  4478  0AE1  0828               	movf	??___fladd,w
  4479  0AE2  00A0               	movwf	___fladd@b
  4480  0AE3                     l2174:
  4481  0AE3  3080               	movlw	128
  4482  0AE4  00A8               	movwf	??___fladd
  4483  0AE5  0828               	movf	??___fladd,w
  4484  0AE6  06B0               	xorwf	___fladd@signs,f
  4485  0AE7  09B3               	comf	___fladd@grs,f
  4486  0AE8  0AB3               	incf	___fladd@grs,f
  4487  0AE9                     l2176:
  4488  0AE9  0833               	movf	___fladd@grs,w
  4489  0AEA  1D03               	btfss	3,2
  4490  0AEB  2AED               	goto	u2301
  4491  0AEC  2AEE               	goto	u2300
  4492  0AED                     u2301:
  4493  0AED  2B0B               	goto	l688
  4494  0AEE                     u2300:
  4495  0AEE                     l2178:
  4496  0AEE  3001               	movlw	1
  4497  0AEF  07A0               	addwf	___fladd@b,f
  4498  0AF0  3000               	movlw	0
  4499  0AF1  1803               	skipnc
  4500  0AF2  3001               	movlw	1
  4501  0AF3  07A1               	addwf	___fladd@b+1,f
  4502  0AF4  3000               	movlw	0
  4503  0AF5  1803               	skipnc
  4504  0AF6  3001               	movlw	1
  4505  0AF7  07A2               	addwf	___fladd@b+2,f
  4506  0AF8  3000               	movlw	0
  4507  0AF9  1803               	skipnc
  4508  0AFA  3001               	movlw	1
  4509  0AFB  07A3               	addwf	___fladd@b+3,f
  4510  0AFC  2B0B               	goto	l688
  4511  0AFD                     l2180:
  4512  0AFD  0824               	movf	___fladd@a,w
  4513  0AFE  02A0               	subwf	___fladd@b,f
  4514  0AFF  0825               	movf	___fladd@a+1,w
  4515  0B00  1C03               	skipc
  4516  0B01  0F25               	incfsz	___fladd@a+1,w
  4517  0B02  02A1               	subwf	___fladd@b+1,f
  4518  0B03  0826               	movf	___fladd@a+2,w
  4519  0B04  1C03               	skipc
  4520  0B05  0F26               	incfsz	___fladd@a+2,w
  4521  0B06  02A2               	subwf	___fladd@b+2,f
  4522  0B07  0827               	movf	___fladd@a+3,w
  4523  0B08  1C03               	skipc
  4524  0B09  0F27               	incfsz	___fladd@a+3,w
  4525  0B0A  02A3               	subwf	___fladd@b+3,f
  4526  0B0B                     l688:
  4527  0B0B  0823               	movf	___fladd@b+3,w
  4528  0B0C  0422               	iorwf	___fladd@b+2,w
  4529  0B0D  0421               	iorwf	___fladd@b+1,w
  4530  0B0E  0420               	iorwf	___fladd@b,w
  4531  0B0F  1D03               	skipz
  4532  0B10  2B12               	goto	u2311
  4533  0B11  2B13               	goto	u2310
  4534  0B12                     u2311:
  4535  0B12  2B3F               	goto	l2202
  4536  0B13                     u2310:
  4537  0B13                     l2182:
  4538  0B13  0833               	movf	___fladd@grs,w
  4539  0B14  1D03               	btfss	3,2
  4540  0B15  2B17               	goto	u2321
  4541  0B16  2B18               	goto	u2320
  4542  0B17                     u2321:
  4543  0B17  2B3F               	goto	l2202
  4544  0B18                     u2320:
  4545  0B18                     l2184:
  4546  0B18  3000               	movlw	0
  4547  0B19  00A3               	movwf	?___fladd+3
  4548  0B1A  3000               	movlw	0
  4549  0B1B  00A2               	movwf	?___fladd+2
  4550  0B1C  3000               	movlw	0
  4551  0B1D  00A1               	movwf	?___fladd+1
  4552  0B1E  3000               	movlw	0
  4553  0B1F  00A0               	movwf	?___fladd
  4554  0B20  2BBD               	goto	l680
  4555  0B21                     l2188:
  4556  0B21  3001               	movlw	1
  4557  0B22  00A8               	movwf	??___fladd
  4558  0B23                     u2335:
  4559  0B23  1003               	clrc
  4560  0B24  0DA0               	rlf	___fladd@b,f
  4561  0B25  0DA1               	rlf	___fladd@b+1,f
  4562  0B26  0DA2               	rlf	___fladd@b+2,f
  4563  0B27  0DA3               	rlf	___fladd@b+3,f
  4564  0B28  0BA8               	decfsz	??___fladd,f
  4565  0B29  2B23               	goto	u2335
  4566  0B2A                     l2190:
  4567  0B2A  1FB3               	btfss	___fladd@grs,7
  4568  0B2B  2B2D               	goto	u2341
  4569  0B2C  2B2E               	goto	u2340
  4570  0B2D                     u2341:
  4571  0B2D  2B2F               	goto	l692
  4572  0B2E                     u2340:
  4573  0B2E                     l2192:
  4574  0B2E  1420               	bsf	___fladd@b,0
  4575  0B2F                     l692:
  4576  0B2F  1C33               	btfss	___fladd@grs,0
  4577  0B30  2B32               	goto	u2351
  4578  0B31  2B33               	goto	u2350
  4579  0B32                     u2351:
  4580  0B32  2B36               	goto	l2196
  4581  0B33                     u2350:
  4582  0B33                     l2194:
  4583  0B33  1403               	setc
  4584  0B34  0DB3               	rlf	___fladd@grs,f
  4585  0B35  2B38               	goto	l2198
  4586  0B36                     l2196:
  4587  0B36  1003               	clrc
  4588  0B37  0DB3               	rlf	___fladd@grs,f
  4589  0B38                     l2198:
  4590  0B38  0832               	movf	___fladd@bexp,w
  4591  0B39  1903               	btfsc	3,2
  4592  0B3A  2B3C               	goto	u2361
  4593  0B3B  2B3D               	goto	u2360
  4594  0B3C                     u2361:
  4595  0B3C  2B3F               	goto	l2202
  4596  0B3D                     u2360:
  4597  0B3D                     l2200:
  4598  0B3D  3001               	movlw	1
  4599  0B3E  02B2               	subwf	___fladd@bexp,f
  4600  0B3F                     l2202:
  4601  0B3F  1FA2               	btfss	___fladd@b+2,7
  4602  0B40  2B42               	goto	u2371
  4603  0B41  2B43               	goto	u2370
  4604  0B42                     u2371:
  4605  0B42  2B21               	goto	l2188
  4606  0B43                     u2370:
  4607  0B43                     l2204:
  4608  0B43  01B1               	clrf	___fladd@aexp
  4609  0B44                     l2206:
  4610  0B44  1FB3               	btfss	___fladd@grs,7
  4611  0B45  2B47               	goto	u2381
  4612  0B46  2B48               	goto	u2380
  4613  0B47                     u2381:
  4614  0B47  2B56               	goto	l2214
  4615  0B48                     u2380:
  4616  0B48                     l2208:
  4617  0B48  0833               	movf	___fladd@grs,w
  4618  0B49  397F               	andlw	127
  4619  0B4A  1903               	btfsc	3,2
  4620  0B4B  2B4D               	goto	u2391
  4621  0B4C  2B4E               	goto	u2390
  4622  0B4D                     u2391:
  4623  0B4D  2B51               	goto	l698
  4624  0B4E                     u2390:
  4625  0B4E                     l2210:
  4626  0B4E  01B1               	clrf	___fladd@aexp
  4627  0B4F  0AB1               	incf	___fladd@aexp,f
  4628  0B50  2B56               	goto	l2214
  4629  0B51                     l698:
  4630  0B51  1C20               	btfss	___fladd@b,0
  4631  0B52  2B54               	goto	u2401
  4632  0B53  2B55               	goto	u2400
  4633  0B54                     u2401:
  4634  0B54  2B56               	goto	l2214
  4635  0B55                     u2400:
  4636  0B55  2B4E               	goto	l2210
  4637  0B56                     l2214:
  4638  0B56  0831               	movf	___fladd@aexp,w
  4639  0B57  1903               	btfsc	3,2
  4640  0B58  2B5A               	goto	u2411
  4641  0B59  2B5B               	goto	u2410
  4642  0B5A                     u2411:
  4643  0B5A  2B8F               	goto	l701
  4644  0B5B                     u2410:
  4645  0B5B                     l2216:
  4646  0B5B  3001               	movlw	1
  4647  0B5C  07A0               	addwf	___fladd@b,f
  4648  0B5D  3000               	movlw	0
  4649  0B5E  1803               	skipnc
  4650  0B5F  3001               	movlw	1
  4651  0B60  07A1               	addwf	___fladd@b+1,f
  4652  0B61  3000               	movlw	0
  4653  0B62  1803               	skipnc
  4654  0B63  3001               	movlw	1
  4655  0B64  07A2               	addwf	___fladd@b+2,f
  4656  0B65  3000               	movlw	0
  4657  0B66  1803               	skipnc
  4658  0B67  3001               	movlw	1
  4659  0B68  07A3               	addwf	___fladd@b+3,f
  4660  0B69                     l2218:
  4661  0B69  1C23               	btfss	___fladd@b+3,0
  4662  0B6A  2B6C               	goto	u2421
  4663  0B6B  2B6D               	goto	u2420
  4664  0B6C                     u2421:
  4665  0B6C  2B8F               	goto	l701
  4666  0B6D                     u2420:
  4667  0B6D                     l2220:
  4668  0B6D  0820               	movf	___fladd@b,w
  4669  0B6E  00A8               	movwf	??___fladd
  4670  0B6F  0821               	movf	___fladd@b+1,w
  4671  0B70  00A9               	movwf	??___fladd+1
  4672  0B71  0822               	movf	___fladd@b+2,w
  4673  0B72  00AA               	movwf	??___fladd+2
  4674  0B73  0823               	movf	___fladd@b+3,w
  4675  0B74  00AB               	movwf	??___fladd+3
  4676  0B75  3001               	movlw	1
  4677  0B76  00AC               	movwf	??___fladd+4
  4678  0B77                     u2435:
  4679  0B77  0D2B               	rlf	??___fladd+3,w
  4680  0B78  0CAB               	rrf	??___fladd+3,f
  4681  0B79  0CAA               	rrf	??___fladd+2,f
  4682  0B7A  0CA9               	rrf	??___fladd+1,f
  4683  0B7B  0CA8               	rrf	??___fladd,f
  4684  0B7C                     u2430:
  4685  0B7C  0BAC               	decfsz	??___fladd+4,f
  4686  0B7D  2B77               	goto	u2435
  4687  0B7E  082B               	movf	??___fladd+3,w
  4688  0B7F  00A3               	movwf	___fladd@b+3
  4689  0B80  082A               	movf	??___fladd+2,w
  4690  0B81  00A2               	movwf	___fladd@b+2
  4691  0B82  0829               	movf	??___fladd+1,w
  4692  0B83  00A1               	movwf	___fladd@b+1
  4693  0B84  0828               	movf	??___fladd,w
  4694  0B85  00A0               	movwf	___fladd@b
  4695  0B86  0A32               	incf	___fladd@bexp,w
  4696  0B87  1903               	btfsc	3,2
  4697  0B88  2B8A               	goto	u2441
  4698  0B89  2B8B               	goto	u2440
  4699  0B8A                     u2441:
  4700  0B8A  2B8F               	goto	l701
  4701  0B8B                     u2440:
  4702  0B8B                     l2222:
  4703  0B8B  3001               	movlw	1
  4704  0B8C  00A8               	movwf	??___fladd
  4705  0B8D  0828               	movf	??___fladd,w
  4706  0B8E  07B2               	addwf	___fladd@bexp,f
  4707  0B8F                     l701:
  4708  0B8F  0A32               	incf	___fladd@bexp,w
  4709  0B90  1903               	btfsc	3,2
  4710  0B91  2B93               	goto	u2451
  4711  0B92  2B94               	goto	u2450
  4712  0B93                     u2451:
  4713  0B93  2B99               	goto	l2226
  4714  0B94                     u2450:
  4715  0B94                     l2224:
  4716  0B94  0832               	movf	___fladd@bexp,w
  4717  0B95  1D03               	btfss	3,2
  4718  0B96  2B98               	goto	u2461
  4719  0B97  2B99               	goto	u2460
  4720  0B98                     u2461:
  4721  0B98  2BA7               	goto	l2232
  4722  0B99                     u2460:
  4723  0B99                     l2226:
  4724  0B99  3000               	movlw	0
  4725  0B9A  00A3               	movwf	___fladd@b+3
  4726  0B9B  3000               	movlw	0
  4727  0B9C  00A2               	movwf	___fladd@b+2
  4728  0B9D  3000               	movlw	0
  4729  0B9E  00A1               	movwf	___fladd@b+1
  4730  0B9F  3000               	movlw	0
  4731  0BA0  00A0               	movwf	___fladd@b
  4732  0BA1                     l2228:
  4733  0BA1  0832               	movf	___fladd@bexp,w
  4734  0BA2  1D03               	btfss	3,2
  4735  0BA3  2BA5               	goto	u2471
  4736  0BA4  2BA6               	goto	u2470
  4737  0BA5                     u2471:
  4738  0BA5  2BA7               	goto	l2232
  4739  0BA6                     u2470:
  4740  0BA6                     l2230:
  4741  0BA6  01B0               	clrf	___fladd@signs
  4742  0BA7                     l2232:
  4743  0BA7  1C32               	btfss	___fladd@bexp,0
  4744  0BA8  2BAA               	goto	u2481
  4745  0BA9  2BAB               	goto	u2480
  4746  0BAA                     u2481:
  4747  0BAA  2BAD               	goto	l2236
  4748  0BAB                     u2480:
  4749  0BAB                     l2234:
  4750  0BAB  17A2               	bsf	___fladd@b+2,7
  4751  0BAC  2BB1               	goto	l709
  4752  0BAD                     l2236:
  4753  0BAD  307F               	movlw	127
  4754  0BAE  00A8               	movwf	??___fladd
  4755  0BAF  0828               	movf	??___fladd,w
  4756  0BB0  05A2               	andwf	___fladd@b+2,f
  4757  0BB1                     l709:
  4758  0BB1  0832               	movf	___fladd@bexp,w
  4759  0BB2  00A8               	movwf	??___fladd
  4760  0BB3  1003               	clrc
  4761  0BB4  0C28               	rrf	??___fladd,w
  4762  0BB5  00A9               	movwf	??___fladd+1
  4763  0BB6  0829               	movf	??___fladd+1,w
  4764  0BB7  00A3               	movwf	___fladd@b+3
  4765  0BB8                     l2238:
  4766  0BB8  1FB0               	btfss	___fladd@signs,7
  4767  0BB9  2BBB               	goto	u2491
  4768  0BBA  2BBC               	goto	u2490
  4769  0BBB                     u2491:
  4770  0BBB  2BBD               	goto	l710
  4771  0BBC                     u2490:
  4772  0BBC                     l2240:
  4773  0BBC  17A3               	bsf	___fladd@b+3,7
  4774  0BBD                     l710:
  4775  0BBD                     l680:
  4776  0BBD  0008               	return
  4777  0BBE                     __end_of___fladd:
  4778                           
  4779                           	psect	text9
  4780  0020                     __ptext9:	
  4781 ;; *************** function ___flmul *****************
  4782 ;; Defined at:
  4783 ;;		line 8 in file "C:\Program Files\Microchip\xc8\v2.32\pic\sources\c90\common\sprcmul.c"
  4784 ;; Parameters:    Size  Location     Type
  4785 ;;  b               4   57[BANK0 ] unsigned char 
  4786 ;;  a               4   61[BANK0 ] unsigned char 
  4787 ;; Auto vars:     Size  Location     Type
  4788 ;;  prod            4    7[BANK1 ] struct .
  4789 ;;  grs             4    1[BANK1 ] unsigned long 
  4790 ;;  temp            2   11[BANK1 ] struct .
  4791 ;;  bexp            1    6[BANK1 ] unsigned char 
  4792 ;;  aexp            1    5[BANK1 ] unsigned char 
  4793 ;;  sign            1    0[BANK1 ] unsigned char 
  4794 ;; Return value:  Size  Location     Type
  4795 ;;                  4   57[BANK0 ] unsigned char 
  4796 ;; Registers used:
  4797 ;;		wreg, status,2, status,0, btemp+1, pclath, cstack
  4798 ;; Tracked objects:
  4799 ;;		On entry : 0/0
  4800 ;;		On exit  : 0/0
  4801 ;;		Unchanged: 0/0
  4802 ;; Data sizes:     COMMON   BANK0   BANK1   BANK3   BANK2
  4803 ;;      Params:         0       8       0       0       0
  4804 ;;      Locals:         0       0      13       0       0
  4805 ;;      Temps:          0       5       0       0       0
  4806 ;;      Totals:         0      13      13       0       0
  4807 ;;Total ram usage:       26 bytes
  4808 ;; Hardware stack levels used: 1
  4809 ;; Hardware stack levels required when called: 4
  4810 ;; This function calls:
  4811 ;;		__Umul8_16
  4812 ;; This function is called by:
  4813 ;;		_main
  4814 ;;		_convert
  4815 ;; This function uses a non-reentrant model
  4816 ;;
  4817                           
  4818                           
  4819                           ;psect for function ___flmul
  4820  0020                     ___flmul:
  4821  0020                     l2582:	
  4822                           ;incstack = 0
  4823                           ; Regs used in ___flmul: [wreg+status,2+status,0+btemp+1+pclath+cstack]
  4824                           
  4825  0020  1283               	bcf	3,5	;RP0=0, select bank0
  4826  0021  1303               	bcf	3,6	;RP1=0, select bank0
  4827  0022  085C               	movf	___flmul@b+3,w
  4828  0023  3980               	andlw	128
  4829  0024  00E1               	movwf	??___flmul
  4830  0025  0861               	movf	??___flmul,w
  4831  0026  1683               	bsf	3,5	;RP0=1, select bank1
  4832  0027  1303               	bcf	3,6	;RP1=0, select bank1
  4833  0028  00A0               	movwf	___flmul@sign^(0+128)
  4834  0029                     l2584:
  4835  0029  1283               	bcf	3,5	;RP0=0, select bank0
  4836  002A  1303               	bcf	3,6	;RP1=0, select bank0
  4837  002B  085C               	movf	___flmul@b+3,w
  4838  002C  00E1               	movwf	??___flmul
  4839  002D  0761               	addwf	??___flmul,w
  4840  002E  00E2               	movwf	??___flmul+1
  4841  002F  0862               	movf	??___flmul+1,w
  4842  0030  1683               	bsf	3,5	;RP0=1, select bank1
  4843  0031  1303               	bcf	3,6	;RP1=0, select bank1
  4844  0032  00A6               	movwf	___flmul@bexp^(0+128)
  4845  0033                     l2586:
  4846  0033  1283               	bcf	3,5	;RP0=0, select bank0
  4847  0034  1303               	bcf	3,6	;RP1=0, select bank0
  4848  0035  1FDB               	btfss	___flmul@b+2,7
  4849  0036  2838               	goto	u3221
  4850  0037  2839               	goto	u3220
  4851  0038                     u3221:
  4852  0038  283C               	goto	l2590
  4853  0039                     u3220:
  4854  0039                     l2588:
  4855  0039  1683               	bsf	3,5	;RP0=1, select bank1
  4856  003A  1303               	bcf	3,6	;RP1=0, select bank1
  4857  003B  1426               	bsf	___flmul@bexp^(0+128),0
  4858  003C                     l2590:
  4859  003C  1683               	bsf	3,5	;RP0=1, select bank1
  4860  003D  1303               	bcf	3,6	;RP1=0, select bank1
  4861  003E  0826               	movf	___flmul@bexp^(0+128),w
  4862  003F  1903               	btfsc	3,2
  4863  0040  2842               	goto	u3231
  4864  0041  2843               	goto	u3230
  4865  0042                     u3231:
  4866  0042  2855               	goto	l2598
  4867  0043                     u3230:
  4868  0043                     l2592:
  4869  0043  0A26               	incf	___flmul@bexp^(0+128),w
  4870  0044  1D03               	btfss	3,2
  4871  0045  2847               	goto	u3241
  4872  0046  2848               	goto	u3240
  4873  0047                     u3241:
  4874  0047  2852               	goto	l2596
  4875  0048                     u3240:
  4876  0048                     l2594:
  4877  0048  3000               	movlw	0
  4878  0049  1283               	bcf	3,5	;RP0=0, select bank0
  4879  004A  1303               	bcf	3,6	;RP1=0, select bank0
  4880  004B  00DC               	movwf	___flmul@b+3
  4881  004C  3000               	movlw	0
  4882  004D  00DB               	movwf	___flmul@b+2
  4883  004E  3000               	movlw	0
  4884  004F  00DA               	movwf	___flmul@b+1
  4885  0050  3000               	movlw	0
  4886  0051  00D9               	movwf	___flmul@b
  4887  0052                     l2596:
  4888  0052  1283               	bcf	3,5	;RP0=0, select bank0
  4889  0053  17DB               	bsf	___flmul@b+2,7
  4890  0054  285F               	goto	l2600
  4891  0055                     l2598:
  4892  0055  3000               	movlw	0
  4893  0056  1283               	bcf	3,5	;RP0=0, select bank0
  4894  0057  1303               	bcf	3,6	;RP1=0, select bank0
  4895  0058  00DC               	movwf	___flmul@b+3
  4896  0059  3000               	movlw	0
  4897  005A  00DB               	movwf	___flmul@b+2
  4898  005B  3000               	movlw	0
  4899  005C  00DA               	movwf	___flmul@b+1
  4900  005D  3000               	movlw	0
  4901  005E  00D9               	movwf	___flmul@b
  4902  005F                     l2600:
  4903  005F  0860               	movf	___flmul@a+3,w
  4904  0060  3980               	andlw	128
  4905  0061  00E1               	movwf	??___flmul
  4906  0062  0861               	movf	??___flmul,w
  4907  0063  1683               	bsf	3,5	;RP0=1, select bank1
  4908  0064  1303               	bcf	3,6	;RP1=0, select bank1
  4909  0065  06A0               	xorwf	___flmul@sign^(0+128),f
  4910  0066                     l2602:
  4911  0066  1283               	bcf	3,5	;RP0=0, select bank0
  4912  0067  1303               	bcf	3,6	;RP1=0, select bank0
  4913  0068  0860               	movf	___flmul@a+3,w
  4914  0069  00E1               	movwf	??___flmul
  4915  006A  0761               	addwf	??___flmul,w
  4916  006B  00E2               	movwf	??___flmul+1
  4917  006C  0862               	movf	??___flmul+1,w
  4918  006D  1683               	bsf	3,5	;RP0=1, select bank1
  4919  006E  1303               	bcf	3,6	;RP1=0, select bank1
  4920  006F  00A5               	movwf	___flmul@aexp^(0+128)
  4921  0070                     l2604:
  4922  0070  1283               	bcf	3,5	;RP0=0, select bank0
  4923  0071  1303               	bcf	3,6	;RP1=0, select bank0
  4924  0072  1FDF               	btfss	___flmul@a+2,7
  4925  0073  2875               	goto	u3251
  4926  0074  2876               	goto	u3250
  4927  0075                     u3251:
  4928  0075  2879               	goto	l2608
  4929  0076                     u3250:
  4930  0076                     l2606:
  4931  0076  1683               	bsf	3,5	;RP0=1, select bank1
  4932  0077  1303               	bcf	3,6	;RP1=0, select bank1
  4933  0078  1425               	bsf	___flmul@aexp^(0+128),0
  4934  0079                     l2608:
  4935  0079  1683               	bsf	3,5	;RP0=1, select bank1
  4936  007A  1303               	bcf	3,6	;RP1=0, select bank1
  4937  007B  0825               	movf	___flmul@aexp^(0+128),w
  4938  007C  1903               	btfsc	3,2
  4939  007D  287F               	goto	u3261
  4940  007E  2880               	goto	u3260
  4941  007F                     u3261:
  4942  007F  2892               	goto	l2616
  4943  0080                     u3260:
  4944  0080                     l2610:
  4945  0080  0A25               	incf	___flmul@aexp^(0+128),w
  4946  0081  1D03               	btfss	3,2
  4947  0082  2884               	goto	u3271
  4948  0083  2885               	goto	u3270
  4949  0084                     u3271:
  4950  0084  288F               	goto	l2614
  4951  0085                     u3270:
  4952  0085                     l2612:
  4953  0085  3000               	movlw	0
  4954  0086  1283               	bcf	3,5	;RP0=0, select bank0
  4955  0087  1303               	bcf	3,6	;RP1=0, select bank0
  4956  0088  00E0               	movwf	___flmul@a+3
  4957  0089  3000               	movlw	0
  4958  008A  00DF               	movwf	___flmul@a+2
  4959  008B  3000               	movlw	0
  4960  008C  00DE               	movwf	___flmul@a+1
  4961  008D  3000               	movlw	0
  4962  008E  00DD               	movwf	___flmul@a
  4963  008F                     l2614:
  4964  008F  1283               	bcf	3,5	;RP0=0, select bank0
  4965  0090  17DF               	bsf	___flmul@a+2,7
  4966  0091  289C               	goto	l2618
  4967  0092                     l2616:
  4968  0092  3000               	movlw	0
  4969  0093  1283               	bcf	3,5	;RP0=0, select bank0
  4970  0094  1303               	bcf	3,6	;RP1=0, select bank0
  4971  0095  00E0               	movwf	___flmul@a+3
  4972  0096  3000               	movlw	0
  4973  0097  00DF               	movwf	___flmul@a+2
  4974  0098  3000               	movlw	0
  4975  0099  00DE               	movwf	___flmul@a+1
  4976  009A  3000               	movlw	0
  4977  009B  00DD               	movwf	___flmul@a
  4978  009C                     l2618:
  4979  009C  1683               	bsf	3,5	;RP0=1, select bank1
  4980  009D  1303               	bcf	3,6	;RP1=0, select bank1
  4981  009E  0825               	movf	___flmul@aexp^(0+128),w
  4982  009F  1903               	btfsc	3,2
  4983  00A0  28A2               	goto	u3281
  4984  00A1  28A3               	goto	u3280
  4985  00A2                     u3281:
  4986  00A2  28A8               	goto	l2622
  4987  00A3                     u3280:
  4988  00A3                     l2620:
  4989  00A3  0826               	movf	___flmul@bexp^(0+128),w
  4990  00A4  1D03               	btfss	3,2
  4991  00A5  28A7               	goto	u3291
  4992  00A6  28A8               	goto	u3290
  4993  00A7                     u3291:
  4994  00A7  28B3               	goto	l2626
  4995  00A8                     u3290:
  4996  00A8                     l2622:
  4997  00A8  3000               	movlw	0
  4998  00A9  1283               	bcf	3,5	;RP0=0, select bank0
  4999  00AA  1303               	bcf	3,6	;RP1=0, select bank0
  5000  00AB  00DC               	movwf	?___flmul+3
  5001  00AC  3000               	movlw	0
  5002  00AD  00DB               	movwf	?___flmul+2
  5003  00AE  3000               	movlw	0
  5004  00AF  00DA               	movwf	?___flmul+1
  5005  00B0  3000               	movlw	0
  5006  00B1  00D9               	movwf	?___flmul
  5007  00B2  2D7E               	goto	l763
  5008  00B3                     l2626:
  5009  00B3  1283               	bcf	3,5	;RP0=0, select bank0
  5010  00B4  1303               	bcf	3,6	;RP1=0, select bank0
  5011  00B5  0859               	movf	___flmul@b,w
  5012  00B6  00E1               	movwf	??___flmul
  5013  00B7  0861               	movf	??___flmul,w
  5014  00B8  00A0               	movwf	__Umul8_16@multiplicand
  5015  00B9  085F               	movf	___flmul@a+2,w
  5016  00BA  160A  118A  221D  120A  118A  	fcall	__Umul8_16
  5017  00BF  1283               	bcf	3,5	;RP0=0, select bank0
  5018  00C0  1303               	bcf	3,6	;RP1=0, select bank0
  5019  00C1  0821               	movf	?__Umul8_16+1,w
  5020  00C2  1683               	bsf	3,5	;RP0=1, select bank1
  5021  00C3  1303               	bcf	3,6	;RP1=0, select bank1
  5022  00C4  00AC               	movwf	(___flmul@temp+1)^(0+128)
  5023  00C5  1283               	bcf	3,5	;RP0=0, select bank0
  5024  00C6  1303               	bcf	3,6	;RP1=0, select bank0
  5025  00C7  0820               	movf	?__Umul8_16,w
  5026  00C8  1683               	bsf	3,5	;RP0=1, select bank1
  5027  00C9  1303               	bcf	3,6	;RP1=0, select bank1
  5028  00CA  00AB               	movwf	___flmul@temp^(0+128)
  5029  00CB                     l2628:
  5030  00CB  082B               	movf	___flmul@temp^(0+128),w
  5031  00CC  1283               	bcf	3,5	;RP0=0, select bank0
  5032  00CD  1303               	bcf	3,6	;RP1=0, select bank0
  5033  00CE  00E1               	movwf	??___flmul
  5034  00CF  01E2               	clrf	??___flmul+1
  5035  00D0  01E3               	clrf	??___flmul+2
  5036  00D1  01E4               	clrf	??___flmul+3
  5037  00D2  0864               	movf	??___flmul+3,w
  5038  00D3  1683               	bsf	3,5	;RP0=1, select bank1
  5039  00D4  1303               	bcf	3,6	;RP1=0, select bank1
  5040  00D5  00A4               	movwf	(___flmul@grs+3)^(0+128)
  5041  00D6  1283               	bcf	3,5	;RP0=0, select bank0
  5042  00D7  1303               	bcf	3,6	;RP1=0, select bank0
  5043  00D8  0863               	movf	??___flmul+2,w
  5044  00D9  1683               	bsf	3,5	;RP0=1, select bank1
  5045  00DA  1303               	bcf	3,6	;RP1=0, select bank1
  5046  00DB  00A3               	movwf	(___flmul@grs+2)^(0+128)
  5047  00DC  1283               	bcf	3,5	;RP0=0, select bank0
  5048  00DD  1303               	bcf	3,6	;RP1=0, select bank0
  5049  00DE  0862               	movf	??___flmul+1,w
  5050  00DF  1683               	bsf	3,5	;RP0=1, select bank1
  5051  00E0  1303               	bcf	3,6	;RP1=0, select bank1
  5052  00E1  00A2               	movwf	(___flmul@grs+1)^(0+128)
  5053  00E2  1283               	bcf	3,5	;RP0=0, select bank0
  5054  00E3  1303               	bcf	3,6	;RP1=0, select bank0
  5055  00E4  0861               	movf	??___flmul,w
  5056  00E5  1683               	bsf	3,5	;RP0=1, select bank1
  5057  00E6  1303               	bcf	3,6	;RP1=0, select bank1
  5058  00E7  00A1               	movwf	___flmul@grs^(0+128)
  5059  00E8                     l2630:
  5060  00E8  082C               	movf	(___flmul@temp^(0+128)+1),w
  5061  00E9  1283               	bcf	3,5	;RP0=0, select bank0
  5062  00EA  1303               	bcf	3,6	;RP1=0, select bank0
  5063  00EB  00E1               	movwf	??___flmul
  5064  00EC  01E2               	clrf	??___flmul+1
  5065  00ED  01E3               	clrf	??___flmul+2
  5066  00EE  01E4               	clrf	??___flmul+3
  5067  00EF  0864               	movf	??___flmul+3,w
  5068  00F0  1683               	bsf	3,5	;RP0=1, select bank1
  5069  00F1  1303               	bcf	3,6	;RP1=0, select bank1
  5070  00F2  00AA               	movwf	(___flmul@prod+3)^(0+128)
  5071  00F3  1283               	bcf	3,5	;RP0=0, select bank0
  5072  00F4  1303               	bcf	3,6	;RP1=0, select bank0
  5073  00F5  0863               	movf	??___flmul+2,w
  5074  00F6  1683               	bsf	3,5	;RP0=1, select bank1
  5075  00F7  1303               	bcf	3,6	;RP1=0, select bank1
  5076  00F8  00A9               	movwf	(___flmul@prod+2)^(0+128)
  5077  00F9  1283               	bcf	3,5	;RP0=0, select bank0
  5078  00FA  1303               	bcf	3,6	;RP1=0, select bank0
  5079  00FB  0862               	movf	??___flmul+1,w
  5080  00FC  1683               	bsf	3,5	;RP0=1, select bank1
  5081  00FD  1303               	bcf	3,6	;RP1=0, select bank1
  5082  00FE  00A8               	movwf	(___flmul@prod+1)^(0+128)
  5083  00FF  1283               	bcf	3,5	;RP0=0, select bank0
  5084  0100  1303               	bcf	3,6	;RP1=0, select bank0
  5085  0101  0861               	movf	??___flmul,w
  5086  0102  1683               	bsf	3,5	;RP0=1, select bank1
  5087  0103  1303               	bcf	3,6	;RP1=0, select bank1
  5088  0104  00A7               	movwf	___flmul@prod^(0+128)
  5089  0105  1283               	bcf	3,5	;RP0=0, select bank0
  5090  0106  1303               	bcf	3,6	;RP1=0, select bank0
  5091  0107  085A               	movf	___flmul@b+1,w
  5092  0108  00E1               	movwf	??___flmul
  5093  0109  0861               	movf	??___flmul,w
  5094  010A  00A0               	movwf	__Umul8_16@multiplicand
  5095  010B  085E               	movf	___flmul@a+1,w
  5096  010C  160A  118A  221D  120A  118A  	fcall	__Umul8_16
  5097  0111  1283               	bcf	3,5	;RP0=0, select bank0
  5098  0112  1303               	bcf	3,6	;RP1=0, select bank0
  5099  0113  0821               	movf	?__Umul8_16+1,w
  5100  0114  1683               	bsf	3,5	;RP0=1, select bank1
  5101  0115  1303               	bcf	3,6	;RP1=0, select bank1
  5102  0116  00AC               	movwf	(___flmul@temp+1)^(0+128)
  5103  0117  1283               	bcf	3,5	;RP0=0, select bank0
  5104  0118  1303               	bcf	3,6	;RP1=0, select bank0
  5105  0119  0820               	movf	?__Umul8_16,w
  5106  011A  1683               	bsf	3,5	;RP0=1, select bank1
  5107  011B  1303               	bcf	3,6	;RP1=0, select bank1
  5108  011C  00AB               	movwf	___flmul@temp^(0+128)
  5109  011D                     l2632:
  5110  011D  082B               	movf	___flmul@temp^(0+128),w
  5111  011E  1283               	bcf	3,5	;RP0=0, select bank0
  5112  011F  1303               	bcf	3,6	;RP1=0, select bank0
  5113  0120  00E1               	movwf	??___flmul
  5114  0121  01E2               	clrf	??___flmul+1
  5115  0122  01E3               	clrf	??___flmul+2
  5116  0123  01E4               	clrf	??___flmul+3
  5117  0124  0861               	movf	??___flmul,w
  5118  0125  1683               	bsf	3,5	;RP0=1, select bank1
  5119  0126  1303               	bcf	3,6	;RP1=0, select bank1
  5120  0127  07A1               	addwf	___flmul@grs^(0+128),f
  5121  0128  1283               	bcf	3,5	;RP0=0, select bank0
  5122  0129  1303               	bcf	3,6	;RP1=0, select bank0
  5123  012A  0862               	movf	??___flmul+1,w
  5124  012B  1103               	clrz
  5125  012C  1803               	skipnc
  5126  012D  3E01               	addlw	1
  5127  012E  1903               	skipnz
  5128  012F  2933               	goto	u3301
  5129  0130  1683               	bsf	3,5	;RP0=1, select bank1
  5130  0131  1303               	bcf	3,6	;RP1=0, select bank1
  5131  0132  07A2               	addwf	(___flmul@grs+1)^(0+128),f
  5132  0133                     u3301:
  5133  0133  1283               	bcf	3,5	;RP0=0, select bank0
  5134  0134  1303               	bcf	3,6	;RP1=0, select bank0
  5135  0135  0863               	movf	??___flmul+2,w
  5136  0136  1103               	clrz
  5137  0137  1803               	skipnc
  5138  0138  3E01               	addlw	1
  5139  0139  1903               	skipnz
  5140  013A  293E               	goto	u3302
  5141  013B  1683               	bsf	3,5	;RP0=1, select bank1
  5142  013C  1303               	bcf	3,6	;RP1=0, select bank1
  5143  013D  07A3               	addwf	(___flmul@grs+2)^(0+128),f
  5144  013E                     u3302:
  5145  013E  1283               	bcf	3,5	;RP0=0, select bank0
  5146  013F  1303               	bcf	3,6	;RP1=0, select bank0
  5147  0140  0864               	movf	??___flmul+3,w
  5148  0141  1103               	clrz
  5149  0142  1803               	skipnc
  5150  0143  3E01               	addlw	1
  5151  0144  1903               	skipnz
  5152  0145  2949               	goto	u3303
  5153  0146  1683               	bsf	3,5	;RP0=1, select bank1
  5154  0147  1303               	bcf	3,6	;RP1=0, select bank1
  5155  0148  07A4               	addwf	(___flmul@grs+3)^(0+128),f
  5156  0149                     u3303:
  5157  0149  1283               	bcf	3,5	;RP0=0, select bank0
  5158  014A  1303               	bcf	3,6	;RP1=0, select bank0
  5159  014B  1683               	bsf	3,5	;RP0=1, select bank1
  5160  014C  1303               	bcf	3,6	;RP1=0, select bank1
  5161  014D                     l2634:
  5162  014D  082C               	movf	(___flmul@temp^(0+128)+1),w
  5163  014E  1283               	bcf	3,5	;RP0=0, select bank0
  5164  014F  1303               	bcf	3,6	;RP1=0, select bank0
  5165  0150  00E1               	movwf	??___flmul
  5166  0151  01E2               	clrf	??___flmul+1
  5167  0152  01E3               	clrf	??___flmul+2
  5168  0153  01E4               	clrf	??___flmul+3
  5169  0154  0861               	movf	??___flmul,w
  5170  0155  1683               	bsf	3,5	;RP0=1, select bank1
  5171  0156  1303               	bcf	3,6	;RP1=0, select bank1
  5172  0157  07A7               	addwf	___flmul@prod^(0+128),f
  5173  0158  1283               	bcf	3,5	;RP0=0, select bank0
  5174  0159  1303               	bcf	3,6	;RP1=0, select bank0
  5175  015A  0862               	movf	??___flmul+1,w
  5176  015B  1103               	clrz
  5177  015C  1803               	skipnc
  5178  015D  3E01               	addlw	1
  5179  015E  1903               	skipnz
  5180  015F  2963               	goto	u3311
  5181  0160  1683               	bsf	3,5	;RP0=1, select bank1
  5182  0161  1303               	bcf	3,6	;RP1=0, select bank1
  5183  0162  07A8               	addwf	(___flmul@prod+1)^(0+128),f
  5184  0163                     u3311:
  5185  0163  1283               	bcf	3,5	;RP0=0, select bank0
  5186  0164  1303               	bcf	3,6	;RP1=0, select bank0
  5187  0165  0863               	movf	??___flmul+2,w
  5188  0166  1103               	clrz
  5189  0167  1803               	skipnc
  5190  0168  3E01               	addlw	1
  5191  0169  1903               	skipnz
  5192  016A  296E               	goto	u3312
  5193  016B  1683               	bsf	3,5	;RP0=1, select bank1
  5194  016C  1303               	bcf	3,6	;RP1=0, select bank1
  5195  016D  07A9               	addwf	(___flmul@prod+2)^(0+128),f
  5196  016E                     u3312:
  5197  016E  1283               	bcf	3,5	;RP0=0, select bank0
  5198  016F  1303               	bcf	3,6	;RP1=0, select bank0
  5199  0170  0864               	movf	??___flmul+3,w
  5200  0171  1103               	clrz
  5201  0172  1803               	skipnc
  5202  0173  3E01               	addlw	1
  5203  0174  1903               	skipnz
  5204  0175  2979               	goto	u3313
  5205  0176  1683               	bsf	3,5	;RP0=1, select bank1
  5206  0177  1303               	bcf	3,6	;RP1=0, select bank1
  5207  0178  07AA               	addwf	(___flmul@prod+3)^(0+128),f
  5208  0179                     u3313:
  5209  0179  1283               	bcf	3,5	;RP0=0, select bank0
  5210  017A  1303               	bcf	3,6	;RP1=0, select bank0
  5211  017B  1683               	bsf	3,5	;RP0=1, select bank1
  5212  017C  1303               	bcf	3,6	;RP1=0, select bank1
  5213  017D  1283               	bcf	3,5	;RP0=0, select bank0
  5214  017E  1303               	bcf	3,6	;RP1=0, select bank0
  5215  017F  085B               	movf	___flmul@b+2,w
  5216  0180  00E1               	movwf	??___flmul
  5217  0181  0861               	movf	??___flmul,w
  5218  0182  00A0               	movwf	__Umul8_16@multiplicand
  5219  0183  085D               	movf	___flmul@a,w
  5220  0184  160A  118A  221D  120A  118A  	fcall	__Umul8_16
  5221  0189  1283               	bcf	3,5	;RP0=0, select bank0
  5222  018A  1303               	bcf	3,6	;RP1=0, select bank0
  5223  018B  0821               	movf	?__Umul8_16+1,w
  5224  018C  1683               	bsf	3,5	;RP0=1, select bank1
  5225  018D  1303               	bcf	3,6	;RP1=0, select bank1
  5226  018E  00AC               	movwf	(___flmul@temp+1)^(0+128)
  5227  018F  1283               	bcf	3,5	;RP0=0, select bank0
  5228  0190  1303               	bcf	3,6	;RP1=0, select bank0
  5229  0191  0820               	movf	?__Umul8_16,w
  5230  0192  1683               	bsf	3,5	;RP0=1, select bank1
  5231  0193  1303               	bcf	3,6	;RP1=0, select bank1
  5232  0194  00AB               	movwf	___flmul@temp^(0+128)
  5233  0195                     l2636:
  5234  0195  082B               	movf	___flmul@temp^(0+128),w
  5235  0196  1283               	bcf	3,5	;RP0=0, select bank0
  5236  0197  1303               	bcf	3,6	;RP1=0, select bank0
  5237  0198  00E1               	movwf	??___flmul
  5238  0199  01E2               	clrf	??___flmul+1
  5239  019A  01E3               	clrf	??___flmul+2
  5240  019B  01E4               	clrf	??___flmul+3
  5241  019C  0861               	movf	??___flmul,w
  5242  019D  1683               	bsf	3,5	;RP0=1, select bank1
  5243  019E  1303               	bcf	3,6	;RP1=0, select bank1
  5244  019F  07A1               	addwf	___flmul@grs^(0+128),f
  5245  01A0  1283               	bcf	3,5	;RP0=0, select bank0
  5246  01A1  1303               	bcf	3,6	;RP1=0, select bank0
  5247  01A2  0862               	movf	??___flmul+1,w
  5248  01A3  1103               	clrz
  5249  01A4  1803               	skipnc
  5250  01A5  3E01               	addlw	1
  5251  01A6  1903               	skipnz
  5252  01A7  29AB               	goto	u3321
  5253  01A8  1683               	bsf	3,5	;RP0=1, select bank1
  5254  01A9  1303               	bcf	3,6	;RP1=0, select bank1
  5255  01AA  07A2               	addwf	(___flmul@grs+1)^(0+128),f
  5256  01AB                     u3321:
  5257  01AB  1283               	bcf	3,5	;RP0=0, select bank0
  5258  01AC  1303               	bcf	3,6	;RP1=0, select bank0
  5259  01AD  0863               	movf	??___flmul+2,w
  5260  01AE  1103               	clrz
  5261  01AF  1803               	skipnc
  5262  01B0  3E01               	addlw	1
  5263  01B1  1903               	skipnz
  5264  01B2  29B6               	goto	u3322
  5265  01B3  1683               	bsf	3,5	;RP0=1, select bank1
  5266  01B4  1303               	bcf	3,6	;RP1=0, select bank1
  5267  01B5  07A3               	addwf	(___flmul@grs+2)^(0+128),f
  5268  01B6                     u3322:
  5269  01B6  1283               	bcf	3,5	;RP0=0, select bank0
  5270  01B7  1303               	bcf	3,6	;RP1=0, select bank0
  5271  01B8  0864               	movf	??___flmul+3,w
  5272  01B9  1103               	clrz
  5273  01BA  1803               	skipnc
  5274  01BB  3E01               	addlw	1
  5275  01BC  1903               	skipnz
  5276  01BD  29C1               	goto	u3323
  5277  01BE  1683               	bsf	3,5	;RP0=1, select bank1
  5278  01BF  1303               	bcf	3,6	;RP1=0, select bank1
  5279  01C0  07A4               	addwf	(___flmul@grs+3)^(0+128),f
  5280  01C1                     u3323:
  5281  01C1  1283               	bcf	3,5	;RP0=0, select bank0
  5282  01C2  1303               	bcf	3,6	;RP1=0, select bank0
  5283  01C3  1683               	bsf	3,5	;RP0=1, select bank1
  5284  01C4  1303               	bcf	3,6	;RP1=0, select bank1
  5285  01C5                     l2638:
  5286  01C5  082C               	movf	(___flmul@temp^(0+128)+1),w
  5287  01C6  1283               	bcf	3,5	;RP0=0, select bank0
  5288  01C7  1303               	bcf	3,6	;RP1=0, select bank0
  5289  01C8  00E1               	movwf	??___flmul
  5290  01C9  01E2               	clrf	??___flmul+1
  5291  01CA  01E3               	clrf	??___flmul+2
  5292  01CB  01E4               	clrf	??___flmul+3
  5293  01CC  0861               	movf	??___flmul,w
  5294  01CD  1683               	bsf	3,5	;RP0=1, select bank1
  5295  01CE  1303               	bcf	3,6	;RP1=0, select bank1
  5296  01CF  07A7               	addwf	___flmul@prod^(0+128),f
  5297  01D0  1283               	bcf	3,5	;RP0=0, select bank0
  5298  01D1  1303               	bcf	3,6	;RP1=0, select bank0
  5299  01D2  0862               	movf	??___flmul+1,w
  5300  01D3  1103               	clrz
  5301  01D4  1803               	skipnc
  5302  01D5  3E01               	addlw	1
  5303  01D6  1903               	skipnz
  5304  01D7  29DB               	goto	u3331
  5305  01D8  1683               	bsf	3,5	;RP0=1, select bank1
  5306  01D9  1303               	bcf	3,6	;RP1=0, select bank1
  5307  01DA  07A8               	addwf	(___flmul@prod+1)^(0+128),f
  5308  01DB                     u3331:
  5309  01DB  1283               	bcf	3,5	;RP0=0, select bank0
  5310  01DC  1303               	bcf	3,6	;RP1=0, select bank0
  5311  01DD  0863               	movf	??___flmul+2,w
  5312  01DE  1103               	clrz
  5313  01DF  1803               	skipnc
  5314  01E0  3E01               	addlw	1
  5315  01E1  1903               	skipnz
  5316  01E2  29E6               	goto	u3332
  5317  01E3  1683               	bsf	3,5	;RP0=1, select bank1
  5318  01E4  1303               	bcf	3,6	;RP1=0, select bank1
  5319  01E5  07A9               	addwf	(___flmul@prod+2)^(0+128),f
  5320  01E6                     u3332:
  5321  01E6  1283               	bcf	3,5	;RP0=0, select bank0
  5322  01E7  1303               	bcf	3,6	;RP1=0, select bank0
  5323  01E8  0864               	movf	??___flmul+3,w
  5324  01E9  1103               	clrz
  5325  01EA  1803               	skipnc
  5326  01EB  3E01               	addlw	1
  5327  01EC  1903               	skipnz
  5328  01ED  29F1               	goto	u3333
  5329  01EE  1683               	bsf	3,5	;RP0=1, select bank1
  5330  01EF  1303               	bcf	3,6	;RP1=0, select bank1
  5331  01F0  07AA               	addwf	(___flmul@prod+3)^(0+128),f
  5332  01F1                     u3333:
  5333  01F1  1283               	bcf	3,5	;RP0=0, select bank0
  5334  01F2  1303               	bcf	3,6	;RP1=0, select bank0
  5335  01F3  1683               	bsf	3,5	;RP0=1, select bank1
  5336  01F4  1303               	bcf	3,6	;RP1=0, select bank1
  5337  01F5                     l2640:
  5338  01F5  3008               	movlw	8
  5339  01F6  1283               	bcf	3,5	;RP0=0, select bank0
  5340  01F7  1303               	bcf	3,6	;RP1=0, select bank0
  5341  01F8  00E1               	movwf	??___flmul
  5342  01F9                     u3345:
  5343  01F9  1003               	clrc
  5344  01FA  1683               	bsf	3,5	;RP0=1, select bank1
  5345  01FB  1303               	bcf	3,6	;RP1=0, select bank1
  5346  01FC  0DA1               	rlf	___flmul@grs^(0+128),f
  5347  01FD  0DA2               	rlf	(___flmul@grs+1)^(0+128),f
  5348  01FE  0DA3               	rlf	(___flmul@grs+2)^(0+128),f
  5349  01FF  0DA4               	rlf	(___flmul@grs+3)^(0+128),f
  5350  0200  1283               	bcf	3,5	;RP0=0, select bank0
  5351  0201  1303               	bcf	3,6	;RP1=0, select bank0
  5352  0202  0BE1               	decfsz	??___flmul,f
  5353  0203  29F9               	goto	u3345
  5354  0204                     l2642:
  5355  0204  085A               	movf	___flmul@b+1,w
  5356  0205  00E1               	movwf	??___flmul
  5357  0206  0861               	movf	??___flmul,w
  5358  0207  00A0               	movwf	__Umul8_16@multiplicand
  5359  0208  085D               	movf	___flmul@a,w
  5360  0209  160A  118A  221D  120A  118A  	fcall	__Umul8_16
  5361  020E  1283               	bcf	3,5	;RP0=0, select bank0
  5362  020F  1303               	bcf	3,6	;RP1=0, select bank0
  5363  0210  0821               	movf	?__Umul8_16+1,w
  5364  0211  1683               	bsf	3,5	;RP0=1, select bank1
  5365  0212  1303               	bcf	3,6	;RP1=0, select bank1
  5366  0213  00AC               	movwf	(___flmul@temp+1)^(0+128)
  5367  0214  1283               	bcf	3,5	;RP0=0, select bank0
  5368  0215  1303               	bcf	3,6	;RP1=0, select bank0
  5369  0216  0820               	movf	?__Umul8_16,w
  5370  0217  1683               	bsf	3,5	;RP0=1, select bank1
  5371  0218  1303               	bcf	3,6	;RP1=0, select bank1
  5372  0219  00AB               	movwf	___flmul@temp^(0+128)
  5373  021A                     l2644:
  5374  021A  082B               	movf	___flmul@temp^(0+128),w
  5375  021B  1283               	bcf	3,5	;RP0=0, select bank0
  5376  021C  1303               	bcf	3,6	;RP1=0, select bank0
  5377  021D  00E1               	movwf	??___flmul
  5378  021E  1683               	bsf	3,5	;RP0=1, select bank1
  5379  021F  1303               	bcf	3,6	;RP1=0, select bank1
  5380  0220  082C               	movf	(___flmul@temp+1)^(0+128),w
  5381  0221  1283               	bcf	3,5	;RP0=0, select bank0
  5382  0222  1303               	bcf	3,6	;RP1=0, select bank0
  5383  0223  00E2               	movwf	??___flmul+1
  5384  0224  01E3               	clrf	??___flmul+2
  5385  0225  01E4               	clrf	??___flmul+3
  5386  0226  0861               	movf	??___flmul,w
  5387  0227  1683               	bsf	3,5	;RP0=1, select bank1
  5388  0228  1303               	bcf	3,6	;RP1=0, select bank1
  5389  0229  07A1               	addwf	___flmul@grs^(0+128),f
  5390  022A  1283               	bcf	3,5	;RP0=0, select bank0
  5391  022B  1303               	bcf	3,6	;RP1=0, select bank0
  5392  022C  0862               	movf	??___flmul+1,w
  5393  022D  1103               	clrz
  5394  022E  1803               	skipnc
  5395  022F  3E01               	addlw	1
  5396  0230  1903               	skipnz
  5397  0231  2A35               	goto	u3351
  5398  0232  1683               	bsf	3,5	;RP0=1, select bank1
  5399  0233  1303               	bcf	3,6	;RP1=0, select bank1
  5400  0234  07A2               	addwf	(___flmul@grs+1)^(0+128),f
  5401  0235                     u3351:
  5402  0235  1283               	bcf	3,5	;RP0=0, select bank0
  5403  0236  1303               	bcf	3,6	;RP1=0, select bank0
  5404  0237  0863               	movf	??___flmul+2,w
  5405  0238  1103               	clrz
  5406  0239  1803               	skipnc
  5407  023A  3E01               	addlw	1
  5408  023B  1903               	skipnz
  5409  023C  2A40               	goto	u3352
  5410  023D  1683               	bsf	3,5	;RP0=1, select bank1
  5411  023E  1303               	bcf	3,6	;RP1=0, select bank1
  5412  023F  07A3               	addwf	(___flmul@grs+2)^(0+128),f
  5413  0240                     u3352:
  5414  0240  1283               	bcf	3,5	;RP0=0, select bank0
  5415  0241  1303               	bcf	3,6	;RP1=0, select bank0
  5416  0242  0864               	movf	??___flmul+3,w
  5417  0243  1103               	clrz
  5418  0244  1803               	skipnc
  5419  0245  3E01               	addlw	1
  5420  0246  1903               	skipnz
  5421  0247  2A4B               	goto	u3353
  5422  0248  1683               	bsf	3,5	;RP0=1, select bank1
  5423  0249  1303               	bcf	3,6	;RP1=0, select bank1
  5424  024A  07A4               	addwf	(___flmul@grs+3)^(0+128),f
  5425  024B                     u3353:
  5426  024B  1283               	bcf	3,5	;RP0=0, select bank0
  5427  024C  1303               	bcf	3,6	;RP1=0, select bank0
  5428  024D  1683               	bsf	3,5	;RP0=1, select bank1
  5429  024E  1303               	bcf	3,6	;RP1=0, select bank1
  5430  024F                     l2646:
  5431  024F  1283               	bcf	3,5	;RP0=0, select bank0
  5432  0250  1303               	bcf	3,6	;RP1=0, select bank0
  5433  0251  0859               	movf	___flmul@b,w
  5434  0252  00E1               	movwf	??___flmul
  5435  0253  0861               	movf	??___flmul,w
  5436  0254  00A0               	movwf	__Umul8_16@multiplicand
  5437  0255  085E               	movf	___flmul@a+1,w
  5438  0256  160A  118A  221D  120A  118A  	fcall	__Umul8_16
  5439  025B  1283               	bcf	3,5	;RP0=0, select bank0
  5440  025C  1303               	bcf	3,6	;RP1=0, select bank0
  5441  025D  0821               	movf	?__Umul8_16+1,w
  5442  025E  1683               	bsf	3,5	;RP0=1, select bank1
  5443  025F  1303               	bcf	3,6	;RP1=0, select bank1
  5444  0260  00AC               	movwf	(___flmul@temp+1)^(0+128)
  5445  0261  1283               	bcf	3,5	;RP0=0, select bank0
  5446  0262  1303               	bcf	3,6	;RP1=0, select bank0
  5447  0263  0820               	movf	?__Umul8_16,w
  5448  0264  1683               	bsf	3,5	;RP0=1, select bank1
  5449  0265  1303               	bcf	3,6	;RP1=0, select bank1
  5450  0266  00AB               	movwf	___flmul@temp^(0+128)
  5451  0267                     l2648:
  5452  0267  082B               	movf	___flmul@temp^(0+128),w
  5453  0268  1283               	bcf	3,5	;RP0=0, select bank0
  5454  0269  1303               	bcf	3,6	;RP1=0, select bank0
  5455  026A  00E1               	movwf	??___flmul
  5456  026B  1683               	bsf	3,5	;RP0=1, select bank1
  5457  026C  1303               	bcf	3,6	;RP1=0, select bank1
  5458  026D  082C               	movf	(___flmul@temp+1)^(0+128),w
  5459  026E  1283               	bcf	3,5	;RP0=0, select bank0
  5460  026F  1303               	bcf	3,6	;RP1=0, select bank0
  5461  0270  00E2               	movwf	??___flmul+1
  5462  0271  01E3               	clrf	??___flmul+2
  5463  0272  01E4               	clrf	??___flmul+3
  5464  0273  0861               	movf	??___flmul,w
  5465  0274  1683               	bsf	3,5	;RP0=1, select bank1
  5466  0275  1303               	bcf	3,6	;RP1=0, select bank1
  5467  0276  07A1               	addwf	___flmul@grs^(0+128),f
  5468  0277  1283               	bcf	3,5	;RP0=0, select bank0
  5469  0278  1303               	bcf	3,6	;RP1=0, select bank0
  5470  0279  0862               	movf	??___flmul+1,w
  5471  027A  1103               	clrz
  5472  027B  1803               	skipnc
  5473  027C  3E01               	addlw	1
  5474  027D  1903               	skipnz
  5475  027E  2A82               	goto	u3361
  5476  027F  1683               	bsf	3,5	;RP0=1, select bank1
  5477  0280  1303               	bcf	3,6	;RP1=0, select bank1
  5478  0281  07A2               	addwf	(___flmul@grs+1)^(0+128),f
  5479  0282                     u3361:
  5480  0282  1283               	bcf	3,5	;RP0=0, select bank0
  5481  0283  1303               	bcf	3,6	;RP1=0, select bank0
  5482  0284  0863               	movf	??___flmul+2,w
  5483  0285  1103               	clrz
  5484  0286  1803               	skipnc
  5485  0287  3E01               	addlw	1
  5486  0288  1903               	skipnz
  5487  0289  2A8D               	goto	u3362
  5488  028A  1683               	bsf	3,5	;RP0=1, select bank1
  5489  028B  1303               	bcf	3,6	;RP1=0, select bank1
  5490  028C  07A3               	addwf	(___flmul@grs+2)^(0+128),f
  5491  028D                     u3362:
  5492  028D  1283               	bcf	3,5	;RP0=0, select bank0
  5493  028E  1303               	bcf	3,6	;RP1=0, select bank0
  5494  028F  0864               	movf	??___flmul+3,w
  5495  0290  1103               	clrz
  5496  0291  1803               	skipnc
  5497  0292  3E01               	addlw	1
  5498  0293  1903               	skipnz
  5499  0294  2A98               	goto	u3363
  5500  0295  1683               	bsf	3,5	;RP0=1, select bank1
  5501  0296  1303               	bcf	3,6	;RP1=0, select bank1
  5502  0297  07A4               	addwf	(___flmul@grs+3)^(0+128),f
  5503  0298                     u3363:
  5504  0298  1283               	bcf	3,5	;RP0=0, select bank0
  5505  0299  1303               	bcf	3,6	;RP1=0, select bank0
  5506  029A  1683               	bsf	3,5	;RP0=1, select bank1
  5507  029B  1303               	bcf	3,6	;RP1=0, select bank1
  5508  029C                     l2650:
  5509  029C  3008               	movlw	8
  5510  029D  1283               	bcf	3,5	;RP0=0, select bank0
  5511  029E  1303               	bcf	3,6	;RP1=0, select bank0
  5512  029F  00E1               	movwf	??___flmul
  5513  02A0                     u3375:
  5514  02A0  1003               	clrc
  5515  02A1  1683               	bsf	3,5	;RP0=1, select bank1
  5516  02A2  1303               	bcf	3,6	;RP1=0, select bank1
  5517  02A3  0DA1               	rlf	___flmul@grs^(0+128),f
  5518  02A4  0DA2               	rlf	(___flmul@grs+1)^(0+128),f
  5519  02A5  0DA3               	rlf	(___flmul@grs+2)^(0+128),f
  5520  02A6  0DA4               	rlf	(___flmul@grs+3)^(0+128),f
  5521  02A7  1283               	bcf	3,5	;RP0=0, select bank0
  5522  02A8  1303               	bcf	3,6	;RP1=0, select bank0
  5523  02A9  0BE1               	decfsz	??___flmul,f
  5524  02AA  2AA0               	goto	u3375
  5525  02AB  0859               	movf	___flmul@b,w
  5526  02AC  00E1               	movwf	??___flmul
  5527  02AD  0861               	movf	??___flmul,w
  5528  02AE  00A0               	movwf	__Umul8_16@multiplicand
  5529  02AF  085D               	movf	___flmul@a,w
  5530  02B0  160A  118A  221D  120A  118A  	fcall	__Umul8_16
  5531  02B5  1283               	bcf	3,5	;RP0=0, select bank0
  5532  02B6  1303               	bcf	3,6	;RP1=0, select bank0
  5533  02B7  0821               	movf	?__Umul8_16+1,w
  5534  02B8  1683               	bsf	3,5	;RP0=1, select bank1
  5535  02B9  1303               	bcf	3,6	;RP1=0, select bank1
  5536  02BA  00AC               	movwf	(___flmul@temp+1)^(0+128)
  5537  02BB  1283               	bcf	3,5	;RP0=0, select bank0
  5538  02BC  1303               	bcf	3,6	;RP1=0, select bank0
  5539  02BD  0820               	movf	?__Umul8_16,w
  5540  02BE  1683               	bsf	3,5	;RP0=1, select bank1
  5541  02BF  1303               	bcf	3,6	;RP1=0, select bank1
  5542  02C0  00AB               	movwf	___flmul@temp^(0+128)
  5543  02C1                     l2652:
  5544  02C1  082B               	movf	___flmul@temp^(0+128),w
  5545  02C2  1283               	bcf	3,5	;RP0=0, select bank0
  5546  02C3  1303               	bcf	3,6	;RP1=0, select bank0
  5547  02C4  00E1               	movwf	??___flmul
  5548  02C5  1683               	bsf	3,5	;RP0=1, select bank1
  5549  02C6  1303               	bcf	3,6	;RP1=0, select bank1
  5550  02C7  082C               	movf	(___flmul@temp+1)^(0+128),w
  5551  02C8  1283               	bcf	3,5	;RP0=0, select bank0
  5552  02C9  1303               	bcf	3,6	;RP1=0, select bank0
  5553  02CA  00E2               	movwf	??___flmul+1
  5554  02CB  01E3               	clrf	??___flmul+2
  5555  02CC  01E4               	clrf	??___flmul+3
  5556  02CD  0861               	movf	??___flmul,w
  5557  02CE  1683               	bsf	3,5	;RP0=1, select bank1
  5558  02CF  1303               	bcf	3,6	;RP1=0, select bank1
  5559  02D0  07A1               	addwf	___flmul@grs^(0+128),f
  5560  02D1  1283               	bcf	3,5	;RP0=0, select bank0
  5561  02D2  1303               	bcf	3,6	;RP1=0, select bank0
  5562  02D3  0862               	movf	??___flmul+1,w
  5563  02D4  1103               	clrz
  5564  02D5  1803               	skipnc
  5565  02D6  3E01               	addlw	1
  5566  02D7  1903               	skipnz
  5567  02D8  2ADC               	goto	u3381
  5568  02D9  1683               	bsf	3,5	;RP0=1, select bank1
  5569  02DA  1303               	bcf	3,6	;RP1=0, select bank1
  5570  02DB  07A2               	addwf	(___flmul@grs+1)^(0+128),f
  5571  02DC                     u3381:
  5572  02DC  1283               	bcf	3,5	;RP0=0, select bank0
  5573  02DD  1303               	bcf	3,6	;RP1=0, select bank0
  5574  02DE  0863               	movf	??___flmul+2,w
  5575  02DF  1103               	clrz
  5576  02E0  1803               	skipnc
  5577  02E1  3E01               	addlw	1
  5578  02E2  1903               	skipnz
  5579  02E3  2AE7               	goto	u3382
  5580  02E4  1683               	bsf	3,5	;RP0=1, select bank1
  5581  02E5  1303               	bcf	3,6	;RP1=0, select bank1
  5582  02E6  07A3               	addwf	(___flmul@grs+2)^(0+128),f
  5583  02E7                     u3382:
  5584  02E7  1283               	bcf	3,5	;RP0=0, select bank0
  5585  02E8  1303               	bcf	3,6	;RP1=0, select bank0
  5586  02E9  0864               	movf	??___flmul+3,w
  5587  02EA  1103               	clrz
  5588  02EB  1803               	skipnc
  5589  02EC  3E01               	addlw	1
  5590  02ED  1903               	skipnz
  5591  02EE  2AF2               	goto	u3383
  5592  02EF  1683               	bsf	3,5	;RP0=1, select bank1
  5593  02F0  1303               	bcf	3,6	;RP1=0, select bank1
  5594  02F1  07A4               	addwf	(___flmul@grs+3)^(0+128),f
  5595  02F2                     u3383:
  5596  02F2  1283               	bcf	3,5	;RP0=0, select bank0
  5597  02F3  1303               	bcf	3,6	;RP1=0, select bank0
  5598  02F4  1683               	bsf	3,5	;RP0=1, select bank1
  5599  02F5  1303               	bcf	3,6	;RP1=0, select bank1
  5600  02F6                     l2654:
  5601  02F6  1283               	bcf	3,5	;RP0=0, select bank0
  5602  02F7  1303               	bcf	3,6	;RP1=0, select bank0
  5603  02F8  085A               	movf	___flmul@b+1,w
  5604  02F9  00E1               	movwf	??___flmul
  5605  02FA  0861               	movf	??___flmul,w
  5606  02FB  00A0               	movwf	__Umul8_16@multiplicand
  5607  02FC  085F               	movf	___flmul@a+2,w
  5608  02FD  160A  118A  221D  120A  118A  	fcall	__Umul8_16
  5609  0302  1283               	bcf	3,5	;RP0=0, select bank0
  5610  0303  1303               	bcf	3,6	;RP1=0, select bank0
  5611  0304  0821               	movf	?__Umul8_16+1,w
  5612  0305  1683               	bsf	3,5	;RP0=1, select bank1
  5613  0306  1303               	bcf	3,6	;RP1=0, select bank1
  5614  0307  00AC               	movwf	(___flmul@temp+1)^(0+128)
  5615  0308  1283               	bcf	3,5	;RP0=0, select bank0
  5616  0309  1303               	bcf	3,6	;RP1=0, select bank0
  5617  030A  0820               	movf	?__Umul8_16,w
  5618  030B  1683               	bsf	3,5	;RP0=1, select bank1
  5619  030C  1303               	bcf	3,6	;RP1=0, select bank1
  5620  030D  00AB               	movwf	___flmul@temp^(0+128)
  5621  030E  082B               	movf	___flmul@temp^(0+128),w
  5622  030F  1283               	bcf	3,5	;RP0=0, select bank0
  5623  0310  1303               	bcf	3,6	;RP1=0, select bank0
  5624  0311  00E1               	movwf	??___flmul
  5625  0312  1683               	bsf	3,5	;RP0=1, select bank1
  5626  0313  1303               	bcf	3,6	;RP1=0, select bank1
  5627  0314  082C               	movf	(___flmul@temp+1)^(0+128),w
  5628  0315  1283               	bcf	3,5	;RP0=0, select bank0
  5629  0316  1303               	bcf	3,6	;RP1=0, select bank0
  5630  0317  00E2               	movwf	??___flmul+1
  5631  0318  01E3               	clrf	??___flmul+2
  5632  0319  01E4               	clrf	??___flmul+3
  5633  031A  0861               	movf	??___flmul,w
  5634  031B  1683               	bsf	3,5	;RP0=1, select bank1
  5635  031C  1303               	bcf	3,6	;RP1=0, select bank1
  5636  031D  07A7               	addwf	___flmul@prod^(0+128),f
  5637  031E  1283               	bcf	3,5	;RP0=0, select bank0
  5638  031F  1303               	bcf	3,6	;RP1=0, select bank0
  5639  0320  0862               	movf	??___flmul+1,w
  5640  0321  1103               	clrz
  5641  0322  1803               	skipnc
  5642  0323  3E01               	addlw	1
  5643  0324  1903               	skipnz
  5644  0325  2B29               	goto	u3391
  5645  0326  1683               	bsf	3,5	;RP0=1, select bank1
  5646  0327  1303               	bcf	3,6	;RP1=0, select bank1
  5647  0328  07A8               	addwf	(___flmul@prod+1)^(0+128),f
  5648  0329                     u3391:
  5649  0329  1283               	bcf	3,5	;RP0=0, select bank0
  5650  032A  1303               	bcf	3,6	;RP1=0, select bank0
  5651  032B  0863               	movf	??___flmul+2,w
  5652  032C  1103               	clrz
  5653  032D  1803               	skipnc
  5654  032E  3E01               	addlw	1
  5655  032F  1903               	skipnz
  5656  0330  2B34               	goto	u3392
  5657  0331  1683               	bsf	3,5	;RP0=1, select bank1
  5658  0332  1303               	bcf	3,6	;RP1=0, select bank1
  5659  0333  07A9               	addwf	(___flmul@prod+2)^(0+128),f
  5660  0334                     u3392:
  5661  0334  1283               	bcf	3,5	;RP0=0, select bank0
  5662  0335  1303               	bcf	3,6	;RP1=0, select bank0
  5663  0336  0864               	movf	??___flmul+3,w
  5664  0337  1103               	clrz
  5665  0338  1803               	skipnc
  5666  0339  3E01               	addlw	1
  5667  033A  1903               	skipnz
  5668  033B  2B3F               	goto	u3393
  5669  033C  1683               	bsf	3,5	;RP0=1, select bank1
  5670  033D  1303               	bcf	3,6	;RP1=0, select bank1
  5671  033E  07AA               	addwf	(___flmul@prod+3)^(0+128),f
  5672  033F                     u3393:
  5673  033F  1283               	bcf	3,5	;RP0=0, select bank0
  5674  0340  1303               	bcf	3,6	;RP1=0, select bank0
  5675  0341  1683               	bsf	3,5	;RP0=1, select bank1
  5676  0342  1303               	bcf	3,6	;RP1=0, select bank1
  5677  0343                     l2656:
  5678  0343  1283               	bcf	3,5	;RP0=0, select bank0
  5679  0344  1303               	bcf	3,6	;RP1=0, select bank0
  5680  0345  085B               	movf	___flmul@b+2,w
  5681  0346  00E1               	movwf	??___flmul
  5682  0347  0861               	movf	??___flmul,w
  5683  0348  00A0               	movwf	__Umul8_16@multiplicand
  5684  0349  085E               	movf	___flmul@a+1,w
  5685  034A  160A  118A  221D  120A  118A  	fcall	__Umul8_16
  5686  034F  1283               	bcf	3,5	;RP0=0, select bank0
  5687  0350  1303               	bcf	3,6	;RP1=0, select bank0
  5688  0351  0821               	movf	?__Umul8_16+1,w
  5689  0352  1683               	bsf	3,5	;RP0=1, select bank1
  5690  0353  1303               	bcf	3,6	;RP1=0, select bank1
  5691  0354  00AC               	movwf	(___flmul@temp+1)^(0+128)
  5692  0355  1283               	bcf	3,5	;RP0=0, select bank0
  5693  0356  1303               	bcf	3,6	;RP1=0, select bank0
  5694  0357  0820               	movf	?__Umul8_16,w
  5695  0358  1683               	bsf	3,5	;RP0=1, select bank1
  5696  0359  1303               	bcf	3,6	;RP1=0, select bank1
  5697  035A  00AB               	movwf	___flmul@temp^(0+128)
  5698  035B                     l2658:
  5699  035B  082B               	movf	___flmul@temp^(0+128),w
  5700  035C  1283               	bcf	3,5	;RP0=0, select bank0
  5701  035D  1303               	bcf	3,6	;RP1=0, select bank0
  5702  035E  00E1               	movwf	??___flmul
  5703  035F  1683               	bsf	3,5	;RP0=1, select bank1
  5704  0360  1303               	bcf	3,6	;RP1=0, select bank1
  5705  0361  082C               	movf	(___flmul@temp+1)^(0+128),w
  5706  0362  1283               	bcf	3,5	;RP0=0, select bank0
  5707  0363  1303               	bcf	3,6	;RP1=0, select bank0
  5708  0364  00E2               	movwf	??___flmul+1
  5709  0365  01E3               	clrf	??___flmul+2
  5710  0366  01E4               	clrf	??___flmul+3
  5711  0367  0861               	movf	??___flmul,w
  5712  0368  1683               	bsf	3,5	;RP0=1, select bank1
  5713  0369  1303               	bcf	3,6	;RP1=0, select bank1
  5714  036A  07A7               	addwf	___flmul@prod^(0+128),f
  5715  036B  1283               	bcf	3,5	;RP0=0, select bank0
  5716  036C  1303               	bcf	3,6	;RP1=0, select bank0
  5717  036D  0862               	movf	??___flmul+1,w
  5718  036E  1103               	clrz
  5719  036F  1803               	skipnc
  5720  0370  3E01               	addlw	1
  5721  0371  1903               	skipnz
  5722  0372  2B76               	goto	u3401
  5723  0373  1683               	bsf	3,5	;RP0=1, select bank1
  5724  0374  1303               	bcf	3,6	;RP1=0, select bank1
  5725  0375  07A8               	addwf	(___flmul@prod+1)^(0+128),f
  5726  0376                     u3401:
  5727  0376  1283               	bcf	3,5	;RP0=0, select bank0
  5728  0377  1303               	bcf	3,6	;RP1=0, select bank0
  5729  0378  0863               	movf	??___flmul+2,w
  5730  0379  1103               	clrz
  5731  037A  1803               	skipnc
  5732  037B  3E01               	addlw	1
  5733  037C  1903               	skipnz
  5734  037D  2B81               	goto	u3402
  5735  037E  1683               	bsf	3,5	;RP0=1, select bank1
  5736  037F  1303               	bcf	3,6	;RP1=0, select bank1
  5737  0380  07A9               	addwf	(___flmul@prod+2)^(0+128),f
  5738  0381                     u3402:
  5739  0381  1283               	bcf	3,5	;RP0=0, select bank0
  5740  0382  1303               	bcf	3,6	;RP1=0, select bank0
  5741  0383  0864               	movf	??___flmul+3,w
  5742  0384  1103               	clrz
  5743  0385  1803               	skipnc
  5744  0386  3E01               	addlw	1
  5745  0387  1903               	skipnz
  5746  0388  2B8C               	goto	u3403
  5747  0389  1683               	bsf	3,5	;RP0=1, select bank1
  5748  038A  1303               	bcf	3,6	;RP1=0, select bank1
  5749  038B  07AA               	addwf	(___flmul@prod+3)^(0+128),f
  5750  038C                     u3403:
  5751  038C  1283               	bcf	3,5	;RP0=0, select bank0
  5752  038D  1303               	bcf	3,6	;RP1=0, select bank0
  5753  038E  1683               	bsf	3,5	;RP0=1, select bank1
  5754  038F  1303               	bcf	3,6	;RP1=0, select bank1
  5755  0390  1283               	bcf	3,5	;RP0=0, select bank0
  5756  0391  1303               	bcf	3,6	;RP1=0, select bank0
  5757  0392  085B               	movf	___flmul@b+2,w
  5758  0393  00E1               	movwf	??___flmul
  5759  0394  0861               	movf	??___flmul,w
  5760  0395  00A0               	movwf	__Umul8_16@multiplicand
  5761  0396  085F               	movf	___flmul@a+2,w
  5762  0397  160A  118A  221D  120A  118A  	fcall	__Umul8_16
  5763  039C  1283               	bcf	3,5	;RP0=0, select bank0
  5764  039D  1303               	bcf	3,6	;RP1=0, select bank0
  5765  039E  0821               	movf	?__Umul8_16+1,w
  5766  039F  1683               	bsf	3,5	;RP0=1, select bank1
  5767  03A0  1303               	bcf	3,6	;RP1=0, select bank1
  5768  03A1  00AC               	movwf	(___flmul@temp+1)^(0+128)
  5769  03A2  1283               	bcf	3,5	;RP0=0, select bank0
  5770  03A3  1303               	bcf	3,6	;RP1=0, select bank0
  5771  03A4  0820               	movf	?__Umul8_16,w
  5772  03A5  1683               	bsf	3,5	;RP0=1, select bank1
  5773  03A6  1303               	bcf	3,6	;RP1=0, select bank1
  5774  03A7  00AB               	movwf	___flmul@temp^(0+128)
  5775  03A8                     l2660:
  5776  03A8  082B               	movf	___flmul@temp^(0+128),w
  5777  03A9  1283               	bcf	3,5	;RP0=0, select bank0
  5778  03AA  1303               	bcf	3,6	;RP1=0, select bank0
  5779  03AB  00E1               	movwf	??___flmul
  5780  03AC  1683               	bsf	3,5	;RP0=1, select bank1
  5781  03AD  1303               	bcf	3,6	;RP1=0, select bank1
  5782  03AE  082C               	movf	(___flmul@temp+1)^(0+128),w
  5783  03AF  1283               	bcf	3,5	;RP0=0, select bank0
  5784  03B0  1303               	bcf	3,6	;RP1=0, select bank0
  5785  03B1  00E2               	movwf	??___flmul+1
  5786  03B2  01E3               	clrf	??___flmul+2
  5787  03B3  01E4               	clrf	??___flmul+3
  5788  03B4  3008               	movlw	8
  5789  03B5                     u3415:
  5790  03B5  1003               	clrc
  5791  03B6  0DE1               	rlf	??___flmul,f
  5792  03B7  0DE2               	rlf	??___flmul+1,f
  5793  03B8  0DE3               	rlf	??___flmul+2,f
  5794  03B9  0DE4               	rlf	??___flmul+3,f
  5795  03BA                     u3410:
  5796  03BA  3EFF               	addlw	-1
  5797  03BB  1D03               	skipz
  5798  03BC  2BB5               	goto	u3415
  5799  03BD  0861               	movf	??___flmul,w
  5800  03BE  1683               	bsf	3,5	;RP0=1, select bank1
  5801  03BF  1303               	bcf	3,6	;RP1=0, select bank1
  5802  03C0  07A7               	addwf	___flmul@prod^(0+128),f
  5803  03C1  1283               	bcf	3,5	;RP0=0, select bank0
  5804  03C2  1303               	bcf	3,6	;RP1=0, select bank0
  5805  03C3  0862               	movf	??___flmul+1,w
  5806  03C4  1103               	clrz
  5807  03C5  1803               	skipnc
  5808  03C6  3E01               	addlw	1
  5809  03C7  1903               	skipnz
  5810  03C8  2BCC               	goto	u3421
  5811  03C9  1683               	bsf	3,5	;RP0=1, select bank1
  5812  03CA  1303               	bcf	3,6	;RP1=0, select bank1
  5813  03CB  07A8               	addwf	(___flmul@prod+1)^(0+128),f
  5814  03CC                     u3421:
  5815  03CC  1283               	bcf	3,5	;RP0=0, select bank0
  5816  03CD  1303               	bcf	3,6	;RP1=0, select bank0
  5817  03CE  0863               	movf	??___flmul+2,w
  5818  03CF  1103               	clrz
  5819  03D0  1803               	skipnc
  5820  03D1  3E01               	addlw	1
  5821  03D2  1903               	skipnz
  5822  03D3  2BD7               	goto	u3422
  5823  03D4  1683               	bsf	3,5	;RP0=1, select bank1
  5824  03D5  1303               	bcf	3,6	;RP1=0, select bank1
  5825  03D6  07A9               	addwf	(___flmul@prod+2)^(0+128),f
  5826  03D7                     u3422:
  5827  03D7  1283               	bcf	3,5	;RP0=0, select bank0
  5828  03D8  1303               	bcf	3,6	;RP1=0, select bank0
  5829  03D9  0864               	movf	??___flmul+3,w
  5830  03DA  1103               	clrz
  5831  03DB  1803               	skipnc
  5832  03DC  3E01               	addlw	1
  5833  03DD  1903               	skipnz
  5834  03DE  2BE2               	goto	u3423
  5835  03DF  1683               	bsf	3,5	;RP0=1, select bank1
  5836  03E0  1303               	bcf	3,6	;RP1=0, select bank1
  5837  03E1  07AA               	addwf	(___flmul@prod+3)^(0+128),f
  5838  03E2                     u3423:
  5839  03E2  1283               	bcf	3,5	;RP0=0, select bank0
  5840  03E3  1303               	bcf	3,6	;RP1=0, select bank0
  5841  03E4  1683               	bsf	3,5	;RP0=1, select bank1
  5842  03E5  1303               	bcf	3,6	;RP1=0, select bank1
  5843  03E6                     l2662:
  5844  03E6  0821               	movf	___flmul@grs^(0+128),w
  5845  03E7  1283               	bcf	3,5	;RP0=0, select bank0
  5846  03E8  1303               	bcf	3,6	;RP1=0, select bank0
  5847  03E9  00E1               	movwf	??___flmul
  5848  03EA  1683               	bsf	3,5	;RP0=1, select bank1
  5849  03EB  1303               	bcf	3,6	;RP1=0, select bank1
  5850  03EC  0822               	movf	(___flmul@grs+1)^(0+128),w
  5851  03ED  1283               	bcf	3,5	;RP0=0, select bank0
  5852  03EE  1303               	bcf	3,6	;RP1=0, select bank0
  5853  03EF  00E2               	movwf	??___flmul+1
  5854  03F0  1683               	bsf	3,5	;RP0=1, select bank1
  5855  03F1  1303               	bcf	3,6	;RP1=0, select bank1
  5856  03F2  0823               	movf	(___flmul@grs+2)^(0+128),w
  5857  03F3  1283               	bcf	3,5	;RP0=0, select bank0
  5858  03F4  1303               	bcf	3,6	;RP1=0, select bank0
  5859  03F5  00E3               	movwf	??___flmul+2
  5860  03F6  1683               	bsf	3,5	;RP0=1, select bank1
  5861  03F7  1303               	bcf	3,6	;RP1=0, select bank1
  5862  03F8  0824               	movf	(___flmul@grs+3)^(0+128),w
  5863  03F9  1283               	bcf	3,5	;RP0=0, select bank0
  5864  03FA  1303               	bcf	3,6	;RP1=0, select bank0
  5865  03FB  00E4               	movwf	??___flmul+3
  5866  03FC  3018               	movlw	24
  5867  03FD                     u3435:
  5868  03FD  1003               	clrc
  5869  03FE  0CE4               	rrf	??___flmul+3,f
  5870  03FF  0CE3               	rrf	??___flmul+2,f
  5871  0400  0CE2               	rrf	??___flmul+1,f
  5872  0401  0CE1               	rrf	??___flmul,f
  5873  0402                     u3430:
  5874  0402  3EFF               	addlw	-1
  5875  0403  1D03               	skipz
  5876  0404  2BFD               	goto	u3435
  5877  0405  0861               	movf	??___flmul,w
  5878  0406  1683               	bsf	3,5	;RP0=1, select bank1
  5879  0407  1303               	bcf	3,6	;RP1=0, select bank1
  5880  0408  07A7               	addwf	___flmul@prod^(0+128),f
  5881  0409  1283               	bcf	3,5	;RP0=0, select bank0
  5882  040A  1303               	bcf	3,6	;RP1=0, select bank0
  5883  040B  0862               	movf	??___flmul+1,w
  5884  040C  1103               	clrz
  5885  040D  1803               	skipnc
  5886  040E  3E01               	addlw	1
  5887  040F  1903               	skipnz
  5888  0410  2C14               	goto	u3441
  5889  0411  1683               	bsf	3,5	;RP0=1, select bank1
  5890  0412  1303               	bcf	3,6	;RP1=0, select bank1
  5891  0413  07A8               	addwf	(___flmul@prod+1)^(0+128),f
  5892  0414                     u3441:
  5893  0414  1283               	bcf	3,5	;RP0=0, select bank0
  5894  0415  1303               	bcf	3,6	;RP1=0, select bank0
  5895  0416  0863               	movf	??___flmul+2,w
  5896  0417  1103               	clrz
  5897  0418  1803               	skipnc
  5898  0419  3E01               	addlw	1
  5899  041A  1903               	skipnz
  5900  041B  2C1F               	goto	u3442
  5901  041C  1683               	bsf	3,5	;RP0=1, select bank1
  5902  041D  1303               	bcf	3,6	;RP1=0, select bank1
  5903  041E  07A9               	addwf	(___flmul@prod+2)^(0+128),f
  5904  041F                     u3442:
  5905  041F  1283               	bcf	3,5	;RP0=0, select bank0
  5906  0420  1303               	bcf	3,6	;RP1=0, select bank0
  5907  0421  0864               	movf	??___flmul+3,w
  5908  0422  1103               	clrz
  5909  0423  1803               	skipnc
  5910  0424  3E01               	addlw	1
  5911  0425  1903               	skipnz
  5912  0426  2C2A               	goto	u3443
  5913  0427  1683               	bsf	3,5	;RP0=1, select bank1
  5914  0428  1303               	bcf	3,6	;RP1=0, select bank1
  5915  0429  07AA               	addwf	(___flmul@prod+3)^(0+128),f
  5916  042A                     u3443:
  5917  042A  1283               	bcf	3,5	;RP0=0, select bank0
  5918  042B  1303               	bcf	3,6	;RP1=0, select bank0
  5919  042C  1683               	bsf	3,5	;RP0=1, select bank1
  5920  042D  1303               	bcf	3,6	;RP1=0, select bank1
  5921  042E                     l2664:
  5922  042E  3008               	movlw	8
  5923  042F  1283               	bcf	3,5	;RP0=0, select bank0
  5924  0430  1303               	bcf	3,6	;RP1=0, select bank0
  5925  0431  00E1               	movwf	??___flmul
  5926  0432                     u3455:
  5927  0432  1003               	clrc
  5928  0433  1683               	bsf	3,5	;RP0=1, select bank1
  5929  0434  1303               	bcf	3,6	;RP1=0, select bank1
  5930  0435  0DA1               	rlf	___flmul@grs^(0+128),f
  5931  0436  0DA2               	rlf	(___flmul@grs+1)^(0+128),f
  5932  0437  0DA3               	rlf	(___flmul@grs+2)^(0+128),f
  5933  0438  0DA4               	rlf	(___flmul@grs+3)^(0+128),f
  5934  0439  1283               	bcf	3,5	;RP0=0, select bank0
  5935  043A  1303               	bcf	3,6	;RP1=0, select bank0
  5936  043B  0BE1               	decfsz	??___flmul,f
  5937  043C  2C32               	goto	u3455
  5938  043D                     l2666:
  5939  043D  1683               	bsf	3,5	;RP0=1, select bank1
  5940  043E  1303               	bcf	3,6	;RP1=0, select bank1
  5941  043F  0826               	movf	___flmul@bexp^(0+128),w
  5942  0440  0725               	addwf	___flmul@aexp^(0+128),w
  5943  0441  1283               	bcf	3,5	;RP0=0, select bank0
  5944  0442  1303               	bcf	3,6	;RP1=0, select bank0
  5945  0443  00E1               	movwf	??___flmul
  5946  0444  01E2               	clrf	??___flmul+1
  5947  0445  0DE2               	rlf	??___flmul+1,f
  5948  0446  0861               	movf	??___flmul,w
  5949  0447  3E82               	addlw	130
  5950  0448  1683               	bsf	3,5	;RP0=1, select bank1
  5951  0449  1303               	bcf	3,6	;RP1=0, select bank1
  5952  044A  00AB               	movwf	___flmul@temp^(0+128)
  5953  044B  1283               	bcf	3,5	;RP0=0, select bank0
  5954  044C  1303               	bcf	3,6	;RP1=0, select bank0
  5955  044D  0862               	movf	??___flmul+1,w
  5956  044E  1803               	skipnc
  5957  044F  3E01               	addlw	1
  5958  0450  3EFF               	addlw	255
  5959  0451  1683               	bsf	3,5	;RP0=1, select bank1
  5960  0452  1303               	bcf	3,6	;RP1=0, select bank1
  5961  0453  00AC               	movwf	(___flmul@temp+1)^(0+128)
  5962  0454  2C82               	goto	l2678
  5963  0455                     l2668:
  5964  0455  3001               	movlw	1
  5965  0456  1283               	bcf	3,5	;RP0=0, select bank0
  5966  0457  1303               	bcf	3,6	;RP1=0, select bank0
  5967  0458  00E1               	movwf	??___flmul
  5968  0459                     u3465:
  5969  0459  1003               	clrc
  5970  045A  1683               	bsf	3,5	;RP0=1, select bank1
  5971  045B  1303               	bcf	3,6	;RP1=0, select bank1
  5972  045C  0DA7               	rlf	___flmul@prod^(0+128),f
  5973  045D  0DA8               	rlf	(___flmul@prod+1)^(0+128),f
  5974  045E  0DA9               	rlf	(___flmul@prod+2)^(0+128),f
  5975  045F  0DAA               	rlf	(___flmul@prod+3)^(0+128),f
  5976  0460  1283               	bcf	3,5	;RP0=0, select bank0
  5977  0461  1303               	bcf	3,6	;RP1=0, select bank0
  5978  0462  0BE1               	decfsz	??___flmul,f
  5979  0463  2C59               	goto	u3465
  5980  0464                     l2670:
  5981  0464  1683               	bsf	3,5	;RP0=1, select bank1
  5982  0465  1303               	bcf	3,6	;RP1=0, select bank1
  5983  0466  1FA4               	btfss	(___flmul@grs+3)^(0+128),7
  5984  0467  2C69               	goto	u3471
  5985  0468  2C6A               	goto	u3470
  5986  0469                     u3471:
  5987  0469  2C6B               	goto	l2674
  5988  046A                     u3470:
  5989  046A                     l2672:
  5990  046A  1427               	bsf	___flmul@prod^(0+128),0
  5991  046B                     l2674:
  5992  046B  3001               	movlw	1
  5993  046C  1283               	bcf	3,5	;RP0=0, select bank0
  5994  046D  1303               	bcf	3,6	;RP1=0, select bank0
  5995  046E  00E1               	movwf	??___flmul
  5996  046F                     u3485:
  5997  046F  1003               	clrc
  5998  0470  1683               	bsf	3,5	;RP0=1, select bank1
  5999  0471  1303               	bcf	3,6	;RP1=0, select bank1
  6000  0472  0DA1               	rlf	___flmul@grs^(0+128),f
  6001  0473  0DA2               	rlf	(___flmul@grs+1)^(0+128),f
  6002  0474  0DA3               	rlf	(___flmul@grs+2)^(0+128),f
  6003  0475  0DA4               	rlf	(___flmul@grs+3)^(0+128),f
  6004  0476  1283               	bcf	3,5	;RP0=0, select bank0
  6005  0477  1303               	bcf	3,6	;RP1=0, select bank0
  6006  0478  0BE1               	decfsz	??___flmul,f
  6007  0479  2C6F               	goto	u3485
  6008  047A                     l2676:
  6009  047A  30FF               	movlw	255
  6010  047B  1683               	bsf	3,5	;RP0=1, select bank1
  6011  047C  1303               	bcf	3,6	;RP1=0, select bank1
  6012  047D  07AB               	addwf	___flmul@temp^(0+128),f
  6013  047E  1803               	skipnc
  6014  047F  0AAC               	incf	(___flmul@temp+1)^(0+128),f
  6015  0480  30FF               	movlw	255
  6016  0481  07AC               	addwf	(___flmul@temp+1)^(0+128),f
  6017  0482                     l2678:
  6018  0482  1FA9               	btfss	(___flmul@prod+2)^(0+128),7
  6019  0483  2C85               	goto	u3491
  6020  0484  2C86               	goto	u3490
  6021  0485                     u3491:
  6022  0485  2C55               	goto	l2668
  6023  0486                     u3490:
  6024  0486                     l2680:
  6025  0486  01A5               	clrf	___flmul@aexp^(0+128)
  6026  0487                     l2682:
  6027  0487  1FA4               	btfss	(___flmul@grs+3)^(0+128),7
  6028  0488  2C8A               	goto	u3501
  6029  0489  2C8B               	goto	u3500
  6030  048A                     u3501:
  6031  048A  2CB9               	goto	l2690
  6032  048B                     u3500:
  6033  048B                     l2684:
  6034  048B  30FF               	movlw	255
  6035  048C  0521               	andwf	___flmul@grs^(0+128),w
  6036  048D  1283               	bcf	3,5	;RP0=0, select bank0
  6037  048E  1303               	bcf	3,6	;RP1=0, select bank0
  6038  048F  00E1               	movwf	??___flmul
  6039  0490  30FF               	movlw	255
  6040  0491  1683               	bsf	3,5	;RP0=1, select bank1
  6041  0492  1303               	bcf	3,6	;RP1=0, select bank1
  6042  0493  0522               	andwf	(___flmul@grs+1)^(0+128),w
  6043  0494  1283               	bcf	3,5	;RP0=0, select bank0
  6044  0495  1303               	bcf	3,6	;RP1=0, select bank0
  6045  0496  00E2               	movwf	??___flmul+1
  6046  0497  30FF               	movlw	255
  6047  0498  1683               	bsf	3,5	;RP0=1, select bank1
  6048  0499  1303               	bcf	3,6	;RP1=0, select bank1
  6049  049A  0523               	andwf	(___flmul@grs+2)^(0+128),w
  6050  049B  1283               	bcf	3,5	;RP0=0, select bank0
  6051  049C  1303               	bcf	3,6	;RP1=0, select bank0
  6052  049D  00E3               	movwf	??___flmul+2
  6053  049E  307F               	movlw	127
  6054  049F  1683               	bsf	3,5	;RP0=1, select bank1
  6055  04A0  1303               	bcf	3,6	;RP1=0, select bank1
  6056  04A1  0524               	andwf	(___flmul@grs+3)^(0+128),w
  6057  04A2  1283               	bcf	3,5	;RP0=0, select bank0
  6058  04A3  1303               	bcf	3,6	;RP1=0, select bank0
  6059  04A4  00E4               	movwf	??___flmul+3
  6060  04A5  0864               	movf	??___flmul+3,w
  6061  04A6  0463               	iorwf	??___flmul+2,w
  6062  04A7  0462               	iorwf	??___flmul+1,w
  6063  04A8  0461               	iorwf	??___flmul,w
  6064  04A9  1903               	skipnz
  6065  04AA  2CAC               	goto	u3511
  6066  04AB  2CAD               	goto	u3510
  6067  04AC                     u3511:
  6068  04AC  2CB2               	goto	l769
  6069  04AD                     u3510:
  6070  04AD                     l2686:
  6071  04AD  1683               	bsf	3,5	;RP0=1, select bank1
  6072  04AE  1303               	bcf	3,6	;RP1=0, select bank1
  6073  04AF  01A5               	clrf	___flmul@aexp^(0+128)
  6074  04B0  0AA5               	incf	___flmul@aexp^(0+128),f
  6075  04B1  2CB9               	goto	l2690
  6076  04B2                     l769:
  6077  04B2  1683               	bsf	3,5	;RP0=1, select bank1
  6078  04B3  1303               	bcf	3,6	;RP1=0, select bank1
  6079  04B4  1C27               	btfss	___flmul@prod^(0+128),0
  6080  04B5  2CB7               	goto	u3521
  6081  04B6  2CB8               	goto	u3520
  6082  04B7                     u3521:
  6083  04B7  2CB9               	goto	l2690
  6084  04B8                     u3520:
  6085  04B8  2CAD               	goto	l2686
  6086  04B9                     l2690:
  6087  04B9  0825               	movf	___flmul@aexp^(0+128),w
  6088  04BA  1903               	btfsc	3,2
  6089  04BB  2CBD               	goto	u3531
  6090  04BC  2CBE               	goto	u3530
  6091  04BD                     u3531:
  6092  04BD  2D0B               	goto	l2700
  6093  04BE                     u3530:
  6094  04BE                     l2692:
  6095  04BE  3001               	movlw	1
  6096  04BF  07A7               	addwf	___flmul@prod^(0+128),f
  6097  04C0  3000               	movlw	0
  6098  04C1  1803               	skipnc
  6099  04C2  3001               	movlw	1
  6100  04C3  07A8               	addwf	(___flmul@prod+1)^(0+128),f
  6101  04C4  3000               	movlw	0
  6102  04C5  1803               	skipnc
  6103  04C6  3001               	movlw	1
  6104  04C7  07A9               	addwf	(___flmul@prod+2)^(0+128),f
  6105  04C8  3000               	movlw	0
  6106  04C9  1803               	skipnc
  6107  04CA  3001               	movlw	1
  6108  04CB  07AA               	addwf	(___flmul@prod+3)^(0+128),f
  6109  04CC                     l2694:
  6110  04CC  1C2A               	btfss	(___flmul@prod+3)^(0+128),0
  6111  04CD  2CCF               	goto	u3541
  6112  04CE  2CD0               	goto	u3540
  6113  04CF                     u3541:
  6114  04CF  2D0B               	goto	l2700
  6115  04D0                     u3540:
  6116  04D0                     l2696:
  6117  04D0  0827               	movf	___flmul@prod^(0+128),w
  6118  04D1  1283               	bcf	3,5	;RP0=0, select bank0
  6119  04D2  1303               	bcf	3,6	;RP1=0, select bank0
  6120  04D3  00E1               	movwf	??___flmul
  6121  04D4  1683               	bsf	3,5	;RP0=1, select bank1
  6122  04D5  1303               	bcf	3,6	;RP1=0, select bank1
  6123  04D6  0828               	movf	(___flmul@prod+1)^(0+128),w
  6124  04D7  1283               	bcf	3,5	;RP0=0, select bank0
  6125  04D8  1303               	bcf	3,6	;RP1=0, select bank0
  6126  04D9  00E2               	movwf	??___flmul+1
  6127  04DA  1683               	bsf	3,5	;RP0=1, select bank1
  6128  04DB  1303               	bcf	3,6	;RP1=0, select bank1
  6129  04DC  0829               	movf	(___flmul@prod+2)^(0+128),w
  6130  04DD  1283               	bcf	3,5	;RP0=0, select bank0
  6131  04DE  1303               	bcf	3,6	;RP1=0, select bank0
  6132  04DF  00E3               	movwf	??___flmul+2
  6133  04E0  1683               	bsf	3,5	;RP0=1, select bank1
  6134  04E1  1303               	bcf	3,6	;RP1=0, select bank1
  6135  04E2  082A               	movf	(___flmul@prod+3)^(0+128),w
  6136  04E3  1283               	bcf	3,5	;RP0=0, select bank0
  6137  04E4  1303               	bcf	3,6	;RP1=0, select bank0
  6138  04E5  00E4               	movwf	??___flmul+3
  6139  04E6  3001               	movlw	1
  6140  04E7  00E5               	movwf	??___flmul+4
  6141  04E8                     u3555:
  6142  04E8  0D64               	rlf	??___flmul+3,w
  6143  04E9  0CE4               	rrf	??___flmul+3,f
  6144  04EA  0CE3               	rrf	??___flmul+2,f
  6145  04EB  0CE2               	rrf	??___flmul+1,f
  6146  04EC  0CE1               	rrf	??___flmul,f
  6147  04ED                     u3550:
  6148  04ED  0BE5               	decfsz	??___flmul+4,f
  6149  04EE  2CE8               	goto	u3555
  6150  04EF  0864               	movf	??___flmul+3,w
  6151  04F0  1683               	bsf	3,5	;RP0=1, select bank1
  6152  04F1  1303               	bcf	3,6	;RP1=0, select bank1
  6153  04F2  00AA               	movwf	(___flmul@prod+3)^(0+128)
  6154  04F3  1283               	bcf	3,5	;RP0=0, select bank0
  6155  04F4  1303               	bcf	3,6	;RP1=0, select bank0
  6156  04F5  0863               	movf	??___flmul+2,w
  6157  04F6  1683               	bsf	3,5	;RP0=1, select bank1
  6158  04F7  1303               	bcf	3,6	;RP1=0, select bank1
  6159  04F8  00A9               	movwf	(___flmul@prod+2)^(0+128)
  6160  04F9  1283               	bcf	3,5	;RP0=0, select bank0
  6161  04FA  1303               	bcf	3,6	;RP1=0, select bank0
  6162  04FB  0862               	movf	??___flmul+1,w
  6163  04FC  1683               	bsf	3,5	;RP0=1, select bank1
  6164  04FD  1303               	bcf	3,6	;RP1=0, select bank1
  6165  04FE  00A8               	movwf	(___flmul@prod+1)^(0+128)
  6166  04FF  1283               	bcf	3,5	;RP0=0, select bank0
  6167  0500  1303               	bcf	3,6	;RP1=0, select bank0
  6168  0501  0861               	movf	??___flmul,w
  6169  0502  1683               	bsf	3,5	;RP0=1, select bank1
  6170  0503  1303               	bcf	3,6	;RP1=0, select bank1
  6171  0504  00A7               	movwf	___flmul@prod^(0+128)
  6172  0505                     l2698:
  6173  0505  3001               	movlw	1
  6174  0506  07AB               	addwf	___flmul@temp^(0+128),f
  6175  0507  1803               	skipnc
  6176  0508  0AAC               	incf	(___flmul@temp+1)^(0+128),f
  6177  0509  3000               	movlw	0
  6178  050A  07AC               	addwf	(___flmul@temp+1)^(0+128),f
  6179  050B                     l2700:
  6180  050B  082C               	movf	(___flmul@temp+1)^(0+128),w
  6181  050C  3A80               	xorlw	128
  6182  050D  00FF               	movwf	btemp+1
  6183  050E  3080               	movlw	128
  6184  050F  027F               	subwf	btemp+1,w
  6185  0510  1D03               	skipz
  6186  0511  2D14               	goto	u3565
  6187  0512  30FF               	movlw	255
  6188  0513  022B               	subwf	___flmul@temp^(0+128),w
  6189  0514                     u3565:
  6190  0514  1C03               	skipc
  6191  0515  2D17               	goto	u3561
  6192  0516  2D18               	goto	u3560
  6193  0517                     u3561:
  6194  0517  2D23               	goto	l2704
  6195  0518                     u3560:
  6196  0518                     l2702:
  6197  0518  307F               	movlw	127
  6198  0519  1683               	bsf	3,5	;RP0=1, select bank1
  6199  051A  1303               	bcf	3,6	;RP1=0, select bank1
  6200  051B  00AA               	movwf	(___flmul@prod+3)^(0+128)
  6201  051C  3080               	movlw	128
  6202  051D  00A9               	movwf	(___flmul@prod+2)^(0+128)
  6203  051E  3000               	movlw	0
  6204  051F  00A8               	movwf	(___flmul@prod+1)^(0+128)
  6205  0520  3000               	movlw	0
  6206  0521  00A7               	movwf	___flmul@prod^(0+128)
  6207  0522  2D60               	goto	l775
  6208  0523                     l2704:
  6209  0523  1683               	bsf	3,5	;RP0=1, select bank1
  6210  0524  1303               	bcf	3,6	;RP1=0, select bank1
  6211  0525  082C               	movf	(___flmul@temp+1)^(0+128),w
  6212  0526  3A80               	xorlw	128
  6213  0527  00FF               	movwf	btemp+1
  6214  0528  3080               	movlw	128
  6215  0529  027F               	subwf	btemp+1,w
  6216  052A  1D03               	skipz
  6217  052B  2D2E               	goto	u3575
  6218  052C  3001               	movlw	1
  6219  052D  022B               	subwf	___flmul@temp^(0+128),w
  6220  052E                     u3575:
  6221  052E  1803               	skipnc
  6222  052F  2D31               	goto	u3571
  6223  0530  2D32               	goto	u3570
  6224  0531                     u3571:
  6225  0531  2D3E               	goto	l2710
  6226  0532                     u3570:
  6227  0532                     l2706:
  6228  0532  3000               	movlw	0
  6229  0533  1683               	bsf	3,5	;RP0=1, select bank1
  6230  0534  1303               	bcf	3,6	;RP1=0, select bank1
  6231  0535  00AA               	movwf	(___flmul@prod+3)^(0+128)
  6232  0536  3000               	movlw	0
  6233  0537  00A9               	movwf	(___flmul@prod+2)^(0+128)
  6234  0538  3000               	movlw	0
  6235  0539  00A8               	movwf	(___flmul@prod+1)^(0+128)
  6236  053A  3000               	movlw	0
  6237  053B  00A7               	movwf	___flmul@prod^(0+128)
  6238  053C                     l2708:
  6239  053C  01A0               	clrf	___flmul@sign^(0+128)
  6240  053D  2D60               	goto	l775
  6241  053E                     l2710:
  6242  053E  1683               	bsf	3,5	;RP0=1, select bank1
  6243  053F  1303               	bcf	3,6	;RP1=0, select bank1
  6244  0540  082B               	movf	___flmul@temp^(0+128),w
  6245  0541  1283               	bcf	3,5	;RP0=0, select bank0
  6246  0542  1303               	bcf	3,6	;RP1=0, select bank0
  6247  0543  00E1               	movwf	??___flmul
  6248  0544  0861               	movf	??___flmul,w
  6249  0545  1683               	bsf	3,5	;RP0=1, select bank1
  6250  0546  1303               	bcf	3,6	;RP1=0, select bank1
  6251  0547  00A6               	movwf	___flmul@bexp^(0+128)
  6252  0548  30FF               	movlw	255
  6253  0549  05A7               	andwf	___flmul@prod^(0+128),f
  6254  054A  30FF               	movlw	255
  6255  054B  05A8               	andwf	(___flmul@prod+1)^(0+128),f
  6256  054C  307F               	movlw	127
  6257  054D  05A9               	andwf	(___flmul@prod+2)^(0+128),f
  6258  054E  3000               	movlw	0
  6259  054F  05AA               	andwf	(___flmul@prod+3)^(0+128),f
  6260  0550                     l2712:
  6261  0550  1C26               	btfss	___flmul@bexp^(0+128),0
  6262  0551  2D53               	goto	u3581
  6263  0552  2D54               	goto	u3580
  6264  0553                     u3581:
  6265  0553  2D55               	goto	l2716
  6266  0554                     u3580:
  6267  0554                     l2714:
  6268  0554  17A9               	bsf	(___flmul@prod^(0+128)+2),7
  6269  0555                     l2716:
  6270  0555  0826               	movf	___flmul@bexp^(0+128),w
  6271  0556  1283               	bcf	3,5	;RP0=0, select bank0
  6272  0557  1303               	bcf	3,6	;RP1=0, select bank0
  6273  0558  00E1               	movwf	??___flmul
  6274  0559  1003               	clrc
  6275  055A  0C61               	rrf	??___flmul,w
  6276  055B  00E2               	movwf	??___flmul+1
  6277  055C  0862               	movf	??___flmul+1,w
  6278  055D  1683               	bsf	3,5	;RP0=1, select bank1
  6279  055E  1303               	bcf	3,6	;RP1=0, select bank1
  6280  055F  00AA               	movwf	(___flmul@prod^(0+128)+3)
  6281  0560                     l775:
  6282  0560  0820               	movf	___flmul@sign^(0+128),w
  6283  0561  1283               	bcf	3,5	;RP0=0, select bank0
  6284  0562  1303               	bcf	3,6	;RP1=0, select bank0
  6285  0563  00E1               	movwf	??___flmul
  6286  0564  0861               	movf	??___flmul,w
  6287  0565  1683               	bsf	3,5	;RP0=1, select bank1
  6288  0566  1303               	bcf	3,6	;RP1=0, select bank1
  6289  0567  04AA               	iorwf	(___flmul@prod^(0+128)+3),f
  6290  0568                     l2718:
  6291  0568  082A               	movf	(___flmul@prod+3)^(0+128),w
  6292  0569  1283               	bcf	3,5	;RP0=0, select bank0
  6293  056A  1303               	bcf	3,6	;RP1=0, select bank0
  6294  056B  00DC               	movwf	?___flmul+3
  6295  056C  1683               	bsf	3,5	;RP0=1, select bank1
  6296  056D  1303               	bcf	3,6	;RP1=0, select bank1
  6297  056E  0829               	movf	(___flmul@prod+2)^(0+128),w
  6298  056F  1283               	bcf	3,5	;RP0=0, select bank0
  6299  0570  1303               	bcf	3,6	;RP1=0, select bank0
  6300  0571  00DB               	movwf	?___flmul+2
  6301  0572  1683               	bsf	3,5	;RP0=1, select bank1
  6302  0573  1303               	bcf	3,6	;RP1=0, select bank1
  6303  0574  0828               	movf	(___flmul@prod+1)^(0+128),w
  6304  0575  1283               	bcf	3,5	;RP0=0, select bank0
  6305  0576  1303               	bcf	3,6	;RP1=0, select bank0
  6306  0577  00DA               	movwf	?___flmul+1
  6307  0578  1683               	bsf	3,5	;RP0=1, select bank1
  6308  0579  1303               	bcf	3,6	;RP1=0, select bank1
  6309  057A  0827               	movf	___flmul@prod^(0+128),w
  6310  057B  1283               	bcf	3,5	;RP0=0, select bank0
  6311  057C  1303               	bcf	3,6	;RP1=0, select bank0
  6312  057D  00D9               	movwf	?___flmul
  6313  057E                     l763:
  6314  057E  0008               	return
  6315  057F                     __end_of___flmul:
  6316                           
  6317                           	psect	text10
  6318  121D                     __ptext10:	
  6319 ;; *************** function __Umul8_16 *****************
  6320 ;; Defined at:
  6321 ;;		line 4 in file "C:\Program Files\Microchip\xc8\v2.32\pic\sources\c90\common\Umul8_16.c"
  6322 ;; Parameters:    Size  Location     Type
  6323 ;;  multiplier      1    wreg     unsigned char 
  6324 ;;  multiplicand    1    0[BANK0 ] unsigned char 
  6325 ;; Auto vars:     Size  Location     Type
  6326 ;;  multiplier      1    8[BANK0 ] unsigned char 
  6327 ;;  word_mpld       2    6[BANK0 ] unsigned int 
  6328 ;;  product         2    4[BANK0 ] unsigned int 
  6329 ;; Return value:  Size  Location     Type
  6330 ;;                  2    0[BANK0 ] unsigned int 
  6331 ;; Registers used:
  6332 ;;		wreg, status,2, status,0
  6333 ;; Tracked objects:
  6334 ;;		On entry : 0/0
  6335 ;;		On exit  : 0/0
  6336 ;;		Unchanged: 0/0
  6337 ;; Data sizes:     COMMON   BANK0   BANK1   BANK3   BANK2
  6338 ;;      Params:         0       2       0       0       0
  6339 ;;      Locals:         0       5       0       0       0
  6340 ;;      Temps:          0       2       0       0       0
  6341 ;;      Totals:         0       9       0       0       0
  6342 ;;Total ram usage:        9 bytes
  6343 ;; Hardware stack levels used: 1
  6344 ;; Hardware stack levels required when called: 3
  6345 ;; This function calls:
  6346 ;;		Nothing
  6347 ;; This function is called by:
  6348 ;;		___flmul
  6349 ;; This function uses a non-reentrant model
  6350 ;;
  6351                           
  6352                           
  6353                           ;psect for function __Umul8_16
  6354  121D                     __Umul8_16:
  6355                           
  6356                           ;incstack = 0
  6357                           ; Regs used in __Umul8_16: [wreg+status,2+status,0]
  6358                           ;__Umul8_16@multiplier stored from wreg
  6359  121D  1283               	bcf	3,5	;RP0=0, select bank0
  6360  121E  1303               	bcf	3,6	;RP1=0, select bank0
  6361  121F  00A8               	movwf	__Umul8_16@multiplier
  6362  1220                     l2242:
  6363  1220  01A4               	clrf	__Umul8_16@product
  6364  1221  01A5               	clrf	__Umul8_16@product+1
  6365  1222                     l2244:
  6366  1222  0820               	movf	__Umul8_16@multiplicand,w
  6367  1223  00A2               	movwf	??__Umul8_16
  6368  1224  01A3               	clrf	??__Umul8_16+1
  6369  1225  0822               	movf	??__Umul8_16,w
  6370  1226  00A6               	movwf	__Umul8_16@word_mpld
  6371  1227  0823               	movf	??__Umul8_16+1,w
  6372  1228  00A7               	movwf	__Umul8_16@word_mpld+1
  6373  1229                     l2246:
  6374  1229  1C28               	btfss	__Umul8_16@multiplier,0
  6375  122A  2A2C               	goto	u2501
  6376  122B  2A2D               	goto	u2500
  6377  122C                     u2501:
  6378  122C  2A33               	goto	l782
  6379  122D                     u2500:
  6380  122D                     l2248:
  6381  122D  0826               	movf	__Umul8_16@word_mpld,w
  6382  122E  07A4               	addwf	__Umul8_16@product,f
  6383  122F  1803               	skipnc
  6384  1230  0AA5               	incf	__Umul8_16@product+1,f
  6385  1231  0827               	movf	__Umul8_16@word_mpld+1,w
  6386  1232  07A5               	addwf	__Umul8_16@product+1,f
  6387  1233                     l782:
  6388  1233  3001               	movlw	1
  6389  1234                     u2515:
  6390  1234  1003               	clrc
  6391  1235  0DA6               	rlf	__Umul8_16@word_mpld,f
  6392  1236  0DA7               	rlf	__Umul8_16@word_mpld+1,f
  6393  1237  3EFF               	addlw	-1
  6394  1238  1D03               	skipz
  6395  1239  2A34               	goto	u2515
  6396  123A  1003               	clrc
  6397  123B  0CA8               	rrf	__Umul8_16@multiplier,f
  6398  123C                     l2250:
  6399  123C  0828               	movf	__Umul8_16@multiplier,w
  6400  123D  1D03               	btfss	3,2
  6401  123E  2A40               	goto	u2521
  6402  123F  2A41               	goto	u2520
  6403  1240                     u2521:
  6404  1240  2A29               	goto	l2246
  6405  1241                     u2520:
  6406  1241                     l2252:
  6407  1241  0825               	movf	__Umul8_16@product+1,w
  6408  1242  00A1               	movwf	?__Umul8_16+1
  6409  1243  0824               	movf	__Umul8_16@product,w
  6410  1244  00A0               	movwf	?__Umul8_16
  6411  1245                     l784:
  6412  1245  0008               	return
  6413  1246                     __end_of__Umul8_16:
  6414                           
  6415                           	psect	text11
  6416  075C                     __ptext11:	
  6417 ;; *************** function ___flge *****************
  6418 ;; Defined at:
  6419 ;;		line 4 in file "C:\Program Files\Microchip\xc8\v2.32\pic\sources\c90\common\flge.c"
  6420 ;; Parameters:    Size  Location     Type
  6421 ;;  ff1             4    0[BANK0 ] unsigned int 
  6422 ;;  ff2             4    4[BANK0 ] unsigned int 
  6423 ;; Auto vars:     Size  Location     Type
  6424 ;;		None
  6425 ;; Return value:  Size  Location     Type
  6426 ;;		None               void
  6427 ;; Registers used:
  6428 ;;		wreg, status,2, status,0
  6429 ;; Tracked objects:
  6430 ;;		On entry : 0/0
  6431 ;;		On exit  : 0/0
  6432 ;;		Unchanged: 0/0
  6433 ;; Data sizes:     COMMON   BANK0   BANK1   BANK3   BANK2
  6434 ;;      Params:         0       8       0       0       0
  6435 ;;      Locals:         0       0       0       0       0
  6436 ;;      Temps:          0       4       0       0       0
  6437 ;;      Totals:         0      12       0       0       0
  6438 ;;Total ram usage:       12 bytes
  6439 ;; Hardware stack levels used: 1
  6440 ;; Hardware stack levels required when called: 3
  6441 ;; This function calls:
  6442 ;;		Nothing
  6443 ;; This function is called by:
  6444 ;;		_convert
  6445 ;; This function uses a non-reentrant model
  6446 ;;
  6447                           
  6448                           
  6449                           ;psect for function ___flge
  6450  075C                     ___flge:
  6451  075C                     l2378:	
  6452                           ;incstack = 0
  6453                           ; Regs used in ___flge: [wreg+status,2+status,0]
  6454                           
  6455  075C  3000               	movlw	0
  6456  075D  1283               	bcf	3,5	;RP0=0, select bank0
  6457  075E  1303               	bcf	3,6	;RP1=0, select bank0
  6458  075F  0520               	andwf	___flge@ff1,w
  6459  0760  00A8               	movwf	??___flge
  6460  0761  3000               	movlw	0
  6461  0762  0521               	andwf	___flge@ff1+1,w
  6462  0763  00A9               	movwf	??___flge+1
  6463  0764  3080               	movlw	128
  6464  0765  0522               	andwf	___flge@ff1+2,w
  6465  0766  00AA               	movwf	??___flge+2
  6466  0767  307F               	movlw	127
  6467  0768  0523               	andwf	___flge@ff1+3,w
  6468  0769  00AB               	movwf	??___flge+3
  6469  076A  082B               	movf	??___flge+3,w
  6470  076B  042A               	iorwf	??___flge+2,w
  6471  076C  0429               	iorwf	??___flge+1,w
  6472  076D  0428               	iorwf	??___flge,w
  6473  076E  1D03               	skipz
  6474  076F  2F71               	goto	u2761
  6475  0770  2F72               	goto	u2760
  6476  0771                     u2761:
  6477  0771  2F7A               	goto	l548
  6478  0772                     u2760:
  6479  0772                     l2380:
  6480  0772  3000               	movlw	0
  6481  0773  00A3               	movwf	___flge@ff1+3
  6482  0774  3000               	movlw	0
  6483  0775  00A2               	movwf	___flge@ff1+2
  6484  0776  3000               	movlw	0
  6485  0777  00A1               	movwf	___flge@ff1+1
  6486  0778  3000               	movlw	0
  6487  0779  00A0               	movwf	___flge@ff1
  6488  077A                     l548:
  6489  077A  3000               	movlw	0
  6490  077B  0524               	andwf	___flge@ff2,w
  6491  077C  00A8               	movwf	??___flge
  6492  077D  3000               	movlw	0
  6493  077E  0525               	andwf	___flge@ff2+1,w
  6494  077F  00A9               	movwf	??___flge+1
  6495  0780  3080               	movlw	128
  6496  0781  0526               	andwf	___flge@ff2+2,w
  6497  0782  00AA               	movwf	??___flge+2
  6498  0783  307F               	movlw	127
  6499  0784  0527               	andwf	___flge@ff2+3,w
  6500  0785  00AB               	movwf	??___flge+3
  6501  0786  082B               	movf	??___flge+3,w
  6502  0787  042A               	iorwf	??___flge+2,w
  6503  0788  0429               	iorwf	??___flge+1,w
  6504  0789  0428               	iorwf	??___flge,w
  6505  078A  1D03               	skipz
  6506  078B  2F8D               	goto	u2771
  6507  078C  2F8E               	goto	u2770
  6508  078D                     u2771:
  6509  078D  2F96               	goto	l2384
  6510  078E                     u2770:
  6511  078E                     l2382:
  6512  078E  3000               	movlw	0
  6513  078F  00A7               	movwf	___flge@ff2+3
  6514  0790  3000               	movlw	0
  6515  0791  00A6               	movwf	___flge@ff2+2
  6516  0792  3000               	movlw	0
  6517  0793  00A5               	movwf	___flge@ff2+1
  6518  0794  3000               	movlw	0
  6519  0795  00A4               	movwf	___flge@ff2
  6520  0796                     l2384:
  6521  0796  1FA3               	btfss	___flge@ff1+3,7
  6522  0797  2F99               	goto	u2781
  6523  0798  2F9A               	goto	u2780
  6524  0799                     u2781:
  6525  0799  2FBE               	goto	l2388
  6526  079A                     u2780:
  6527  079A                     l2386:
  6528  079A  3000               	movlw	0
  6529  079B  00A8               	movwf	??___flge
  6530  079C  3000               	movlw	0
  6531  079D  00A9               	movwf	??___flge+1
  6532  079E  3000               	movlw	0
  6533  079F  00AA               	movwf	??___flge+2
  6534  07A0  3080               	movlw	128
  6535  07A1  00AB               	movwf	??___flge+3
  6536  07A2  0820               	movf	___flge@ff1,w
  6537  07A3  02A8               	subwf	??___flge,f
  6538  07A4  0821               	movf	___flge@ff1+1,w
  6539  07A5  1C03               	skipc
  6540  07A6  0F21               	incfsz	___flge@ff1+1,w
  6541  07A7  2FA9               	goto	u2791
  6542  07A8  2FAA               	goto	u2792
  6543  07A9                     u2791:
  6544  07A9  02A9               	subwf	??___flge+1,f
  6545  07AA                     u2792:
  6546  07AA  0822               	movf	___flge@ff1+2,w
  6547  07AB  1C03               	skipc
  6548  07AC  0F22               	incfsz	___flge@ff1+2,w
  6549  07AD  2FAF               	goto	u2793
  6550  07AE  2FB0               	goto	u2794
  6551  07AF                     u2793:
  6552  07AF  02AA               	subwf	??___flge+2,f
  6553  07B0                     u2794:
  6554  07B0  0823               	movf	___flge@ff1+3,w
  6555  07B1  1C03               	skipc
  6556  07B2  0F23               	incfsz	___flge@ff1+3,w
  6557  07B3  2FB5               	goto	u2795
  6558  07B4  2FB6               	goto	u2796
  6559  07B5                     u2795:
  6560  07B5  02AB               	subwf	??___flge+3,f
  6561  07B6                     u2796:
  6562  07B6  082B               	movf	??___flge+3,w
  6563  07B7  00A3               	movwf	___flge@ff1+3
  6564  07B8  082A               	movf	??___flge+2,w
  6565  07B9  00A2               	movwf	___flge@ff1+2
  6566  07BA  0829               	movf	??___flge+1,w
  6567  07BB  00A1               	movwf	___flge@ff1+1
  6568  07BC  0828               	movf	??___flge,w
  6569  07BD  00A0               	movwf	___flge@ff1
  6570  07BE                     l2388:
  6571  07BE  1FA7               	btfss	___flge@ff2+3,7
  6572  07BF  2FC1               	goto	u2801
  6573  07C0  2FC2               	goto	u2800
  6574  07C1                     u2801:
  6575  07C1  2FE6               	goto	l551
  6576  07C2                     u2800:
  6577  07C2                     l2390:
  6578  07C2  3000               	movlw	0
  6579  07C3  00A8               	movwf	??___flge
  6580  07C4  3000               	movlw	0
  6581  07C5  00A9               	movwf	??___flge+1
  6582  07C6  3000               	movlw	0
  6583  07C7  00AA               	movwf	??___flge+2
  6584  07C8  3080               	movlw	128
  6585  07C9  00AB               	movwf	??___flge+3
  6586  07CA  0824               	movf	___flge@ff2,w
  6587  07CB  02A8               	subwf	??___flge,f
  6588  07CC  0825               	movf	___flge@ff2+1,w
  6589  07CD  1C03               	skipc
  6590  07CE  0F25               	incfsz	___flge@ff2+1,w
  6591  07CF  2FD1               	goto	u2811
  6592  07D0  2FD2               	goto	u2812
  6593  07D1                     u2811:
  6594  07D1  02A9               	subwf	??___flge+1,f
  6595  07D2                     u2812:
  6596  07D2  0826               	movf	___flge@ff2+2,w
  6597  07D3  1C03               	skipc
  6598  07D4  0F26               	incfsz	___flge@ff2+2,w
  6599  07D5  2FD7               	goto	u2813
  6600  07D6  2FD8               	goto	u2814
  6601  07D7                     u2813:
  6602  07D7  02AA               	subwf	??___flge+2,f
  6603  07D8                     u2814:
  6604  07D8  0827               	movf	___flge@ff2+3,w
  6605  07D9  1C03               	skipc
  6606  07DA  0F27               	incfsz	___flge@ff2+3,w
  6607  07DB  2FDD               	goto	u2815
  6608  07DC  2FDE               	goto	u2816
  6609  07DD                     u2815:
  6610  07DD  02AB               	subwf	??___flge+3,f
  6611  07DE                     u2816:
  6612  07DE  082B               	movf	??___flge+3,w
  6613  07DF  00A7               	movwf	___flge@ff2+3
  6614  07E0  082A               	movf	??___flge+2,w
  6615  07E1  00A6               	movwf	___flge@ff2+2
  6616  07E2  0829               	movf	??___flge+1,w
  6617  07E3  00A5               	movwf	___flge@ff2+1
  6618  07E4  0828               	movf	??___flge,w
  6619  07E5  00A4               	movwf	___flge@ff2
  6620  07E6                     l551:
  6621  07E6  3080               	movlw	128
  6622  07E7  06A3               	xorwf	___flge@ff1+3,f
  6623  07E8  3080               	movlw	128
  6624  07E9  06A7               	xorwf	___flge@ff2+3,f
  6625  07EA  0827               	movf	___flge@ff2+3,w
  6626  07EB  0223               	subwf	___flge@ff1+3,w
  6627  07EC  1D03               	skipz
  6628  07ED  2FF8               	goto	u2825
  6629  07EE  0826               	movf	___flge@ff2+2,w
  6630  07EF  0222               	subwf	___flge@ff1+2,w
  6631  07F0  1D03               	skipz
  6632  07F1  2FF8               	goto	u2825
  6633  07F2  0825               	movf	___flge@ff2+1,w
  6634  07F3  0221               	subwf	___flge@ff1+1,w
  6635  07F4  1D03               	skipz
  6636  07F5  2FF8               	goto	u2825
  6637  07F6  0824               	movf	___flge@ff2,w
  6638  07F7  0220               	subwf	___flge@ff1,w
  6639  07F8                     u2825:
  6640  07F8  1803               	skipnc
  6641  07F9  2FFB               	goto	u2821
  6642  07FA  2FFC               	goto	u2820
  6643  07FB                     u2821:
  6644  07FB  2FFE               	goto	l2394
  6645  07FC                     u2820:
  6646  07FC                     l2392:
  6647  07FC  1003               	clrc
  6648  07FD  2FFF               	goto	l552
  6649  07FE                     l2394:
  6650  07FE  1403               	setc
  6651  07FF                     l552:
  6652  07FF  0008               	return
  6653  0800                     __end_of___flge:
  6654                           
  6655                           	psect	text12
  6656  057F                     __ptext12:	
  6657 ;; *************** function ___fldiv *****************
  6658 ;; Defined at:
  6659 ;;		line 8 in file "C:\Program Files\Microchip\xc8\v2.32\pic\sources\c90\common\sprcdiv.c"
  6660 ;; Parameters:    Size  Location     Type
  6661 ;;  a               4   31[BANK0 ] unsigned int 
  6662 ;;  b               4   35[BANK0 ] unsigned int 
  6663 ;; Auto vars:     Size  Location     Type
  6664 ;;  grs             4   51[BANK0 ] unsigned long 
  6665 ;;  rem             4   44[BANK0 ] unsigned long 
  6666 ;;  new_exp         2   49[BANK0 ] int 
  6667 ;;  aexp            1   56[BANK0 ] unsigned char 
  6668 ;;  bexp            1   55[BANK0 ] unsigned char 
  6669 ;;  sign            1   48[BANK0 ] unsigned char 
  6670 ;; Return value:  Size  Location     Type
  6671 ;;                  4   31[BANK0 ] unsigned char 
  6672 ;; Registers used:
  6673 ;;		wreg, status,2, status,0, btemp+1
  6674 ;; Tracked objects:
  6675 ;;		On entry : 0/0
  6676 ;;		On exit  : 0/0
  6677 ;;		Unchanged: 0/0
  6678 ;; Data sizes:     COMMON   BANK0   BANK1   BANK3   BANK2
  6679 ;;      Params:         0       8       0       0       0
  6680 ;;      Locals:         0      13       0       0       0
  6681 ;;      Temps:          0       5       0       0       0
  6682 ;;      Totals:         0      26       0       0       0
  6683 ;;Total ram usage:       26 bytes
  6684 ;; Hardware stack levels used: 1
  6685 ;; Hardware stack levels required when called: 3
  6686 ;; This function calls:
  6687 ;;		Nothing
  6688 ;; This function is called by:
  6689 ;;		_main
  6690 ;;		_convert
  6691 ;; This function uses a non-reentrant model
  6692 ;;
  6693                           
  6694                           
  6695                           ;psect for function ___fldiv
  6696  057F                     ___fldiv:
  6697  057F                     l2440:	
  6698                           ;incstack = 0
  6699                           ; Regs used in ___fldiv: [wreg+status,2+status,0+btemp+1]
  6700                           
  6701  057F  1283               	bcf	3,5	;RP0=0, select bank0
  6702  0580  1303               	bcf	3,6	;RP1=0, select bank0
  6703  0581  0846               	movf	___fldiv@b+3,w
  6704  0582  3980               	andlw	128
  6705  0583  00C7               	movwf	??___fldiv
  6706  0584  0847               	movf	??___fldiv,w
  6707  0585  00D0               	movwf	___fldiv@sign
  6708  0586                     l2442:
  6709  0586  0846               	movf	___fldiv@b+3,w
  6710  0587  00C7               	movwf	??___fldiv
  6711  0588  0747               	addwf	??___fldiv,w
  6712  0589  00C8               	movwf	??___fldiv+1
  6713  058A  0848               	movf	??___fldiv+1,w
  6714  058B  00D7               	movwf	___fldiv@bexp
  6715  058C                     l2444:
  6716  058C  1FC5               	btfss	___fldiv@b+2,7
  6717  058D  2D8F               	goto	u2931
  6718  058E  2D90               	goto	u2930
  6719  058F                     u2931:
  6720  058F  2D91               	goto	l2448
  6721  0590                     u2930:
  6722  0590                     l2446:
  6723  0590  1457               	bsf	___fldiv@bexp,0
  6724  0591                     l2448:
  6725  0591  0857               	movf	___fldiv@bexp,w
  6726  0592  1903               	btfsc	3,2
  6727  0593  2D95               	goto	u2941
  6728  0594  2D96               	goto	u2940
  6729  0595                     u2941:
  6730  0595  2DA6               	goto	l2458
  6731  0596                     u2940:
  6732  0596                     l2450:
  6733  0596  0A57               	incf	___fldiv@bexp,w
  6734  0597  1D03               	btfss	3,2
  6735  0598  2D9A               	goto	u2951
  6736  0599  2D9B               	goto	u2950
  6737  059A                     u2951:
  6738  059A  2DA3               	goto	l2454
  6739  059B                     u2950:
  6740  059B                     l2452:
  6741  059B  3000               	movlw	0
  6742  059C  00C6               	movwf	___fldiv@b+3
  6743  059D  3000               	movlw	0
  6744  059E  00C5               	movwf	___fldiv@b+2
  6745  059F  3000               	movlw	0
  6746  05A0  00C4               	movwf	___fldiv@b+1
  6747  05A1  3000               	movlw	0
  6748  05A2  00C3               	movwf	___fldiv@b
  6749  05A3                     l2454:
  6750  05A3  17C5               	bsf	___fldiv@b+2,7
  6751  05A4                     l2456:
  6752  05A4  01C6               	clrf	___fldiv@b+3
  6753  05A5  2DAE               	goto	l2460
  6754  05A6                     l2458:
  6755  05A6  3000               	movlw	0
  6756  05A7  00C6               	movwf	___fldiv@b+3
  6757  05A8  3000               	movlw	0
  6758  05A9  00C5               	movwf	___fldiv@b+2
  6759  05AA  3000               	movlw	0
  6760  05AB  00C4               	movwf	___fldiv@b+1
  6761  05AC  3000               	movlw	0
  6762  05AD  00C3               	movwf	___fldiv@b
  6763  05AE                     l2460:
  6764  05AE  0842               	movf	___fldiv@a+3,w
  6765  05AF  3980               	andlw	128
  6766  05B0  00C7               	movwf	??___fldiv
  6767  05B1  0847               	movf	??___fldiv,w
  6768  05B2  06D0               	xorwf	___fldiv@sign,f
  6769  05B3                     l2462:
  6770  05B3  0842               	movf	___fldiv@a+3,w
  6771  05B4  00C7               	movwf	??___fldiv
  6772  05B5  0747               	addwf	??___fldiv,w
  6773  05B6  00C8               	movwf	??___fldiv+1
  6774  05B7  0848               	movf	??___fldiv+1,w
  6775  05B8  00D8               	movwf	___fldiv@aexp
  6776  05B9                     l2464:
  6777  05B9  1FC1               	btfss	___fldiv@a+2,7
  6778  05BA  2DBC               	goto	u2961
  6779  05BB  2DBD               	goto	u2960
  6780  05BC                     u2961:
  6781  05BC  2DBE               	goto	l2468
  6782  05BD                     u2960:
  6783  05BD                     l2466:
  6784  05BD  1458               	bsf	___fldiv@aexp,0
  6785  05BE                     l2468:
  6786  05BE  0858               	movf	___fldiv@aexp,w
  6787  05BF  1903               	btfsc	3,2
  6788  05C0  2DC2               	goto	u2971
  6789  05C1  2DC3               	goto	u2970
  6790  05C2                     u2971:
  6791  05C2  2DD3               	goto	l2478
  6792  05C3                     u2970:
  6793  05C3                     l2470:
  6794  05C3  0A58               	incf	___fldiv@aexp,w
  6795  05C4  1D03               	btfss	3,2
  6796  05C5  2DC7               	goto	u2981
  6797  05C6  2DC8               	goto	u2980
  6798  05C7                     u2981:
  6799  05C7  2DD0               	goto	l2474
  6800  05C8                     u2980:
  6801  05C8                     l2472:
  6802  05C8  3000               	movlw	0
  6803  05C9  00C2               	movwf	___fldiv@a+3
  6804  05CA  3000               	movlw	0
  6805  05CB  00C1               	movwf	___fldiv@a+2
  6806  05CC  3000               	movlw	0
  6807  05CD  00C0               	movwf	___fldiv@a+1
  6808  05CE  3000               	movlw	0
  6809  05CF  00BF               	movwf	___fldiv@a
  6810  05D0                     l2474:
  6811  05D0  17C1               	bsf	___fldiv@a+2,7
  6812  05D1                     l2476:
  6813  05D1  01C2               	clrf	___fldiv@a+3
  6814  05D2  2DDB               	goto	l723
  6815  05D3                     l2478:
  6816  05D3  3000               	movlw	0
  6817  05D4  00C2               	movwf	___fldiv@a+3
  6818  05D5  3000               	movlw	0
  6819  05D6  00C1               	movwf	___fldiv@a+2
  6820  05D7  3000               	movlw	0
  6821  05D8  00C0               	movwf	___fldiv@a+1
  6822  05D9  3000               	movlw	0
  6823  05DA  00BF               	movwf	___fldiv@a
  6824  05DB                     l723:
  6825  05DB  0842               	movf	___fldiv@a+3,w
  6826  05DC  0441               	iorwf	___fldiv@a+2,w
  6827  05DD  0440               	iorwf	___fldiv@a+1,w
  6828  05DE  043F               	iorwf	___fldiv@a,w
  6829  05DF  1D03               	skipz
  6830  05E0  2DE2               	goto	u2991
  6831  05E1  2DE3               	goto	u2990
  6832  05E2                     u2991:
  6833  05E2  2DFC               	goto	l2488
  6834  05E3                     u2990:
  6835  05E3                     l2480:
  6836  05E3  3000               	movlw	0
  6837  05E4  00C6               	movwf	___fldiv@b+3
  6838  05E5  3000               	movlw	0
  6839  05E6  00C5               	movwf	___fldiv@b+2
  6840  05E7  3000               	movlw	0
  6841  05E8  00C4               	movwf	___fldiv@b+1
  6842  05E9  3000               	movlw	0
  6843  05EA  00C3               	movwf	___fldiv@b
  6844  05EB  3080               	movlw	128
  6845  05EC  04C5               	iorwf	___fldiv@b+2,f
  6846  05ED  307F               	movlw	127
  6847  05EE  04C6               	iorwf	___fldiv@b+3,f
  6848  05EF                     l2482:
  6849  05EF  0850               	movf	___fldiv@sign,w
  6850  05F0  00C7               	movwf	??___fldiv
  6851  05F1  0847               	movf	??___fldiv,w
  6852  05F2  04C6               	iorwf	___fldiv@b+3,f
  6853  05F3                     l2484:
  6854  05F3  0846               	movf	___fldiv@b+3,w
  6855  05F4  00C2               	movwf	?___fldiv+3
  6856  05F5  0845               	movf	___fldiv@b+2,w
  6857  05F6  00C1               	movwf	?___fldiv+2
  6858  05F7  0844               	movf	___fldiv@b+1,w
  6859  05F8  00C0               	movwf	?___fldiv+1
  6860  05F9  0843               	movf	___fldiv@b,w
  6861  05FA  00BF               	movwf	?___fldiv
  6862  05FB  2F5B               	goto	l725
  6863  05FC                     l2488:
  6864  05FC  0857               	movf	___fldiv@bexp,w
  6865  05FD  1D03               	btfss	3,2
  6866  05FE  2E00               	goto	u3001
  6867  05FF  2E01               	goto	u3000
  6868  0600                     u3001:
  6869  0600  2E0A               	goto	l2494
  6870  0601                     u3000:
  6871  0601                     l2490:
  6872  0601  3000               	movlw	0
  6873  0602  00C2               	movwf	?___fldiv+3
  6874  0603  3000               	movlw	0
  6875  0604  00C1               	movwf	?___fldiv+2
  6876  0605  3000               	movlw	0
  6877  0606  00C0               	movwf	?___fldiv+1
  6878  0607  3000               	movlw	0
  6879  0608  00BF               	movwf	?___fldiv
  6880  0609  2F5B               	goto	l725
  6881  060A                     l2494:
  6882  060A  0857               	movf	___fldiv@bexp,w
  6883  060B  00C7               	movwf	??___fldiv
  6884  060C  01C8               	clrf	??___fldiv+1
  6885  060D  0848               	movf	??___fldiv+1,w
  6886  060E  00CA               	movwf	??___fldiv+3
  6887  060F  0858               	movf	___fldiv@aexp,w
  6888  0610  0247               	subwf	??___fldiv,w
  6889  0611  00C9               	movwf	??___fldiv+2
  6890  0612  1C03               	skipc
  6891  0613  03CA               	decf	??___fldiv+3,f
  6892  0614  0849               	movf	??___fldiv+2,w
  6893  0615  3E7F               	addlw	127
  6894  0616  00D1               	movwf	___fldiv@new_exp
  6895  0617  084A               	movf	??___fldiv+3,w
  6896  0618  1803               	skipnc
  6897  0619  3E01               	addlw	1
  6898  061A  3E00               	addlw	0
  6899  061B  00D2               	movwf	___fldiv@new_exp+1
  6900  061C                     l2496:
  6901  061C  0846               	movf	___fldiv@b+3,w
  6902  061D  00CF               	movwf	___fldiv@rem+3
  6903  061E  0845               	movf	___fldiv@b+2,w
  6904  061F  00CE               	movwf	___fldiv@rem+2
  6905  0620  0844               	movf	___fldiv@b+1,w
  6906  0621  00CD               	movwf	___fldiv@rem+1
  6907  0622  0843               	movf	___fldiv@b,w
  6908  0623  00CC               	movwf	___fldiv@rem
  6909  0624                     l2498:
  6910  0624  3000               	movlw	0
  6911  0625  00C6               	movwf	___fldiv@b+3
  6912  0626  3000               	movlw	0
  6913  0627  00C5               	movwf	___fldiv@b+2
  6914  0628  3000               	movlw	0
  6915  0629  00C4               	movwf	___fldiv@b+1
  6916  062A  3000               	movlw	0
  6917  062B  00C3               	movwf	___fldiv@b
  6918  062C                     l2500:
  6919  062C  3000               	movlw	0
  6920  062D  00D6               	movwf	___fldiv@grs+3
  6921  062E  3000               	movlw	0
  6922  062F  00D5               	movwf	___fldiv@grs+2
  6923  0630  3000               	movlw	0
  6924  0631  00D4               	movwf	___fldiv@grs+1
  6925  0632  3000               	movlw	0
  6926  0633  00D3               	movwf	___fldiv@grs
  6927  0634                     l2502:
  6928  0634  01D8               	clrf	___fldiv@aexp
  6929  0635  2E80               	goto	l2522
  6930  0636                     l2504:
  6931  0636  0858               	movf	___fldiv@aexp,w
  6932  0637  1903               	btfsc	3,2
  6933  0638  2E3A               	goto	u3011
  6934  0639  2E3B               	goto	u3010
  6935  063A                     u3011:
  6936  063A  2E5B               	goto	l2514
  6937  063B                     u3010:
  6938  063B                     l2506:
  6939  063B  3001               	movlw	1
  6940  063C  00C7               	movwf	??___fldiv
  6941  063D                     u3025:
  6942  063D  1003               	clrc
  6943  063E  0DCC               	rlf	___fldiv@rem,f
  6944  063F  0DCD               	rlf	___fldiv@rem+1,f
  6945  0640  0DCE               	rlf	___fldiv@rem+2,f
  6946  0641  0DCF               	rlf	___fldiv@rem+3,f
  6947  0642  0BC7               	decfsz	??___fldiv,f
  6948  0643  2E3D               	goto	u3025
  6949  0644  3001               	movlw	1
  6950  0645  00C7               	movwf	??___fldiv
  6951  0646                     u3035:
  6952  0646  1003               	clrc
  6953  0647  0DC3               	rlf	___fldiv@b,f
  6954  0648  0DC4               	rlf	___fldiv@b+1,f
  6955  0649  0DC5               	rlf	___fldiv@b+2,f
  6956  064A  0DC6               	rlf	___fldiv@b+3,f
  6957  064B  0BC7               	decfsz	??___fldiv,f
  6958  064C  2E46               	goto	u3035
  6959  064D                     l2508:
  6960  064D  1FD6               	btfss	___fldiv@grs+3,7
  6961  064E  2E50               	goto	u3041
  6962  064F  2E51               	goto	u3040
  6963  0650                     u3041:
  6964  0650  2E52               	goto	l2512
  6965  0651                     u3040:
  6966  0651                     l2510:
  6967  0651  1443               	bsf	___fldiv@b,0
  6968  0652                     l2512:
  6969  0652  3001               	movlw	1
  6970  0653  00C7               	movwf	??___fldiv
  6971  0654                     u3055:
  6972  0654  1003               	clrc
  6973  0655  0DD3               	rlf	___fldiv@grs,f
  6974  0656  0DD4               	rlf	___fldiv@grs+1,f
  6975  0657  0DD5               	rlf	___fldiv@grs+2,f
  6976  0658  0DD6               	rlf	___fldiv@grs+3,f
  6977  0659  0BC7               	decfsz	??___fldiv,f
  6978  065A  2E54               	goto	u3055
  6979  065B                     l2514:
  6980  065B  0842               	movf	___fldiv@a+3,w
  6981  065C  024F               	subwf	___fldiv@rem+3,w
  6982  065D  1D03               	skipz
  6983  065E  2E69               	goto	u3065
  6984  065F  0841               	movf	___fldiv@a+2,w
  6985  0660  024E               	subwf	___fldiv@rem+2,w
  6986  0661  1D03               	skipz
  6987  0662  2E69               	goto	u3065
  6988  0663  0840               	movf	___fldiv@a+1,w
  6989  0664  024D               	subwf	___fldiv@rem+1,w
  6990  0665  1D03               	skipz
  6991  0666  2E69               	goto	u3065
  6992  0667  083F               	movf	___fldiv@a,w
  6993  0668  024C               	subwf	___fldiv@rem,w
  6994  0669                     u3065:
  6995  0669  1C03               	skipc
  6996  066A  2E6C               	goto	u3061
  6997  066B  2E6D               	goto	u3060
  6998  066C                     u3061:
  6999  066C  2E7C               	goto	l2520
  7000  066D                     u3060:
  7001  066D                     l2516:
  7002  066D  1756               	bsf	___fldiv@grs+3,6
  7003  066E                     l2518:
  7004  066E  083F               	movf	___fldiv@a,w
  7005  066F  02CC               	subwf	___fldiv@rem,f
  7006  0670  0840               	movf	___fldiv@a+1,w
  7007  0671  1C03               	skipc
  7008  0672  0F40               	incfsz	___fldiv@a+1,w
  7009  0673  02CD               	subwf	___fldiv@rem+1,f
  7010  0674  0841               	movf	___fldiv@a+2,w
  7011  0675  1C03               	skipc
  7012  0676  0F41               	incfsz	___fldiv@a+2,w
  7013  0677  02CE               	subwf	___fldiv@rem+2,f
  7014  0678  0842               	movf	___fldiv@a+3,w
  7015  0679  1C03               	skipc
  7016  067A  0F42               	incfsz	___fldiv@a+3,w
  7017  067B  02CF               	subwf	___fldiv@rem+3,f
  7018  067C                     l2520:
  7019  067C  3001               	movlw	1
  7020  067D  00C7               	movwf	??___fldiv
  7021  067E  0847               	movf	??___fldiv,w
  7022  067F  07D8               	addwf	___fldiv@aexp,f
  7023  0680                     l2522:
  7024  0680  301A               	movlw	26
  7025  0681  0258               	subwf	___fldiv@aexp,w
  7026  0682  1C03               	skipc
  7027  0683  2E85               	goto	u3071
  7028  0684  2E86               	goto	u3070
  7029  0685                     u3071:
  7030  0685  2E36               	goto	l2504
  7031  0686                     u3070:
  7032  0686                     l2524:
  7033  0686  084F               	movf	___fldiv@rem+3,w
  7034  0687  044E               	iorwf	___fldiv@rem+2,w
  7035  0688  044D               	iorwf	___fldiv@rem+1,w
  7036  0689  044C               	iorwf	___fldiv@rem,w
  7037  068A  1903               	skipnz
  7038  068B  2E8D               	goto	u3081
  7039  068C  2E8E               	goto	u3080
  7040  068D                     u3081:
  7041  068D  2EAD               	goto	l2538
  7042  068E                     u3080:
  7043  068E                     l2526:
  7044  068E  1453               	bsf	___fldiv@grs,0
  7045  068F  2EAD               	goto	l2538
  7046  0690                     l2528:
  7047  0690  3001               	movlw	1
  7048  0691  00C7               	movwf	??___fldiv
  7049  0692                     u3095:
  7050  0692  1003               	clrc
  7051  0693  0DC3               	rlf	___fldiv@b,f
  7052  0694  0DC4               	rlf	___fldiv@b+1,f
  7053  0695  0DC5               	rlf	___fldiv@b+2,f
  7054  0696  0DC6               	rlf	___fldiv@b+3,f
  7055  0697  0BC7               	decfsz	??___fldiv,f
  7056  0698  2E92               	goto	u3095
  7057  0699                     l2530:
  7058  0699  1FD6               	btfss	___fldiv@grs+3,7
  7059  069A  2E9C               	goto	u3101
  7060  069B  2E9D               	goto	u3100
  7061  069C                     u3101:
  7062  069C  2E9E               	goto	l2534
  7063  069D                     u3100:
  7064  069D                     l2532:
  7065  069D  1443               	bsf	___fldiv@b,0
  7066  069E                     l2534:
  7067  069E  3001               	movlw	1
  7068  069F  00C7               	movwf	??___fldiv
  7069  06A0                     u3115:
  7070  06A0  1003               	clrc
  7071  06A1  0DD3               	rlf	___fldiv@grs,f
  7072  06A2  0DD4               	rlf	___fldiv@grs+1,f
  7073  06A3  0DD5               	rlf	___fldiv@grs+2,f
  7074  06A4  0DD6               	rlf	___fldiv@grs+3,f
  7075  06A5  0BC7               	decfsz	??___fldiv,f
  7076  06A6  2EA0               	goto	u3115
  7077  06A7                     l2536:
  7078  06A7  30FF               	movlw	255
  7079  06A8  07D1               	addwf	___fldiv@new_exp,f
  7080  06A9  1803               	skipnc
  7081  06AA  0AD2               	incf	___fldiv@new_exp+1,f
  7082  06AB  30FF               	movlw	255
  7083  06AC  07D2               	addwf	___fldiv@new_exp+1,f
  7084  06AD                     l2538:
  7085  06AD  1FC5               	btfss	___fldiv@b+2,7
  7086  06AE  2EB0               	goto	u3121
  7087  06AF  2EB1               	goto	u3120
  7088  06B0                     u3121:
  7089  06B0  2E90               	goto	l2528
  7090  06B1                     u3120:
  7091  06B1                     l2540:
  7092  06B1  01D8               	clrf	___fldiv@aexp
  7093  06B2                     l2542:
  7094  06B2  1FD6               	btfss	___fldiv@grs+3,7
  7095  06B3  2EB5               	goto	u3131
  7096  06B4  2EB6               	goto	u3130
  7097  06B5                     u3131:
  7098  06B5  2ED2               	goto	l2550
  7099  06B6                     u3130:
  7100  06B6                     l2544:
  7101  06B6  30FF               	movlw	255
  7102  06B7  0553               	andwf	___fldiv@grs,w
  7103  06B8  00C7               	movwf	??___fldiv
  7104  06B9  30FF               	movlw	255
  7105  06BA  0554               	andwf	___fldiv@grs+1,w
  7106  06BB  00C8               	movwf	??___fldiv+1
  7107  06BC  30FF               	movlw	255
  7108  06BD  0555               	andwf	___fldiv@grs+2,w
  7109  06BE  00C9               	movwf	??___fldiv+2
  7110  06BF  307F               	movlw	127
  7111  06C0  0556               	andwf	___fldiv@grs+3,w
  7112  06C1  00CA               	movwf	??___fldiv+3
  7113  06C2  084A               	movf	??___fldiv+3,w
  7114  06C3  0449               	iorwf	??___fldiv+2,w
  7115  06C4  0448               	iorwf	??___fldiv+1,w
  7116  06C5  0447               	iorwf	??___fldiv,w
  7117  06C6  1903               	skipnz
  7118  06C7  2EC9               	goto	u3141
  7119  06C8  2ECA               	goto	u3140
  7120  06C9                     u3141:
  7121  06C9  2ECD               	goto	l739
  7122  06CA                     u3140:
  7123  06CA                     l2546:
  7124  06CA  01D8               	clrf	___fldiv@aexp
  7125  06CB  0AD8               	incf	___fldiv@aexp,f
  7126  06CC  2ED2               	goto	l2550
  7127  06CD                     l739:
  7128  06CD  1C43               	btfss	___fldiv@b,0
  7129  06CE  2ED0               	goto	u3151
  7130  06CF  2ED1               	goto	u3150
  7131  06D0                     u3151:
  7132  06D0  2ED2               	goto	l2550
  7133  06D1                     u3150:
  7134  06D1  2ECA               	goto	l2546
  7135  06D2                     l2550:
  7136  06D2  0858               	movf	___fldiv@aexp,w
  7137  06D3  1903               	btfsc	3,2
  7138  06D4  2ED6               	goto	u3161
  7139  06D5  2ED7               	goto	u3160
  7140  06D6                     u3161:
  7141  06D6  2F08               	goto	l2560
  7142  06D7                     u3160:
  7143  06D7                     l2552:
  7144  06D7  3001               	movlw	1
  7145  06D8  07C3               	addwf	___fldiv@b,f
  7146  06D9  3000               	movlw	0
  7147  06DA  1803               	skipnc
  7148  06DB  3001               	movlw	1
  7149  06DC  07C4               	addwf	___fldiv@b+1,f
  7150  06DD  3000               	movlw	0
  7151  06DE  1803               	skipnc
  7152  06DF  3001               	movlw	1
  7153  06E0  07C5               	addwf	___fldiv@b+2,f
  7154  06E1  3000               	movlw	0
  7155  06E2  1803               	skipnc
  7156  06E3  3001               	movlw	1
  7157  06E4  07C6               	addwf	___fldiv@b+3,f
  7158  06E5                     l2554:
  7159  06E5  1C46               	btfss	___fldiv@b+3,0
  7160  06E6  2EE8               	goto	u3171
  7161  06E7  2EE9               	goto	u3170
  7162  06E8                     u3171:
  7163  06E8  2F08               	goto	l2560
  7164  06E9                     u3170:
  7165  06E9                     l2556:
  7166  06E9  0843               	movf	___fldiv@b,w
  7167  06EA  00C7               	movwf	??___fldiv
  7168  06EB  0844               	movf	___fldiv@b+1,w
  7169  06EC  00C8               	movwf	??___fldiv+1
  7170  06ED  0845               	movf	___fldiv@b+2,w
  7171  06EE  00C9               	movwf	??___fldiv+2
  7172  06EF  0846               	movf	___fldiv@b+3,w
  7173  06F0  00CA               	movwf	??___fldiv+3
  7174  06F1  3001               	movlw	1
  7175  06F2  00CB               	movwf	??___fldiv+4
  7176  06F3                     u3185:
  7177  06F3  0D4A               	rlf	??___fldiv+3,w
  7178  06F4  0CCA               	rrf	??___fldiv+3,f
  7179  06F5  0CC9               	rrf	??___fldiv+2,f
  7180  06F6  0CC8               	rrf	??___fldiv+1,f
  7181  06F7  0CC7               	rrf	??___fldiv,f
  7182  06F8                     u3180:
  7183  06F8  0BCB               	decfsz	??___fldiv+4,f
  7184  06F9  2EF3               	goto	u3185
  7185  06FA  084A               	movf	??___fldiv+3,w
  7186  06FB  00C6               	movwf	___fldiv@b+3
  7187  06FC  0849               	movf	??___fldiv+2,w
  7188  06FD  00C5               	movwf	___fldiv@b+2
  7189  06FE  0848               	movf	??___fldiv+1,w
  7190  06FF  00C4               	movwf	___fldiv@b+1
  7191  0700  0847               	movf	??___fldiv,w
  7192  0701  00C3               	movwf	___fldiv@b
  7193  0702                     l2558:
  7194  0702  3001               	movlw	1
  7195  0703  07D1               	addwf	___fldiv@new_exp,f
  7196  0704  1803               	skipnc
  7197  0705  0AD2               	incf	___fldiv@new_exp+1,f
  7198  0706  3000               	movlw	0
  7199  0707  07D2               	addwf	___fldiv@new_exp+1,f
  7200  0708                     l2560:
  7201  0708  0852               	movf	___fldiv@new_exp+1,w
  7202  0709  3A80               	xorlw	128
  7203  070A  00FF               	movwf	btemp+1
  7204  070B  3080               	movlw	128
  7205  070C  027F               	subwf	btemp+1,w
  7206  070D  1D03               	skipz
  7207  070E  2F11               	goto	u3195
  7208  070F  30FF               	movlw	255
  7209  0710  0251               	subwf	___fldiv@new_exp,w
  7210  0711                     u3195:
  7211  0711  1C03               	skipc
  7212  0712  2F14               	goto	u3191
  7213  0713  2F15               	goto	u3190
  7214  0714                     u3191:
  7215  0714  2F23               	goto	l2564
  7216  0715                     u3190:
  7217  0715                     l2562:
  7218  0715  30FF               	movlw	255
  7219  0716  1283               	bcf	3,5	;RP0=0, select bank0
  7220  0717  1303               	bcf	3,6	;RP1=0, select bank0
  7221  0718  00D1               	movwf	___fldiv@new_exp
  7222  0719  3000               	movlw	0
  7223  071A  00D2               	movwf	___fldiv@new_exp+1
  7224  071B  3000               	movlw	0
  7225  071C  00C6               	movwf	___fldiv@b+3
  7226  071D  3000               	movlw	0
  7227  071E  00C5               	movwf	___fldiv@b+2
  7228  071F  3000               	movlw	0
  7229  0720  00C4               	movwf	___fldiv@b+1
  7230  0721  3000               	movlw	0
  7231  0722  00C3               	movwf	___fldiv@b
  7232  0723                     l2564:
  7233  0723  1283               	bcf	3,5	;RP0=0, select bank0
  7234  0724  1303               	bcf	3,6	;RP1=0, select bank0
  7235  0725  0852               	movf	___fldiv@new_exp+1,w
  7236  0726  3A80               	xorlw	128
  7237  0727  00FF               	movwf	btemp+1
  7238  0728  3080               	movlw	128
  7239  0729  027F               	subwf	btemp+1,w
  7240  072A  1D03               	skipz
  7241  072B  2F2E               	goto	u3205
  7242  072C  3001               	movlw	1
  7243  072D  0251               	subwf	___fldiv@new_exp,w
  7244  072E                     u3205:
  7245  072E  1803               	skipnc
  7246  072F  2F31               	goto	u3201
  7247  0730  2F32               	goto	u3200
  7248  0731                     u3201:
  7249  0731  2F3F               	goto	l745
  7250  0732                     u3200:
  7251  0732                     l2566:
  7252  0732  1283               	bcf	3,5	;RP0=0, select bank0
  7253  0733  1303               	bcf	3,6	;RP1=0, select bank0
  7254  0734  01D1               	clrf	___fldiv@new_exp
  7255  0735  01D2               	clrf	___fldiv@new_exp+1
  7256  0736                     l2568:
  7257  0736  3000               	movlw	0
  7258  0737  00C6               	movwf	___fldiv@b+3
  7259  0738  3000               	movlw	0
  7260  0739  00C5               	movwf	___fldiv@b+2
  7261  073A  3000               	movlw	0
  7262  073B  00C4               	movwf	___fldiv@b+1
  7263  073C  3000               	movlw	0
  7264  073D  00C3               	movwf	___fldiv@b
  7265  073E                     l2570:
  7266  073E  01D0               	clrf	___fldiv@sign
  7267  073F                     l745:
  7268  073F  1283               	bcf	3,5	;RP0=0, select bank0
  7269  0740  1303               	bcf	3,6	;RP1=0, select bank0
  7270  0741  0851               	movf	___fldiv@new_exp,w
  7271  0742  00C7               	movwf	??___fldiv
  7272  0743  0847               	movf	??___fldiv,w
  7273  0744  00D7               	movwf	___fldiv@bexp
  7274  0745                     l2572:
  7275  0745  1C57               	btfss	___fldiv@bexp,0
  7276  0746  2F48               	goto	u3211
  7277  0747  2F49               	goto	u3210
  7278  0748                     u3211:
  7279  0748  2F4B               	goto	l2576
  7280  0749                     u3210:
  7281  0749                     l2574:
  7282  0749  17C5               	bsf	___fldiv@b+2,7
  7283  074A  2F4F               	goto	l747
  7284  074B                     l2576:
  7285  074B  307F               	movlw	127
  7286  074C  00C7               	movwf	??___fldiv
  7287  074D  0847               	movf	??___fldiv,w
  7288  074E  05C5               	andwf	___fldiv@b+2,f
  7289  074F                     l747:
  7290  074F  0857               	movf	___fldiv@bexp,w
  7291  0750  00C7               	movwf	??___fldiv
  7292  0751  1003               	clrc
  7293  0752  0C47               	rrf	??___fldiv,w
  7294  0753  00C8               	movwf	??___fldiv+1
  7295  0754  0848               	movf	??___fldiv+1,w
  7296  0755  00C6               	movwf	___fldiv@b+3
  7297  0756  0850               	movf	___fldiv@sign,w
  7298  0757  00C7               	movwf	??___fldiv
  7299  0758  0847               	movf	??___fldiv,w
  7300  0759  04C6               	iorwf	___fldiv@b+3,f
  7301  075A  2DF3               	goto	l2484
  7302  075B                     l725:
  7303  075B  0008               	return
  7304  075C                     __end_of___fldiv:
  7305                           
  7306                           	psect	text13
  7307  1388                     __ptext13:	
  7308 ;; *************** function ___awdiv *****************
  7309 ;; Defined at:
  7310 ;;		line 5 in file "C:\Program Files\Microchip\xc8\v2.32\pic\sources\c90\common\awdiv.c"
  7311 ;; Parameters:    Size  Location     Type
  7312 ;;  divisor         2    0[BANK0 ] int 
  7313 ;;  dividend        2    2[BANK0 ] int 
  7314 ;; Auto vars:     Size  Location     Type
  7315 ;;  quotient        2    7[BANK0 ] int 
  7316 ;;  sign            1    6[BANK0 ] unsigned char 
  7317 ;;  counter         1    5[BANK0 ] unsigned char 
  7318 ;; Return value:  Size  Location     Type
  7319 ;;                  2    0[BANK0 ] int 
  7320 ;; Registers used:
  7321 ;;		wreg, status,2, status,0
  7322 ;; Tracked objects:
  7323 ;;		On entry : 0/0
  7324 ;;		On exit  : 0/0
  7325 ;;		Unchanged: 0/0
  7326 ;; Data sizes:     COMMON   BANK0   BANK1   BANK3   BANK2
  7327 ;;      Params:         0       4       0       0       0
  7328 ;;      Locals:         0       4       0       0       0
  7329 ;;      Temps:          0       1       0       0       0
  7330 ;;      Totals:         0       9       0       0       0
  7331 ;;Total ram usage:        9 bytes
  7332 ;; Hardware stack levels used: 1
  7333 ;; Hardware stack levels required when called: 3
  7334 ;; This function calls:
  7335 ;;		Nothing
  7336 ;; This function is called by:
  7337 ;;		_convert
  7338 ;; This function uses a non-reentrant model
  7339 ;;
  7340                           
  7341                           
  7342                           ;psect for function ___awdiv
  7343  1388                     ___awdiv:
  7344  1388                     l2334:	
  7345                           ;incstack = 0
  7346                           ; Regs used in ___awdiv: [wreg+status,2+status,0]
  7347                           
  7348  1388  1283               	bcf	3,5	;RP0=0, select bank0
  7349  1389  1303               	bcf	3,6	;RP1=0, select bank0
  7350  138A  01A6               	clrf	___awdiv@sign
  7351  138B                     l2336:
  7352  138B  1FA1               	btfss	___awdiv@divisor+1,7
  7353  138C  2B8E               	goto	u2661
  7354  138D  2B8F               	goto	u2660
  7355  138E                     u2661:
  7356  138E  2B96               	goto	l2342
  7357  138F                     u2660:
  7358  138F                     l2338:
  7359  138F  09A0               	comf	___awdiv@divisor,f
  7360  1390  09A1               	comf	___awdiv@divisor+1,f
  7361  1391  0AA0               	incf	___awdiv@divisor,f
  7362  1392  1903               	skipnz
  7363  1393  0AA1               	incf	___awdiv@divisor+1,f
  7364  1394                     l2340:
  7365  1394  01A6               	clrf	___awdiv@sign
  7366  1395  0AA6               	incf	___awdiv@sign,f
  7367  1396                     l2342:
  7368  1396  1FA3               	btfss	___awdiv@dividend+1,7
  7369  1397  2B99               	goto	u2671
  7370  1398  2B9A               	goto	u2670
  7371  1399                     u2671:
  7372  1399  2BA3               	goto	l2348
  7373  139A                     u2670:
  7374  139A                     l2344:
  7375  139A  09A2               	comf	___awdiv@dividend,f
  7376  139B  09A3               	comf	___awdiv@dividend+1,f
  7377  139C  0AA2               	incf	___awdiv@dividend,f
  7378  139D  1903               	skipnz
  7379  139E  0AA3               	incf	___awdiv@dividend+1,f
  7380  139F                     l2346:
  7381  139F  3001               	movlw	1
  7382  13A0  00A4               	movwf	??___awdiv
  7383  13A1  0824               	movf	??___awdiv,w
  7384  13A2  06A6               	xorwf	___awdiv@sign,f
  7385  13A3                     l2348:
  7386  13A3  01A7               	clrf	___awdiv@quotient
  7387  13A4  01A8               	clrf	___awdiv@quotient+1
  7388  13A5                     l2350:
  7389  13A5  0820               	movf	___awdiv@divisor,w
  7390  13A6  0421               	iorwf	___awdiv@divisor+1,w
  7391  13A7  1903               	btfsc	3,2
  7392  13A8  2BAA               	goto	u2681
  7393  13A9  2BAB               	goto	u2680
  7394  13AA                     u2681:
  7395  13AA  2BE2               	goto	l2370
  7396  13AB                     u2680:
  7397  13AB                     l2352:
  7398  13AB  01A5               	clrf	___awdiv@counter
  7399  13AC  0AA5               	incf	___awdiv@counter,f
  7400  13AD  2BB9               	goto	l2358
  7401  13AE                     l2354:
  7402  13AE  3001               	movlw	1
  7403  13AF                     u2695:
  7404  13AF  1003               	clrc
  7405  13B0  0DA0               	rlf	___awdiv@divisor,f
  7406  13B1  0DA1               	rlf	___awdiv@divisor+1,f
  7407  13B2  3EFF               	addlw	-1
  7408  13B3  1D03               	skipz
  7409  13B4  2BAF               	goto	u2695
  7410  13B5                     l2356:
  7411  13B5  3001               	movlw	1
  7412  13B6  00A4               	movwf	??___awdiv
  7413  13B7  0824               	movf	??___awdiv,w
  7414  13B8  07A5               	addwf	___awdiv@counter,f
  7415  13B9                     l2358:
  7416  13B9  1FA1               	btfss	___awdiv@divisor+1,7
  7417  13BA  2BBC               	goto	u2701
  7418  13BB  2BBD               	goto	u2700
  7419  13BC                     u2701:
  7420  13BC  2BAE               	goto	l2354
  7421  13BD                     u2700:
  7422  13BD                     l2360:
  7423  13BD  3001               	movlw	1
  7424  13BE                     u2715:
  7425  13BE  1003               	clrc
  7426  13BF  0DA7               	rlf	___awdiv@quotient,f
  7427  13C0  0DA8               	rlf	___awdiv@quotient+1,f
  7428  13C1  3EFF               	addlw	-1
  7429  13C2  1D03               	skipz
  7430  13C3  2BBE               	goto	u2715
  7431  13C4  0821               	movf	___awdiv@divisor+1,w
  7432  13C5  0223               	subwf	___awdiv@dividend+1,w
  7433  13C6  1D03               	skipz
  7434  13C7  2BCA               	goto	u2725
  7435  13C8  0820               	movf	___awdiv@divisor,w
  7436  13C9  0222               	subwf	___awdiv@dividend,w
  7437  13CA                     u2725:
  7438  13CA  1C03               	skipc
  7439  13CB  2BCD               	goto	u2721
  7440  13CC  2BCE               	goto	u2720
  7441  13CD                     u2721:
  7442  13CD  2BD5               	goto	l2366
  7443  13CE                     u2720:
  7444  13CE                     l2362:
  7445  13CE  0820               	movf	___awdiv@divisor,w
  7446  13CF  02A2               	subwf	___awdiv@dividend,f
  7447  13D0  0821               	movf	___awdiv@divisor+1,w
  7448  13D1  1C03               	skipc
  7449  13D2  03A3               	decf	___awdiv@dividend+1,f
  7450  13D3  02A3               	subwf	___awdiv@dividend+1,f
  7451  13D4                     l2364:
  7452  13D4  1427               	bsf	___awdiv@quotient,0
  7453  13D5                     l2366:
  7454  13D5  3001               	movlw	1
  7455  13D6                     u2735:
  7456  13D6  1003               	clrc
  7457  13D7  0CA1               	rrf	___awdiv@divisor+1,f
  7458  13D8  0CA0               	rrf	___awdiv@divisor,f
  7459  13D9  3EFF               	addlw	-1
  7460  13DA  1D03               	skipz
  7461  13DB  2BD6               	goto	u2735
  7462  13DC                     l2368:
  7463  13DC  3001               	movlw	1
  7464  13DD  02A5               	subwf	___awdiv@counter,f
  7465  13DE  1D03               	btfss	3,2
  7466  13DF  2BE1               	goto	u2741
  7467  13E0  2BE2               	goto	u2740
  7468  13E1                     u2741:
  7469  13E1  2BBD               	goto	l2360
  7470  13E2                     u2740:
  7471  13E2                     l2370:
  7472  13E2  0826               	movf	___awdiv@sign,w
  7473  13E3  1903               	btfsc	3,2
  7474  13E4  2BE6               	goto	u2751
  7475  13E5  2BE7               	goto	u2750
  7476  13E6                     u2751:
  7477  13E6  2BEC               	goto	l2374
  7478  13E7                     u2750:
  7479  13E7                     l2372:
  7480  13E7  09A7               	comf	___awdiv@quotient,f
  7481  13E8  09A8               	comf	___awdiv@quotient+1,f
  7482  13E9  0AA7               	incf	___awdiv@quotient,f
  7483  13EA  1903               	skipnz
  7484  13EB  0AA8               	incf	___awdiv@quotient+1,f
  7485  13EC                     l2374:
  7486  13EC  0828               	movf	___awdiv@quotient+1,w
  7487  13ED  00A1               	movwf	?___awdiv+1
  7488  13EE  0827               	movf	___awdiv@quotient,w
  7489  13EF  00A0               	movwf	?___awdiv
  7490  13F0                     l527:
  7491  13F0  0008               	return
  7492  13F1                     __end_of___awdiv:
  7493                           
  7494                           	psect	text14
  7495  1246                     __ptext14:	
  7496 ;; *************** function _configE *****************
  7497 ;; Defined at:
  7498 ;;		line 100 in file "Esclavo.c"
  7499 ;; Parameters:    Size  Location     Type
  7500 ;;		None
  7501 ;; Auto vars:     Size  Location     Type
  7502 ;;		None
  7503 ;; Return value:  Size  Location     Type
  7504 ;;                  1    wreg      void 
  7505 ;; Registers used:
  7506 ;;		wreg, fsr0l, fsr0h, status,2, status,0, pclath, cstack
  7507 ;; Tracked objects:
  7508 ;;		On entry : 0/0
  7509 ;;		On exit  : 0/0
  7510 ;;		Unchanged: 0/0
  7511 ;; Data sizes:     COMMON   BANK0   BANK1   BANK3   BANK2
  7512 ;;      Params:         0       0       0       0       0
  7513 ;;      Locals:         0       0       0       0       0
  7514 ;;      Temps:          0       0       0       0       0
  7515 ;;      Totals:         0       0       0       0       0
  7516 ;;Total ram usage:        0 bytes
  7517 ;; Hardware stack levels used: 1
  7518 ;; Hardware stack levels required when called: 4
  7519 ;; This function calls:
  7520 ;;		_config_osc
  7521 ;;		_spiInit
  7522 ;; This function is called by:
  7523 ;;		_main
  7524 ;; This function uses a non-reentrant model
  7525 ;;
  7526                           
  7527                           
  7528                           ;psect for function _configE
  7529  1246                     _configE:
  7530  1246                     l2774:	
  7531                           ;incstack = 0
  7532                           ; Regs used in _configE: [wreg-fsr0h+status,2+status,0+pclath+cstack]
  7533                           
  7534                           
  7535                           ;Esclavo.c: 101:     ANSEL = 0X00;
  7536  1246  1683               	bsf	3,5	;RP0=1, select bank3
  7537  1247  1703               	bsf	3,6	;RP1=1, select bank3
  7538  1248  0188               	clrf	8	;volatile
  7539                           
  7540                           ;Esclavo.c: 102:     ANSELH = 0X00;
  7541  1249  0189               	clrf	9	;volatile
  7542  124A                     l2776:
  7543                           
  7544                           ;Esclavo.c: 104:     TRISA0 = 1;
  7545  124A  1683               	bsf	3,5	;RP0=1, select bank1
  7546  124B  1303               	bcf	3,6	;RP1=0, select bank1
  7547  124C  1405               	bsf	5,0	;volatile
  7548  124D                     l2778:
  7549                           
  7550                           ;Esclavo.c: 105:     TRISA1 = 1;
  7551  124D  1485               	bsf	5,1	;volatile
  7552                           
  7553                           ;Esclavo.c: 107:     TRISB = 0X00;
  7554  124E  0186               	clrf	6	;volatile
  7555                           
  7556                           ;Esclavo.c: 109:     TRISC = 0X00;
  7557  124F  0187               	clrf	7	;volatile
  7558                           
  7559                           ;Esclavo.c: 110:     TRISD = 0X00;
  7560  1250  0188               	clrf	8	;volatile
  7561                           
  7562                           ;Esclavo.c: 112:     PORTB = 0X00;
  7563  1251  1283               	bcf	3,5	;RP0=0, select bank0
  7564  1252  1303               	bcf	3,6	;RP1=0, select bank0
  7565  1253  0186               	clrf	6	;volatile
  7566                           
  7567                           ;Esclavo.c: 113:     PORTC = 0X00;
  7568  1254  0187               	clrf	7	;volatile
  7569                           
  7570                           ;Esclavo.c: 114:     PORTD = 0X00;
  7571  1255  0188               	clrf	8	;volatile
  7572  1256                     l2780:
  7573                           
  7574                           ;Esclavo.c: 117:         config_osc(7);
  7575  1256  3007               	movlw	7
  7576  1257  160A  118A  2271  160A  118A  	fcall	_config_osc
  7577  125C                     l2782:
  7578                           
  7579                           ;Esclavo.c: 119:     INTCONbits.GIE = 1;
  7580  125C  178B               	bsf	11,7	;volatile
  7581  125D                     l2784:
  7582                           
  7583                           ;Esclavo.c: 120:     INTCONbits.PEIE = 1;
  7584  125D  170B               	bsf	11,6	;volatile
  7585  125E                     l2786:
  7586                           
  7587                           ;Esclavo.c: 121:     PIR1bits.SSPIF = 0;
  7588  125E  1283               	bcf	3,5	;RP0=0, select bank0
  7589  125F  1303               	bcf	3,6	;RP1=0, select bank0
  7590  1260  118C               	bcf	12,3	;volatile
  7591  1261                     l2788:
  7592                           
  7593                           ;Esclavo.c: 122:     PIE1bits.SSPIE = 1;
  7594  1261  1683               	bsf	3,5	;RP0=1, select bank1
  7595  1262  1303               	bcf	3,6	;RP1=0, select bank1
  7596  1263  158C               	bsf	12,3	;volatile
  7597  1264                     l2790:
  7598                           
  7599                           ;Esclavo.c: 123:     TRISAbits.TRISA5 = 1;
  7600  1264  1685               	bsf	5,5	;volatile
  7601  1265                     l2792:
  7602                           
  7603                           ;Esclavo.c: 124:     spiInit(SPI_SLAVE_SS_EN, SPI_DATA_SAMPLE_MIDDLE, SPI_CLOCK_IDLE_LOW
      +                          , SPI_IDLE_2_ACTIVE);
  7604  1265  1283               	bcf	3,5	;RP0=0, select bank0
  7605  1266  1303               	bcf	3,6	;RP1=0, select bank0
  7606  1267  01A0               	clrf	spiInit@sDataSample
  7607  1268  01A1               	clrf	spiInit@sClockIdle
  7608  1269  01A2               	clrf	spiInit@sTransmitEdge
  7609  126A  3024               	movlw	36
  7610  126B  160A  118A  21B4  160A  118A  	fcall	_spiInit
  7611  1270                     l88:
  7612  1270  0008               	return
  7613  1271                     __end_of_configE:
  7614                           
  7615                           	psect	text15
  7616  11B4                     __ptext15:	
  7617 ;; *************** function _spiInit *****************
  7618 ;; Defined at:
  7619 ;;		line 54 in file "Librerias.c"
  7620 ;; Parameters:    Size  Location     Type
  7621 ;;  sType           1    wreg     enum E1475
  7622 ;;  sDataSample     1    0[BANK0 ] enum E1483
  7623 ;;  sClockIdle      1    1[BANK0 ] enum E1487
  7624 ;;  sTransmitEdg    1    2[BANK0 ] enum E1491
  7625 ;; Auto vars:     Size  Location     Type
  7626 ;;  sType           1    3[BANK0 ] enum E1475
  7627 ;; Return value:  Size  Location     Type
  7628 ;;                  1    wreg      void 
  7629 ;; Registers used:
  7630 ;;		wreg, status,2, status,0
  7631 ;; Tracked objects:
  7632 ;;		On entry : 0/0
  7633 ;;		On exit  : 0/0
  7634 ;;		Unchanged: 0/0
  7635 ;; Data sizes:     COMMON   BANK0   BANK1   BANK3   BANK2
  7636 ;;      Params:         0       3       0       0       0
  7637 ;;      Locals:         0       1       0       0       0
  7638 ;;      Temps:          0       0       0       0       0
  7639 ;;      Totals:         0       4       0       0       0
  7640 ;;Total ram usage:        4 bytes
  7641 ;; Hardware stack levels used: 1
  7642 ;; Hardware stack levels required when called: 3
  7643 ;; This function calls:
  7644 ;;		Nothing
  7645 ;; This function is called by:
  7646 ;;		_configE
  7647 ;; This function uses a non-reentrant model
  7648 ;;
  7649                           
  7650                           
  7651                           ;psect for function _spiInit
  7652  11B4                     _spiInit:
  7653                           
  7654                           ;incstack = 0
  7655                           ; Regs used in _spiInit: [wreg+status,2+status,0]
  7656                           ;spiInit@sType stored from wreg
  7657  11B4  1283               	bcf	3,5	;RP0=0, select bank0
  7658  11B5  1303               	bcf	3,6	;RP1=0, select bank0
  7659  11B6  00A3               	movwf	spiInit@sType
  7660  11B7                     l2284:
  7661                           
  7662                           ;Librerias.c: 54: void spiInit(Spi_Type sType, Spi_Data_Sample sDataSample, Spi_Clock_Id
      +                          le sClockIdle, Spi_Transmit_Edge sTransmitEdge);Librerias.c: 55: {;Librerias.c: 56:     
      +                          TRISC5 = 0;
  7663  11B7  1683               	bsf	3,5	;RP0=1, select bank1
  7664  11B8  1303               	bcf	3,6	;RP1=0, select bank1
  7665  11B9  1287               	bcf	7,5	;volatile
  7666                           
  7667                           ;Librerias.c: 57:     if(sType & 0b00000100)
  7668  11BA  1283               	bcf	3,5	;RP0=0, select bank0
  7669  11BB  1303               	bcf	3,6	;RP1=0, select bank0
  7670  11BC  1D23               	btfss	spiInit@sType,2
  7671  11BD  29BF               	goto	u2531
  7672  11BE  29C0               	goto	u2530
  7673  11BF                     u2531:
  7674  11BF  29C6               	goto	l2290
  7675  11C0                     u2530:
  7676  11C0                     l2286:
  7677                           
  7678                           ;Librerias.c: 58:     {;Librerias.c: 59:         SSPSTAT = sTransmitEdge;
  7679  11C0  0822               	movf	spiInit@sTransmitEdge,w
  7680  11C1  1683               	bsf	3,5	;RP0=1, select bank1
  7681  11C2  1303               	bcf	3,6	;RP1=0, select bank1
  7682  11C3  0094               	movwf	20	;volatile
  7683  11C4                     l2288:
  7684                           
  7685                           ;Librerias.c: 60:         TRISC3 = 1;
  7686  11C4  1587               	bsf	7,3	;volatile
  7687                           
  7688                           ;Librerias.c: 61:     }
  7689  11C5  29CC               	goto	l119
  7690  11C6                     l2290:
  7691                           
  7692                           ;Librerias.c: 63:     {;Librerias.c: 64:         SSPSTAT = sDataSample | sTransmitEdge;
  7693  11C6  0820               	movf	spiInit@sDataSample,w
  7694  11C7  0422               	iorwf	spiInit@sTransmitEdge,w
  7695  11C8  1683               	bsf	3,5	;RP0=1, select bank1
  7696  11C9  1303               	bcf	3,6	;RP1=0, select bank1
  7697  11CA  0094               	movwf	20	;volatile
  7698  11CB                     l2292:
  7699                           
  7700                           ;Librerias.c: 65:         TRISC3 = 0;
  7701  11CB  1187               	bcf	7,3	;volatile
  7702  11CC                     l119:	
  7703                           ;Librerias.c: 66:     }
  7704                           
  7705                           
  7706                           ;Librerias.c: 68:     SSPCON = sType | sClockIdle;
  7707  11CC  1283               	bcf	3,5	;RP0=0, select bank0
  7708  11CD  1303               	bcf	3,6	;RP1=0, select bank0
  7709  11CE  0823               	movf	spiInit@sType,w
  7710  11CF  0421               	iorwf	spiInit@sClockIdle,w
  7711  11D0  0094               	movwf	20	;volatile
  7712  11D1                     l120:
  7713  11D1  0008               	return
  7714  11D2                     __end_of_spiInit:
  7715                           
  7716                           	psect	text16
  7717  1271                     __ptext16:	
  7718 ;; *************** function _config_osc *****************
  7719 ;; Defined at:
  7720 ;;		line 23 in file "Librerias.c"
  7721 ;; Parameters:    Size  Location     Type
  7722 ;;  frec            1    wreg     unsigned char 
  7723 ;; Auto vars:     Size  Location     Type
  7724 ;;  frec            1    2[BANK0 ] unsigned char 
  7725 ;; Return value:  Size  Location     Type
  7726 ;;                  1    wreg      void 
  7727 ;; Registers used:
  7728 ;;		wreg, fsr0l, fsr0h, status,2, status,0
  7729 ;; Tracked objects:
  7730 ;;		On entry : 0/0
  7731 ;;		On exit  : 0/0
  7732 ;;		Unchanged: 0/0
  7733 ;; Data sizes:     COMMON   BANK0   BANK1   BANK3   BANK2
  7734 ;;      Params:         0       0       0       0       0
  7735 ;;      Locals:         0       1       0       0       0
  7736 ;;      Temps:          0       2       0       0       0
  7737 ;;      Totals:         0       3       0       0       0
  7738 ;;Total ram usage:        3 bytes
  7739 ;; Hardware stack levels used: 1
  7740 ;; Hardware stack levels required when called: 3
  7741 ;; This function calls:
  7742 ;;		Nothing
  7743 ;; This function is called by:
  7744 ;;		_configE
  7745 ;; This function uses a non-reentrant model
  7746 ;;
  7747                           
  7748                           
  7749                           ;psect for function _config_osc
  7750  1271                     _config_osc:
  7751                           
  7752                           ;incstack = 0
  7753                           ; Regs used in _config_osc: [wreg-fsr0h+status,2+status,0]
  7754                           ;config_osc@frec stored from wreg
  7755  1271  1283               	bcf	3,5	;RP0=0, select bank0
  7756  1272  1303               	bcf	3,6	;RP1=0, select bank0
  7757  1273  00A2               	movwf	config_osc@frec
  7758  1274                     l2256:
  7759                           
  7760                           ;Librerias.c: 24:         switch(frec){
  7761  1274  2AA7               	goto	l2276
  7762  1275                     l2258:
  7763                           
  7764                           ;Librerias.c: 26:                 OSCCONbits.IRCF = 000;
  7765  1275  308F               	movlw	-113
  7766  1276  1683               	bsf	3,5	;RP0=1, select bank1
  7767  1277  1303               	bcf	3,6	;RP1=0, select bank1
  7768  1278  058F               	andwf	15,f	;volatile
  7769                           
  7770                           ;Librerias.c: 27:                 break;
  7771  1279  2AC6               	goto	l107
  7772  127A                     l2260:
  7773                           
  7774                           ;Librerias.c: 29:                 OSCCONbits.IRCF = 001;
  7775  127A  1683               	bsf	3,5	;RP0=1, select bank1
  7776  127B  1303               	bcf	3,6	;RP1=0, select bank1
  7777  127C  080F               	movf	15,w	;volatile
  7778  127D  398F               	andlw	-113
  7779  127E  3810               	iorlw	16
  7780  127F  008F               	movwf	15	;volatile
  7781                           
  7782                           ;Librerias.c: 30:                 break;
  7783  1280  2AC6               	goto	l107
  7784  1281                     l2262:
  7785                           
  7786                           ;Librerias.c: 32:                 OSCCONbits.IRCF = 010;
  7787  1281  308F               	movlw	-113
  7788  1282  1683               	bsf	3,5	;RP0=1, select bank1
  7789  1283  1303               	bcf	3,6	;RP1=0, select bank1
  7790  1284  058F               	andwf	15,f	;volatile
  7791                           
  7792                           ;Librerias.c: 33:                 break;
  7793  1285  2AC6               	goto	l107
  7794  1286                     l2264:
  7795                           
  7796                           ;Librerias.c: 35:                 OSCCONbits.IRCF = 011;
  7797  1286  1683               	bsf	3,5	;RP0=1, select bank1
  7798  1287  1303               	bcf	3,6	;RP1=0, select bank1
  7799  1288  080F               	movf	15,w	;volatile
  7800  1289  398F               	andlw	-113
  7801  128A  3810               	iorlw	16
  7802  128B  008F               	movwf	15	;volatile
  7803                           
  7804                           ;Librerias.c: 36:                 break;
  7805  128C  2AC6               	goto	l107
  7806  128D                     l2266:
  7807                           
  7808                           ;Librerias.c: 38:                 OSCCONbits.IRCF = 100;
  7809  128D  1683               	bsf	3,5	;RP0=1, select bank1
  7810  128E  1303               	bcf	3,6	;RP1=0, select bank1
  7811  128F  080F               	movf	15,w	;volatile
  7812  1290  398F               	andlw	-113
  7813  1291  3840               	iorlw	64
  7814  1292  008F               	movwf	15	;volatile
  7815                           
  7816                           ;Librerias.c: 39:                 break;
  7817  1293  2AC6               	goto	l107
  7818  1294                     l2268:
  7819                           
  7820                           ;Librerias.c: 41:                 OSCCONbits.IRCF = 101;
  7821  1294  1683               	bsf	3,5	;RP0=1, select bank1
  7822  1295  1303               	bcf	3,6	;RP1=0, select bank1
  7823  1296  080F               	movf	15,w	;volatile
  7824  1297  398F               	andlw	-113
  7825  1298  3850               	iorlw	80
  7826  1299  008F               	movwf	15	;volatile
  7827                           
  7828                           ;Librerias.c: 42:                 break;
  7829  129A  2AC6               	goto	l107
  7830  129B                     l2270:
  7831                           
  7832                           ;Librerias.c: 44:                 OSCCONbits.IRCF = 111;
  7833  129B  3070               	movlw	112
  7834  129C  1683               	bsf	3,5	;RP0=1, select bank1
  7835  129D  1303               	bcf	3,6	;RP1=0, select bank1
  7836  129E  048F               	iorwf	15,f	;volatile
  7837                           
  7838                           ;Librerias.c: 45:                 break;
  7839  129F  2AC6               	goto	l107
  7840  12A0                     l2272:
  7841                           
  7842                           ;Librerias.c: 47:                 OSCCONbits.IRCF = 110;
  7843  12A0  1683               	bsf	3,5	;RP0=1, select bank1
  7844  12A1  1303               	bcf	3,6	;RP1=0, select bank1
  7845  12A2  080F               	movf	15,w	;volatile
  7846  12A3  398F               	andlw	-113
  7847  12A4  3860               	iorlw	96
  7848  12A5  008F               	movwf	15	;volatile
  7849                           
  7850                           ;Librerias.c: 48:                 break;
  7851  12A6  2AC6               	goto	l107
  7852  12A7                     l2276:
  7853  12A7  0822               	movf	config_osc@frec,w
  7854  12A8  00A0               	movwf	??_config_osc
  7855  12A9  01A1               	clrf	??_config_osc+1
  7856                           
  7857                           ; Switch on 2 bytes has been partitioned into a top level switch of size 1, and 1 sub-sw
      +                          itches
  7858                           ; Switch size 1, requested type "simple"
  7859                           ; Number of cases is 1, Range of values is 0 to 0
  7860                           ; switch strategies available:
  7861                           ; Name         Instructions Cycles
  7862                           ; simple_byte            4     3 (average)
  7863                           ; direct_byte           11     8 (fixed)
  7864                           ; jumptable            260     6 (fixed)
  7865                           ;	Chosen strategy is simple_byte
  7866  12AA  0821               	movf	??_config_osc+1,w
  7867  12AB  3A00               	xorlw	0	; case 0
  7868  12AC  1903               	skipnz
  7869  12AD  2AAF               	goto	l3194
  7870  12AE  2AA0               	goto	l2272
  7871  12AF                     l3194:
  7872                           
  7873                           ; Switch size 1, requested type "simple"
  7874                           ; Number of cases is 7, Range of values is 0 to 7
  7875                           ; switch strategies available:
  7876                           ; Name         Instructions Cycles
  7877                           ; simple_byte           22    12 (average)
  7878                           ; direct_byte           32     8 (fixed)
  7879                           ; jumptable            260     6 (fixed)
  7880                           ;	Chosen strategy is simple_byte
  7881  12AF  0820               	movf	??_config_osc,w
  7882  12B0  3A00               	xorlw	0	; case 0
  7883  12B1  1903               	skipnz
  7884  12B2  2A75               	goto	l2258
  7885  12B3  3A01               	xorlw	1	; case 1
  7886  12B4  1903               	skipnz
  7887  12B5  2A7A               	goto	l2260
  7888  12B6  3A03               	xorlw	3	; case 2
  7889  12B7  1903               	skipnz
  7890  12B8  2A81               	goto	l2262
  7891  12B9  3A01               	xorlw	1	; case 3
  7892  12BA  1903               	skipnz
  7893  12BB  2A86               	goto	l2264
  7894  12BC  3A07               	xorlw	7	; case 4
  7895  12BD  1903               	skipnz
  7896  12BE  2A8D               	goto	l2266
  7897  12BF  3A01               	xorlw	1	; case 5
  7898  12C0  1903               	skipnz
  7899  12C1  2A94               	goto	l2268
  7900  12C2  3A02               	xorlw	2	; case 7
  7901  12C3  1903               	skipnz
  7902  12C4  2A9B               	goto	l2270
  7903  12C5  2AA0               	goto	l2272
  7904  12C6                     l107:
  7905                           
  7906                           ;Librerias.c: 50:         OSCCONbits.SCS = 1;
  7907  12C6  140F               	bsf	15,0	;volatile
  7908  12C7                     l115:
  7909  12C7  0008               	return
  7910  12C8                     __end_of_config_osc:
  7911                           
  7912                           	psect	text17
  7913  14CE                     __ptext17:	
  7914 ;; *************** function _UARTInit *****************
  7915 ;; Defined at:
  7916 ;;		line 16 in file "USARTEL3.c"
  7917 ;; Parameters:    Size  Location     Type
  7918 ;;  baud_rate       4   14[BANK0 ] const unsigned long 
  7919 ;;  BRGH            1   18[BANK0 ] const unsigned char 
  7920 ;; Auto vars:     Size  Location     Type
  7921 ;;		None
  7922 ;; Return value:  Size  Location     Type
  7923 ;;                  1    wreg      void 
  7924 ;; Registers used:
  7925 ;;		wreg, status,2, status,0, pclath, cstack
  7926 ;; Tracked objects:
  7927 ;;		On entry : 0/0
  7928 ;;		On exit  : 0/0
  7929 ;;		Unchanged: 0/0
  7930 ;; Data sizes:     COMMON   BANK0   BANK1   BANK3   BANK2
  7931 ;;      Params:         0       5       0       0       0
  7932 ;;      Locals:         0       0       0       0       0
  7933 ;;      Temps:          0       4       0       0       0
  7934 ;;      Totals:         0       9       0       0       0
  7935 ;;Total ram usage:        9 bytes
  7936 ;; Hardware stack levels used: 1
  7937 ;; Hardware stack levels required when called: 4
  7938 ;; This function calls:
  7939 ;;		___lldiv
  7940 ;; This function is called by:
  7941 ;;		_main
  7942 ;; This function uses a non-reentrant model
  7943 ;;
  7944                           
  7945                           
  7946                           ;psect for function _UARTInit
  7947  14CE                     _UARTInit:
  7948  14CE                     l2848:	
  7949                           ;incstack = 0
  7950                           ; Regs used in _UARTInit: [wreg+status,2+status,0+pclath+cstack]
  7951                           
  7952                           
  7953                           ;USARTEL3.c: 18:     if (BRGH == 0) {
  7954  14CE  1283               	bcf	3,5	;RP0=0, select bank0
  7955  14CF  1303               	bcf	3,6	;RP1=0, select bank0
  7956  14D0  0832               	movf	UARTInit@BRGH,w
  7957  14D1  1D03               	btfss	3,2
  7958  14D2  2CD4               	goto	u3751
  7959  14D3  2CD5               	goto	u3750
  7960  14D4                     u3751:
  7961  14D4  2D04               	goto	l2854
  7962  14D5                     u3750:
  7963  14D5                     l2850:
  7964                           
  7965                           ;USARTEL3.c: 19:         SPBRG = 8000000 / (64 * baud_rate) - 1;
  7966  14D5  082E               	movf	UARTInit@baud_rate,w
  7967  14D6  00B3               	movwf	??_UARTInit
  7968  14D7  082F               	movf	UARTInit@baud_rate+1,w
  7969  14D8  00B4               	movwf	??_UARTInit+1
  7970  14D9  0830               	movf	UARTInit@baud_rate+2,w
  7971  14DA  00B5               	movwf	??_UARTInit+2
  7972  14DB  0831               	movf	UARTInit@baud_rate+3,w
  7973  14DC  00B6               	movwf	??_UARTInit+3
  7974  14DD  3006               	movlw	6
  7975  14DE                     u3765:
  7976  14DE  1003               	clrc
  7977  14DF  0DB3               	rlf	??_UARTInit,f
  7978  14E0  0DB4               	rlf	??_UARTInit+1,f
  7979  14E1  0DB5               	rlf	??_UARTInit+2,f
  7980  14E2  0DB6               	rlf	??_UARTInit+3,f
  7981  14E3                     u3760:
  7982  14E3  3EFF               	addlw	-1
  7983  14E4  1D03               	skipz
  7984  14E5  2CDE               	goto	u3765
  7985  14E6  0836               	movf	??_UARTInit+3,w
  7986  14E7  00A3               	movwf	___lldiv@divisor+3
  7987  14E8  0835               	movf	??_UARTInit+2,w
  7988  14E9  00A2               	movwf	___lldiv@divisor+2
  7989  14EA  0834               	movf	??_UARTInit+1,w
  7990  14EB  00A1               	movwf	___lldiv@divisor+1
  7991  14EC  0833               	movf	??_UARTInit,w
  7992  14ED  00A0               	movwf	___lldiv@divisor
  7993  14EE  3000               	movlw	0
  7994  14EF  00A7               	movwf	___lldiv@dividend+3
  7995  14F0  307A               	movlw	122
  7996  14F1  00A6               	movwf	___lldiv@dividend+2
  7997  14F2  3012               	movlw	18
  7998  14F3  00A5               	movwf	___lldiv@dividend+1
  7999  14F4  3000               	movlw	0
  8000  14F5  00A4               	movwf	___lldiv@dividend
  8001  14F6  160A  118A  2320  160A  118A  	fcall	___lldiv
  8002  14FB  1283               	bcf	3,5	;RP0=0, select bank0
  8003  14FC  1303               	bcf	3,6	;RP1=0, select bank0
  8004  14FD  0820               	movf	?___lldiv,w
  8005  14FE  3EFF               	addlw	255
  8006  14FF  1683               	bsf	3,5	;RP0=1, select bank1
  8007  1500  1303               	bcf	3,6	;RP1=0, select bank1
  8008  1501  0099               	movwf	25	;volatile
  8009  1502                     l2852:
  8010                           
  8011                           ;USARTEL3.c: 20:         TXSTAbits.BRGH = 0;
  8012  1502  1118               	bcf	24,2	;volatile
  8013                           
  8014                           ;USARTEL3.c: 21:     } else {
  8015  1503  2D32               	goto	l2858
  8016  1504                     l2854:
  8017                           
  8018                           ;USARTEL3.c: 22:         SPBRG = 8000000 / (16 * baud_rate) - 1;
  8019  1504  082E               	movf	UARTInit@baud_rate,w
  8020  1505  00B3               	movwf	??_UARTInit
  8021  1506  082F               	movf	UARTInit@baud_rate+1,w
  8022  1507  00B4               	movwf	??_UARTInit+1
  8023  1508  0830               	movf	UARTInit@baud_rate+2,w
  8024  1509  00B5               	movwf	??_UARTInit+2
  8025  150A  0831               	movf	UARTInit@baud_rate+3,w
  8026  150B  00B6               	movwf	??_UARTInit+3
  8027  150C  3004               	movlw	4
  8028  150D                     u3775:
  8029  150D  1003               	clrc
  8030  150E  0DB3               	rlf	??_UARTInit,f
  8031  150F  0DB4               	rlf	??_UARTInit+1,f
  8032  1510  0DB5               	rlf	??_UARTInit+2,f
  8033  1511  0DB6               	rlf	??_UARTInit+3,f
  8034  1512                     u3770:
  8035  1512  3EFF               	addlw	-1
  8036  1513  1D03               	skipz
  8037  1514  2D0D               	goto	u3775
  8038  1515  0836               	movf	??_UARTInit+3,w
  8039  1516  00A3               	movwf	___lldiv@divisor+3
  8040  1517  0835               	movf	??_UARTInit+2,w
  8041  1518  00A2               	movwf	___lldiv@divisor+2
  8042  1519  0834               	movf	??_UARTInit+1,w
  8043  151A  00A1               	movwf	___lldiv@divisor+1
  8044  151B  0833               	movf	??_UARTInit,w
  8045  151C  00A0               	movwf	___lldiv@divisor
  8046  151D  3000               	movlw	0
  8047  151E  00A7               	movwf	___lldiv@dividend+3
  8048  151F  307A               	movlw	122
  8049  1520  00A6               	movwf	___lldiv@dividend+2
  8050  1521  3012               	movlw	18
  8051  1522  00A5               	movwf	___lldiv@dividend+1
  8052  1523  3000               	movlw	0
  8053  1524  00A4               	movwf	___lldiv@dividend
  8054  1525  160A  118A  2320  160A  118A  	fcall	___lldiv
  8055  152A  1283               	bcf	3,5	;RP0=0, select bank0
  8056  152B  1303               	bcf	3,6	;RP1=0, select bank0
  8057  152C  0820               	movf	?___lldiv,w
  8058  152D  3EFF               	addlw	255
  8059  152E  1683               	bsf	3,5	;RP0=1, select bank1
  8060  152F  1303               	bcf	3,6	;RP1=0, select bank1
  8061  1530  0099               	movwf	25	;volatile
  8062  1531                     l2856:
  8063                           
  8064                           ;USARTEL3.c: 23:         TXSTAbits.BRGH = 1;
  8065  1531  1518               	bsf	24,2	;volatile
  8066  1532                     l2858:
  8067                           
  8068                           ;USARTEL3.c: 27:     TXSTAbits.TX9 = 0;
  8069  1532  1318               	bcf	24,6	;volatile
  8070  1533                     l2860:
  8071                           
  8072                           ;USARTEL3.c: 28:     TXSTAbits.TXEN = 1;
  8073  1533  1698               	bsf	24,5	;volatile
  8074  1534                     l2862:
  8075                           
  8076                           ;USARTEL3.c: 29:     TXSTAbits.SYNC = 0;
  8077  1534  1218               	bcf	24,4	;volatile
  8078  1535                     l2864:
  8079                           
  8080                           ;USARTEL3.c: 32:     RCSTAbits.SPEN = 1;
  8081  1535  1283               	bcf	3,5	;RP0=0, select bank0
  8082  1536  1303               	bcf	3,6	;RP1=0, select bank0
  8083  1537  1798               	bsf	24,7	;volatile
  8084  1538                     l2866:
  8085                           
  8086                           ;USARTEL3.c: 33:     RCSTAbits.RX9 = 0;
  8087  1538  1318               	bcf	24,6	;volatile
  8088  1539                     l2868:
  8089                           
  8090                           ;USARTEL3.c: 34:     RCSTAbits.CREN = 1;
  8091  1539  1618               	bsf	24,4	;volatile
  8092  153A                     l2870:
  8093                           
  8094                           ;USARTEL3.c: 35:     RCSTAbits.FERR = 0;
  8095  153A  1118               	bcf	24,2	;volatile
  8096  153B                     l2872:
  8097                           
  8098                           ;USARTEL3.c: 36:     RCSTAbits.OERR = 0;
  8099  153B  1098               	bcf	24,1	;volatile
  8100  153C                     l2874:
  8101                           
  8102                           ;USARTEL3.c: 39:     TRISCbits.TRISC7 = 1;
  8103  153C  1683               	bsf	3,5	;RP0=1, select bank1
  8104  153D  1303               	bcf	3,6	;RP1=0, select bank1
  8105  153E  1787               	bsf	7,7	;volatile
  8106  153F                     l2876:
  8107                           
  8108                           ;USARTEL3.c: 40:     TRISCbits.TRISC6 = 0;
  8109  153F  1307               	bcf	7,6	;volatile
  8110  1540                     l160:
  8111  1540  0008               	return
  8112  1541                     __end_of_UARTInit:
  8113                           
  8114                           	psect	text18
  8115  1320                     __ptext18:	
  8116 ;; *************** function ___lldiv *****************
  8117 ;; Defined at:
  8118 ;;		line 5 in file "C:\Program Files\Microchip\xc8\v2.32\pic\sources\c90\common\__lldiv.c"
  8119 ;; Parameters:    Size  Location     Type
  8120 ;;  divisor         4    0[BANK0 ] unsigned long 
  8121 ;;  dividend        4    4[BANK0 ] unsigned long 
  8122 ;; Auto vars:     Size  Location     Type
  8123 ;;  quotient        4    9[BANK0 ] unsigned long 
  8124 ;;  counter         1   13[BANK0 ] unsigned char 
  8125 ;; Return value:  Size  Location     Type
  8126 ;;                  4    0[BANK0 ] unsigned long 
  8127 ;; Registers used:
  8128 ;;		wreg, status,2, status,0
  8129 ;; Tracked objects:
  8130 ;;		On entry : 0/0
  8131 ;;		On exit  : 0/0
  8132 ;;		Unchanged: 0/0
  8133 ;; Data sizes:     COMMON   BANK0   BANK1   BANK3   BANK2
  8134 ;;      Params:         0       8       0       0       0
  8135 ;;      Locals:         0       5       0       0       0
  8136 ;;      Temps:          0       1       0       0       0
  8137 ;;      Totals:         0      14       0       0       0
  8138 ;;Total ram usage:       14 bytes
  8139 ;; Hardware stack levels used: 1
  8140 ;; Hardware stack levels required when called: 3
  8141 ;; This function calls:
  8142 ;;		Nothing
  8143 ;; This function is called by:
  8144 ;;		_UARTInit
  8145 ;; This function uses a non-reentrant model
  8146 ;;
  8147                           
  8148                           
  8149                           ;psect for function ___lldiv
  8150  1320                     ___lldiv:
  8151  1320                     l2310:	
  8152                           ;incstack = 0
  8153                           ; Regs used in ___lldiv: [wreg+status,2+status,0]
  8154                           
  8155  1320  3000               	movlw	0
  8156  1321  1283               	bcf	3,5	;RP0=0, select bank0
  8157  1322  1303               	bcf	3,6	;RP1=0, select bank0
  8158  1323  00AC               	movwf	___lldiv@quotient+3
  8159  1324  3000               	movlw	0
  8160  1325  00AB               	movwf	___lldiv@quotient+2
  8161  1326  3000               	movlw	0
  8162  1327  00AA               	movwf	___lldiv@quotient+1
  8163  1328  3000               	movlw	0
  8164  1329  00A9               	movwf	___lldiv@quotient
  8165  132A  0823               	movf	___lldiv@divisor+3,w
  8166  132B  0422               	iorwf	___lldiv@divisor+2,w
  8167  132C  0421               	iorwf	___lldiv@divisor+1,w
  8168  132D  0420               	iorwf	___lldiv@divisor,w
  8169  132E  1903               	skipnz
  8170  132F  2B31               	goto	u2591
  8171  1330  2B32               	goto	u2590
  8172  1331                     u2591:
  8173  1331  2B7F               	goto	l2330
  8174  1332                     u2590:
  8175  1332                     l2312:
  8176  1332  01AD               	clrf	___lldiv@counter
  8177  1333  0AAD               	incf	___lldiv@counter,f
  8178  1334  2B42               	goto	l2316
  8179  1335                     l2314:
  8180  1335  3001               	movlw	1
  8181  1336  00A8               	movwf	??___lldiv
  8182  1337                     u2605:
  8183  1337  1003               	clrc
  8184  1338  0DA0               	rlf	___lldiv@divisor,f
  8185  1339  0DA1               	rlf	___lldiv@divisor+1,f
  8186  133A  0DA2               	rlf	___lldiv@divisor+2,f
  8187  133B  0DA3               	rlf	___lldiv@divisor+3,f
  8188  133C  0BA8               	decfsz	??___lldiv,f
  8189  133D  2B37               	goto	u2605
  8190  133E  3001               	movlw	1
  8191  133F  00A8               	movwf	??___lldiv
  8192  1340  0828               	movf	??___lldiv,w
  8193  1341  07AD               	addwf	___lldiv@counter,f
  8194  1342                     l2316:
  8195  1342  1FA3               	btfss	___lldiv@divisor+3,7
  8196  1343  2B45               	goto	u2611
  8197  1344  2B46               	goto	u2610
  8198  1345                     u2611:
  8199  1345  2B35               	goto	l2314
  8200  1346                     u2610:
  8201  1346                     l2318:
  8202  1346  3001               	movlw	1
  8203  1347  00A8               	movwf	??___lldiv
  8204  1348                     u2625:
  8205  1348  1003               	clrc
  8206  1349  0DA9               	rlf	___lldiv@quotient,f
  8207  134A  0DAA               	rlf	___lldiv@quotient+1,f
  8208  134B  0DAB               	rlf	___lldiv@quotient+2,f
  8209  134C  0DAC               	rlf	___lldiv@quotient+3,f
  8210  134D  0BA8               	decfsz	??___lldiv,f
  8211  134E  2B48               	goto	u2625
  8212  134F                     l2320:
  8213  134F  0823               	movf	___lldiv@divisor+3,w
  8214  1350  0227               	subwf	___lldiv@dividend+3,w
  8215  1351  1D03               	skipz
  8216  1352  2B5D               	goto	u2635
  8217  1353  0822               	movf	___lldiv@divisor+2,w
  8218  1354  0226               	subwf	___lldiv@dividend+2,w
  8219  1355  1D03               	skipz
  8220  1356  2B5D               	goto	u2635
  8221  1357  0821               	movf	___lldiv@divisor+1,w
  8222  1358  0225               	subwf	___lldiv@dividend+1,w
  8223  1359  1D03               	skipz
  8224  135A  2B5D               	goto	u2635
  8225  135B  0820               	movf	___lldiv@divisor,w
  8226  135C  0224               	subwf	___lldiv@dividend,w
  8227  135D                     u2635:
  8228  135D  1C03               	skipc
  8229  135E  2B60               	goto	u2631
  8230  135F  2B61               	goto	u2630
  8231  1360                     u2631:
  8232  1360  2B70               	goto	l2326
  8233  1361                     u2630:
  8234  1361                     l2322:
  8235  1361  0820               	movf	___lldiv@divisor,w
  8236  1362  02A4               	subwf	___lldiv@dividend,f
  8237  1363  0821               	movf	___lldiv@divisor+1,w
  8238  1364  1C03               	skipc
  8239  1365  0F21               	incfsz	___lldiv@divisor+1,w
  8240  1366  02A5               	subwf	___lldiv@dividend+1,f
  8241  1367  0822               	movf	___lldiv@divisor+2,w
  8242  1368  1C03               	skipc
  8243  1369  0F22               	incfsz	___lldiv@divisor+2,w
  8244  136A  02A6               	subwf	___lldiv@dividend+2,f
  8245  136B  0823               	movf	___lldiv@divisor+3,w
  8246  136C  1C03               	skipc
  8247  136D  0F23               	incfsz	___lldiv@divisor+3,w
  8248  136E  02A7               	subwf	___lldiv@dividend+3,f
  8249  136F                     l2324:
  8250  136F  1429               	bsf	___lldiv@quotient,0
  8251  1370                     l2326:
  8252  1370  3001               	movlw	1
  8253  1371                     u2645:
  8254  1371  1003               	clrc
  8255  1372  0CA3               	rrf	___lldiv@divisor+3,f
  8256  1373  0CA2               	rrf	___lldiv@divisor+2,f
  8257  1374  0CA1               	rrf	___lldiv@divisor+1,f
  8258  1375  0CA0               	rrf	___lldiv@divisor,f
  8259  1376  3EFF               	addlw	-1
  8260  1377  1D03               	skipz
  8261  1378  2B71               	goto	u2645
  8262  1379                     l2328:
  8263  1379  3001               	movlw	1
  8264  137A  02AD               	subwf	___lldiv@counter,f
  8265  137B  1D03               	btfss	3,2
  8266  137C  2B7E               	goto	u2651
  8267  137D  2B7F               	goto	u2650
  8268  137E                     u2651:
  8269  137E  2B46               	goto	l2318
  8270  137F                     u2650:
  8271  137F                     l2330:
  8272  137F  082C               	movf	___lldiv@quotient+3,w
  8273  1380  00A3               	movwf	?___lldiv+3
  8274  1381  082B               	movf	___lldiv@quotient+2,w
  8275  1382  00A2               	movwf	?___lldiv+2
  8276  1383  082A               	movf	___lldiv@quotient+1,w
  8277  1384  00A1               	movwf	?___lldiv+1
  8278  1385  0829               	movf	___lldiv@quotient,w
  8279  1386  00A0               	movwf	?___lldiv
  8280  1387                     l410:
  8281  1387  0008               	return
  8282  1388                     __end_of___lldiv:
  8283                           
  8284                           	psect	text19
  8285  15BD                     __ptext19:	
  8286 ;; *************** function _Select_ch *****************
  8287 ;; Defined at:
  8288 ;;		line 173 in file "ADCEL3.c"
  8289 ;; Parameters:    Size  Location     Type
  8290 ;;  channel         1    wreg     unsigned char 
  8291 ;; Auto vars:     Size  Location     Type
  8292 ;;  channel         1    2[BANK0 ] unsigned char 
  8293 ;; Return value:  Size  Location     Type
  8294 ;;                  1    wreg      void 
  8295 ;; Registers used:
  8296 ;;		wreg, fsr0l, fsr0h, status,2, status,0
  8297 ;; Tracked objects:
  8298 ;;		On entry : 0/0
  8299 ;;		On exit  : 0/0
  8300 ;;		Unchanged: 0/0
  8301 ;; Data sizes:     COMMON   BANK0   BANK1   BANK3   BANK2
  8302 ;;      Params:         0       0       0       0       0
  8303 ;;      Locals:         0       1       0       0       0
  8304 ;;      Temps:          0       2       0       0       0
  8305 ;;      Totals:         0       3       0       0       0
  8306 ;;Total ram usage:        3 bytes
  8307 ;; Hardware stack levels used: 1
  8308 ;; Hardware stack levels required when called: 3
  8309 ;; This function calls:
  8310 ;;		Nothing
  8311 ;; This function is called by:
  8312 ;;		_main
  8313 ;; This function uses a non-reentrant model
  8314 ;;
  8315                           
  8316                           
  8317                           ;psect for function _Select_ch
  8318  15BD                     _Select_ch:
  8319                           
  8320                           ;incstack = 0
  8321                           ; Regs used in _Select_ch: [wreg-fsr0h+status,2+status,0]
  8322                           ;Select_ch@channel stored from wreg
  8323  15BD  1283               	bcf	3,5	;RP0=0, select bank0
  8324  15BE  1303               	bcf	3,6	;RP1=0, select bank0
  8325  15BF  00A2               	movwf	Select_ch@channel
  8326  15C0                     l2832:
  8327                           
  8328                           ;ADCEL3.c: 174:     switch (channel) {
  8329  15C0  2E11               	goto	l2836
  8330  15C1                     l271:	
  8331                           ;ADCEL3.c: 175:         case 0:
  8332                           
  8333                           
  8334                           ;ADCEL3.c: 176:             ADCON0bits.CHS0 = 0;
  8335  15C1  111F               	bcf	31,2	;volatile
  8336                           
  8337                           ;ADCEL3.c: 177:             ADCON0bits.CHS1 = 0;
  8338  15C2  119F               	bcf	31,3	;volatile
  8339                           
  8340                           ;ADCEL3.c: 178:             ADCON0bits.CHS2 = 0;
  8341  15C3  121F               	bcf	31,4	;volatile
  8342                           
  8343                           ;ADCEL3.c: 179:             ADCON0bits.CHS3 = 0;
  8344  15C4  129F               	bcf	31,5	;volatile
  8345                           
  8346                           ;ADCEL3.c: 180:             break;
  8347  15C5  2E4B               	goto	l2838
  8348  15C6                     l273:	
  8349                           ;ADCEL3.c: 181:         case 1:
  8350                           
  8351                           
  8352                           ;ADCEL3.c: 182:             ADCON0bits.CHS0 = 1;
  8353  15C6  151F               	bsf	31,2	;volatile
  8354                           
  8355                           ;ADCEL3.c: 183:             ADCON0bits.CHS1 = 0;
  8356  15C7  119F               	bcf	31,3	;volatile
  8357                           
  8358                           ;ADCEL3.c: 184:             ADCON0bits.CHS2 = 0;
  8359  15C8  121F               	bcf	31,4	;volatile
  8360                           
  8361                           ;ADCEL3.c: 185:             ADCON0bits.CHS3 = 0;
  8362  15C9  129F               	bcf	31,5	;volatile
  8363                           
  8364                           ;ADCEL3.c: 186:             break;
  8365  15CA  2E4B               	goto	l2838
  8366  15CB                     l274:	
  8367                           ;ADCEL3.c: 187:         case 2:
  8368                           
  8369                           
  8370                           ;ADCEL3.c: 188:             ADCON0bits.CHS0 = 0;
  8371  15CB  111F               	bcf	31,2	;volatile
  8372                           
  8373                           ;ADCEL3.c: 189:             ADCON0bits.CHS1 = 1;
  8374  15CC  159F               	bsf	31,3	;volatile
  8375                           
  8376                           ;ADCEL3.c: 190:             ADCON0bits.CHS2 = 0;
  8377  15CD  121F               	bcf	31,4	;volatile
  8378                           
  8379                           ;ADCEL3.c: 191:             ADCON0bits.CHS3 = 0;
  8380  15CE  129F               	bcf	31,5	;volatile
  8381                           
  8382                           ;ADCEL3.c: 192:             break;
  8383  15CF  2E4B               	goto	l2838
  8384  15D0                     l275:	
  8385                           ;ADCEL3.c: 193:         case 3:
  8386                           
  8387                           
  8388                           ;ADCEL3.c: 194:             ADCON0bits.CHS0 = 1;
  8389  15D0  151F               	bsf	31,2	;volatile
  8390                           
  8391                           ;ADCEL3.c: 195:             ADCON0bits.CHS1 = 1;
  8392  15D1  159F               	bsf	31,3	;volatile
  8393                           
  8394                           ;ADCEL3.c: 196:             ADCON0bits.CHS2 = 0;
  8395  15D2  121F               	bcf	31,4	;volatile
  8396                           
  8397                           ;ADCEL3.c: 197:             ADCON0bits.CHS3 = 0;
  8398  15D3  129F               	bcf	31,5	;volatile
  8399                           
  8400                           ;ADCEL3.c: 198:             break;
  8401  15D4  2E4B               	goto	l2838
  8402  15D5                     l276:	
  8403                           ;ADCEL3.c: 199:         case 4:
  8404                           
  8405                           
  8406                           ;ADCEL3.c: 200:             ADCON0bits.CHS0 = 0;
  8407  15D5  111F               	bcf	31,2	;volatile
  8408                           
  8409                           ;ADCEL3.c: 201:             ADCON0bits.CHS1 = 0;
  8410  15D6  119F               	bcf	31,3	;volatile
  8411                           
  8412                           ;ADCEL3.c: 202:             ADCON0bits.CHS2 = 1;
  8413  15D7  161F               	bsf	31,4	;volatile
  8414                           
  8415                           ;ADCEL3.c: 203:             ADCON0bits.CHS3 = 0;
  8416  15D8  129F               	bcf	31,5	;volatile
  8417                           
  8418                           ;ADCEL3.c: 204:             break;
  8419  15D9  2E4B               	goto	l2838
  8420  15DA                     l277:	
  8421                           ;ADCEL3.c: 205:         case 5:
  8422                           
  8423                           
  8424                           ;ADCEL3.c: 206:             ADCON0bits.CHS0 = 1;
  8425  15DA  151F               	bsf	31,2	;volatile
  8426                           
  8427                           ;ADCEL3.c: 207:             ADCON0bits.CHS1 = 0;
  8428  15DB  119F               	bcf	31,3	;volatile
  8429                           
  8430                           ;ADCEL3.c: 208:             ADCON0bits.CHS2 = 1;
  8431  15DC  161F               	bsf	31,4	;volatile
  8432                           
  8433                           ;ADCEL3.c: 209:             ADCON0bits.CHS3 = 0;
  8434  15DD  129F               	bcf	31,5	;volatile
  8435                           
  8436                           ;ADCEL3.c: 210:             break;
  8437  15DE  2E4B               	goto	l2838
  8438  15DF                     l278:	
  8439                           ;ADCEL3.c: 211:         case 6:
  8440                           
  8441                           
  8442                           ;ADCEL3.c: 212:             ADCON0bits.CHS0 = 0;
  8443  15DF  111F               	bcf	31,2	;volatile
  8444                           
  8445                           ;ADCEL3.c: 213:             ADCON0bits.CHS1 = 1;
  8446  15E0  159F               	bsf	31,3	;volatile
  8447                           
  8448                           ;ADCEL3.c: 214:             ADCON0bits.CHS2 = 1;
  8449  15E1  161F               	bsf	31,4	;volatile
  8450                           
  8451                           ;ADCEL3.c: 215:             ADCON0bits.CHS3 = 0;
  8452  15E2  129F               	bcf	31,5	;volatile
  8453                           
  8454                           ;ADCEL3.c: 216:             break;
  8455  15E3  2E4B               	goto	l2838
  8456  15E4                     l279:	
  8457                           ;ADCEL3.c: 217:         case 7:
  8458                           
  8459                           
  8460                           ;ADCEL3.c: 218:             ADCON0bits.CHS0 = 1;
  8461  15E4  151F               	bsf	31,2	;volatile
  8462                           
  8463                           ;ADCEL3.c: 219:             ADCON0bits.CHS1 = 1;
  8464  15E5  159F               	bsf	31,3	;volatile
  8465                           
  8466                           ;ADCEL3.c: 220:             ADCON0bits.CHS2 = 1;
  8467  15E6  161F               	bsf	31,4	;volatile
  8468                           
  8469                           ;ADCEL3.c: 221:             ADCON0bits.CHS3 = 0;
  8470  15E7  129F               	bcf	31,5	;volatile
  8471                           
  8472                           ;ADCEL3.c: 222:             break;
  8473  15E8  2E4B               	goto	l2838
  8474  15E9                     l280:	
  8475                           ;ADCEL3.c: 223:         case 8:
  8476                           
  8477                           
  8478                           ;ADCEL3.c: 224:             ADCON0bits.CHS0 = 0;
  8479  15E9  111F               	bcf	31,2	;volatile
  8480                           
  8481                           ;ADCEL3.c: 225:             ADCON0bits.CHS1 = 0;
  8482  15EA  119F               	bcf	31,3	;volatile
  8483                           
  8484                           ;ADCEL3.c: 226:             ADCON0bits.CHS2 = 0;
  8485  15EB  121F               	bcf	31,4	;volatile
  8486                           
  8487                           ;ADCEL3.c: 227:             ADCON0bits.CHS3 = 1;
  8488  15EC  169F               	bsf	31,5	;volatile
  8489                           
  8490                           ;ADCEL3.c: 228:             break;
  8491  15ED  2E4B               	goto	l2838
  8492  15EE                     l281:	
  8493                           ;ADCEL3.c: 229:         case 9:
  8494                           
  8495                           
  8496                           ;ADCEL3.c: 230:             ADCON0bits.CHS0 = 1;
  8497  15EE  151F               	bsf	31,2	;volatile
  8498                           
  8499                           ;ADCEL3.c: 231:             ADCON0bits.CHS1 = 0;
  8500  15EF  119F               	bcf	31,3	;volatile
  8501                           
  8502                           ;ADCEL3.c: 232:             ADCON0bits.CHS2 = 0;
  8503  15F0  121F               	bcf	31,4	;volatile
  8504                           
  8505                           ;ADCEL3.c: 233:             ADCON0bits.CHS3 = 1;
  8506  15F1  169F               	bsf	31,5	;volatile
  8507                           
  8508                           ;ADCEL3.c: 234:             break;
  8509  15F2  2E4B               	goto	l2838
  8510  15F3                     l282:	
  8511                           ;ADCEL3.c: 235:         case 10:
  8512                           
  8513                           
  8514                           ;ADCEL3.c: 236:             ADCON0bits.CHS0 = 0;
  8515  15F3  111F               	bcf	31,2	;volatile
  8516                           
  8517                           ;ADCEL3.c: 237:             ADCON0bits.CHS1 = 1;
  8518  15F4  159F               	bsf	31,3	;volatile
  8519                           
  8520                           ;ADCEL3.c: 238:             ADCON0bits.CHS2 = 0;
  8521  15F5  121F               	bcf	31,4	;volatile
  8522                           
  8523                           ;ADCEL3.c: 239:             ADCON0bits.CHS3 = 1;
  8524  15F6  169F               	bsf	31,5	;volatile
  8525                           
  8526                           ;ADCEL3.c: 240:             break;
  8527  15F7  2E4B               	goto	l2838
  8528  15F8                     l283:	
  8529                           ;ADCEL3.c: 241:         case 11:
  8530                           
  8531                           
  8532                           ;ADCEL3.c: 242:             ADCON0bits.CHS0 = 1;
  8533  15F8  151F               	bsf	31,2	;volatile
  8534                           
  8535                           ;ADCEL3.c: 243:             ADCON0bits.CHS1 = 1;
  8536  15F9  159F               	bsf	31,3	;volatile
  8537                           
  8538                           ;ADCEL3.c: 244:             ADCON0bits.CHS2 = 0;
  8539  15FA  121F               	bcf	31,4	;volatile
  8540                           
  8541                           ;ADCEL3.c: 245:             ADCON0bits.CHS3 = 1;
  8542  15FB  169F               	bsf	31,5	;volatile
  8543                           
  8544                           ;ADCEL3.c: 246:             break;
  8545  15FC  2E4B               	goto	l2838
  8546  15FD                     l284:	
  8547                           ;ADCEL3.c: 247:         case 12:
  8548                           
  8549                           
  8550                           ;ADCEL3.c: 248:             ADCON0bits.CHS0 = 0;
  8551  15FD  111F               	bcf	31,2	;volatile
  8552                           
  8553                           ;ADCEL3.c: 249:             ADCON0bits.CHS1 = 0;
  8554  15FE  119F               	bcf	31,3	;volatile
  8555                           
  8556                           ;ADCEL3.c: 250:             ADCON0bits.CHS2 = 1;
  8557  15FF  161F               	bsf	31,4	;volatile
  8558                           
  8559                           ;ADCEL3.c: 251:             ADCON0bits.CHS3 = 1;
  8560  1600  169F               	bsf	31,5	;volatile
  8561                           
  8562                           ;ADCEL3.c: 252:             break;
  8563  1601  2E4B               	goto	l2838
  8564  1602                     l285:	
  8565                           ;ADCEL3.c: 253:         case 13:
  8566                           
  8567                           
  8568                           ;ADCEL3.c: 254:             ADCON0bits.CHS0 = 1;
  8569  1602  151F               	bsf	31,2	;volatile
  8570                           
  8571                           ;ADCEL3.c: 255:             ADCON0bits.CHS1 = 0;
  8572  1603  119F               	bcf	31,3	;volatile
  8573                           
  8574                           ;ADCEL3.c: 256:             ADCON0bits.CHS2 = 1;
  8575  1604  161F               	bsf	31,4	;volatile
  8576                           
  8577                           ;ADCEL3.c: 257:             ADCON0bits.CHS3 = 1;
  8578  1605  169F               	bsf	31,5	;volatile
  8579                           
  8580                           ;ADCEL3.c: 258:             break;
  8581  1606  2E4B               	goto	l2838
  8582  1607                     l286:	
  8583                           ;ADCEL3.c: 259:         case 14:
  8584                           
  8585                           
  8586                           ;ADCEL3.c: 260:             ADCON0bits.CHS0 = 0;
  8587  1607  111F               	bcf	31,2	;volatile
  8588                           
  8589                           ;ADCEL3.c: 261:             ADCON0bits.CHS1 = 1;
  8590  1608  159F               	bsf	31,3	;volatile
  8591                           
  8592                           ;ADCEL3.c: 262:             ADCON0bits.CHS2 = 1;
  8593  1609  161F               	bsf	31,4	;volatile
  8594                           
  8595                           ;ADCEL3.c: 263:             ADCON0bits.CHS3 = 1;
  8596  160A  169F               	bsf	31,5	;volatile
  8597                           
  8598                           ;ADCEL3.c: 264:             break;
  8599  160B  2E4B               	goto	l2838
  8600  160C                     l287:	
  8601                           ;ADCEL3.c: 265:         case 15:
  8602                           
  8603                           
  8604                           ;ADCEL3.c: 266:             ADCON0bits.CHS0 = 1;
  8605  160C  151F               	bsf	31,2	;volatile
  8606                           
  8607                           ;ADCEL3.c: 267:             ADCON0bits.CHS1 = 1;
  8608  160D  159F               	bsf	31,3	;volatile
  8609                           
  8610                           ;ADCEL3.c: 268:             ADCON0bits.CHS2 = 1;
  8611  160E  161F               	bsf	31,4	;volatile
  8612                           
  8613                           ;ADCEL3.c: 269:             ADCON0bits.CHS3 = 1;
  8614  160F  169F               	bsf	31,5	;volatile
  8615                           
  8616                           ;ADCEL3.c: 270:             break;
  8617  1610  2E4B               	goto	l2838
  8618  1611                     l2836:
  8619  1611  0822               	movf	Select_ch@channel,w
  8620  1612  00A0               	movwf	??_Select_ch
  8621  1613  01A1               	clrf	??_Select_ch+1
  8622                           
  8623                           ; Switch on 2 bytes has been partitioned into a top level switch of size 1, and 1 sub-sw
      +                          itches
  8624                           ; Switch size 1, requested type "simple"
  8625                           ; Number of cases is 1, Range of values is 0 to 0
  8626                           ; switch strategies available:
  8627                           ; Name         Instructions Cycles
  8628                           ; simple_byte            4     3 (average)
  8629                           ; direct_byte           11     8 (fixed)
  8630                           ; jumptable            260     6 (fixed)
  8631                           ;	Chosen strategy is simple_byte
  8632  1614  0821               	movf	??_Select_ch+1,w
  8633  1615  3A00               	xorlw	0	; case 0
  8634  1616  1903               	skipnz
  8635  1617  2E19               	goto	l3196
  8636  1618  2E4B               	goto	l2838
  8637  1619                     l3196:
  8638                           
  8639                           ; Switch size 1, requested type "simple"
  8640                           ; Number of cases is 16, Range of values is 0 to 15
  8641                           ; switch strategies available:
  8642                           ; Name         Instructions Cycles
  8643                           ; simple_byte           49    25 (average)
  8644                           ; direct_byte           56     8 (fixed)
  8645                           ; jumptable            260     6 (fixed)
  8646                           ;	Chosen strategy is simple_byte
  8647  1619  0820               	movf	??_Select_ch,w
  8648  161A  3A00               	xorlw	0	; case 0
  8649  161B  1903               	skipnz
  8650  161C  2DC1               	goto	l271
  8651  161D  3A01               	xorlw	1	; case 1
  8652  161E  1903               	skipnz
  8653  161F  2DC6               	goto	l273
  8654  1620  3A03               	xorlw	3	; case 2
  8655  1621  1903               	skipnz
  8656  1622  2DCB               	goto	l274
  8657  1623  3A01               	xorlw	1	; case 3
  8658  1624  1903               	skipnz
  8659  1625  2DD0               	goto	l275
  8660  1626  3A07               	xorlw	7	; case 4
  8661  1627  1903               	skipnz
  8662  1628  2DD5               	goto	l276
  8663  1629  3A01               	xorlw	1	; case 5
  8664  162A  1903               	skipnz
  8665  162B  2DDA               	goto	l277
  8666  162C  3A03               	xorlw	3	; case 6
  8667  162D  1903               	skipnz
  8668  162E  2DDF               	goto	l278
  8669  162F  3A01               	xorlw	1	; case 7
  8670  1630  1903               	skipnz
  8671  1631  2DE4               	goto	l279
  8672  1632  3A0F               	xorlw	15	; case 8
  8673  1633  1903               	skipnz
  8674  1634  2DE9               	goto	l280
  8675  1635  3A01               	xorlw	1	; case 9
  8676  1636  1903               	skipnz
  8677  1637  2DEE               	goto	l281
  8678  1638  3A03               	xorlw	3	; case 10
  8679  1639  1903               	skipnz
  8680  163A  2DF3               	goto	l282
  8681  163B  3A01               	xorlw	1	; case 11
  8682  163C  1903               	skipnz
  8683  163D  2DF8               	goto	l283
  8684  163E  3A07               	xorlw	7	; case 12
  8685  163F  1903               	skipnz
  8686  1640  2DFD               	goto	l284
  8687  1641  3A01               	xorlw	1	; case 13
  8688  1642  1903               	skipnz
  8689  1643  2E02               	goto	l285
  8690  1644  3A03               	xorlw	3	; case 14
  8691  1645  1903               	skipnz
  8692  1646  2E07               	goto	l286
  8693  1647  3A01               	xorlw	1	; case 15
  8694  1648  1903               	skipnz
  8695  1649  2E0C               	goto	l287
  8696  164A  2E4B               	goto	l2838
  8697  164B                     l2838:
  8698                           
  8699                           ;ADCEL3.c: 272:     _delay((unsigned long)((200)*(8000000/4000000.0)));
  8700  164B  3084               	movlw	132
  8701  164C  1283               	bcf	3,5	;RP0=0, select bank0
  8702  164D  1303               	bcf	3,6	;RP1=0, select bank0
  8703  164E  00A0               	movwf	??_Select_ch
  8704  164F                     u4017:
  8705  164F  0BA0               	decfsz	??_Select_ch,f
  8706  1650  2E4F               	goto	u4017
  8707  1651  0000               	nop
  8708  1652                     l2840:
  8709                           
  8710                           ;ADCEL3.c: 273:     ADCON0bits.GO = 1;
  8711  1652  1283               	bcf	3,5	;RP0=0, select bank0
  8712  1653  1303               	bcf	3,6	;RP1=0, select bank0
  8713  1654  149F               	bsf	31,1	;volatile
  8714  1655                     l288:
  8715  1655  0008               	return
  8716  1656                     __end_of_Select_ch:
  8717                           
  8718                           	psect	text20
  8719  12C8                     __ptext20:	
  8720 ;; *************** function _isr *****************
  8721 ;; Defined at:
  8722 ;;		line 51 in file "Esclavo.c"
  8723 ;; Parameters:    Size  Location     Type
  8724 ;;		None
  8725 ;; Auto vars:     Size  Location     Type
  8726 ;;		None
  8727 ;; Return value:  Size  Location     Type
  8728 ;;                  1    wreg      void 
  8729 ;; Registers used:
  8730 ;;		wreg, status,2, status,0, pclath, cstack
  8731 ;; Tracked objects:
  8732 ;;		On entry : 0/0
  8733 ;;		On exit  : 0/0
  8734 ;;		Unchanged: 0/0
  8735 ;; Data sizes:     COMMON   BANK0   BANK1   BANK3   BANK2
  8736 ;;      Params:         0       0       0       0       0
  8737 ;;      Locals:         0       0       0       0       0
  8738 ;;      Temps:          2       0       0       0       0
  8739 ;;      Totals:         2       0       0       0       0
  8740 ;;Total ram usage:        2 bytes
  8741 ;; Hardware stack levels used: 1
  8742 ;; Hardware stack levels required when called: 2
  8743 ;; This function calls:
  8744 ;;		_spiRead
  8745 ;;		_spiWrite
  8746 ;;		i1___fltol
  8747 ;; This function is called by:
  8748 ;;		Interrupt level 1
  8749 ;; This function uses a non-reentrant model
  8750 ;;
  8751                           
  8752                           
  8753                           ;psect for function _isr
  8754  12C8                     _isr:
  8755  12C8                     i1l3016:
  8756                           
  8757                           ;Esclavo.c: 52:    if(SSPIF == 1){
  8758  12C8  1283               	bcf	3,5	;RP0=0, select bank0
  8759  12C9  1303               	bcf	3,6	;RP1=0, select bank0
  8760  12CA  1D8C               	btfss	12,3	;volatile
  8761  12CB  2ACD               	goto	u397_21
  8762  12CC  2ACE               	goto	u397_20
  8763  12CD                     u397_21:
  8764  12CD  2B19               	goto	i1l74
  8765  12CE                     u397_20:
  8766  12CE                     i1l3018:
  8767                           
  8768                           ;Esclavo.c: 53:         PORTC = spiRead();
  8769  12CE  160A  118A  21AB  160A  118A  	fcall	_spiRead
  8770  12D3  1283               	bcf	3,5	;RP0=0, select bank0
  8771  12D4  1303               	bcf	3,6	;RP1=0, select bank0
  8772  12D5  0087               	movwf	7	;volatile
  8773                           
  8774                           ;Esclavo.c: 54:         spiWrite(conv0);
  8775  12D6  1683               	bsf	3,5	;RP0=1, select bank1
  8776  12D7  1303               	bcf	3,6	;RP1=0, select bank1
  8777  12D8  0847               	movf	(_conv0+3)^(0+128),w
  8778  12D9  00F3               	movwf	i1___fltol@f1+3
  8779  12DA  0846               	movf	(_conv0+2)^(0+128),w
  8780  12DB  00F2               	movwf	i1___fltol@f1+2
  8781  12DC  0845               	movf	(_conv0+1)^(0+128),w
  8782  12DD  00F1               	movwf	i1___fltol@f1+1
  8783  12DE  0844               	movf	_conv0^(0+128),w
  8784  12DF  00F0               	movwf	i1___fltol@f1
  8785  12E0  120A  158A  2000  160A  118A  	fcall	i1___fltol
  8786  12E5  0870               	movf	?i1___fltol,w
  8787  12E6  160A  118A  2196  160A  118A  	fcall	_spiWrite
  8788                           
  8789                           ;Esclavo.c: 55:         PORTD = spiRead();
  8790  12EB  160A  118A  21AB  160A  118A  	fcall	_spiRead
  8791  12F0  1283               	bcf	3,5	;RP0=0, select bank0
  8792  12F1  1303               	bcf	3,6	;RP1=0, select bank0
  8793  12F2  0088               	movwf	8	;volatile
  8794                           
  8795                           ;Esclavo.c: 56:         spiWrite(conv1);
  8796  12F3  1683               	bsf	3,5	;RP0=1, select bank1
  8797  12F4  1303               	bcf	3,6	;RP1=0, select bank1
  8798  12F5  0843               	movf	(_conv1+3)^(0+128),w
  8799  12F6  00F3               	movwf	i1___fltol@f1+3
  8800  12F7  0842               	movf	(_conv1+2)^(0+128),w
  8801  12F8  00F2               	movwf	i1___fltol@f1+2
  8802  12F9  0841               	movf	(_conv1+1)^(0+128),w
  8803  12FA  00F1               	movwf	i1___fltol@f1+1
  8804  12FB  0840               	movf	_conv1^(0+128),w
  8805  12FC  00F0               	movwf	i1___fltol@f1
  8806  12FD  120A  158A  2000  160A  118A  	fcall	i1___fltol
  8807  1302  0870               	movf	?i1___fltol,w
  8808  1303  160A  118A  2196  160A  118A  	fcall	_spiWrite
  8809                           
  8810                           ;Esclavo.c: 57:         PORTD = spiRead();
  8811  1308  160A  118A  21AB  160A  118A  	fcall	_spiRead
  8812  130D  1283               	bcf	3,5	;RP0=0, select bank0
  8813  130E  1303               	bcf	3,6	;RP1=0, select bank0
  8814  130F  0088               	movwf	8	;volatile
  8815                           
  8816                           ;Esclavo.c: 58:         spiWrite(PORTB);
  8817  1310  0806               	movf	6,w	;volatile
  8818  1311  160A  118A  2196  160A  118A  	fcall	_spiWrite
  8819  1316                     i1l3020:
  8820                           
  8821                           ;Esclavo.c: 59:         SSPIF = 0;
  8822  1316  1283               	bcf	3,5	;RP0=0, select bank0
  8823  1317  1303               	bcf	3,6	;RP1=0, select bank0
  8824  1318  118C               	bcf	12,3	;volatile
  8825  1319                     i1l74:
  8826  1319  087C               	movf	??_isr+1,w
  8827  131A  008A               	movwf	10
  8828  131B  0E7B               	swapf	??_isr,w
  8829  131C  0083               	movwf	3
  8830  131D  0EFE               	swapf	btemp,f
  8831  131E  0E7E               	swapf	btemp,w
  8832  131F  0009               	retfie
  8833  1320                     __end_of_isr:
  8834                           
  8835                           	psect	intentry
  8836  0004                     __pintentry:	
  8837                           ;incstack = 0
  8838                           ; Regs used in _isr: [wreg+status,2+status,0+pclath+cstack]
  8839                           
  8840  0004                     interrupt_function:
  8841  007E                     saved_w	set	btemp
  8842  0004  00FE               	movwf	btemp
  8843  0005  0E03               	swapf	3,w
  8844  0006  00FB               	movwf	??_isr
  8845  0007  080A               	movf	10,w
  8846  0008  00FC               	movwf	??_isr+1
  8847  0009  160A  118A  2AC8   	ljmp	_isr
  8848                           
  8849                           	psect	text21
  8850  0800                     __ptext21:	
  8851 ;; *************** function i1___fltol *****************
  8852 ;; Defined at:
  8853 ;;		line 43 in file "C:\Program Files\Microchip\xc8\v2.32\pic\sources\c90\common\fltol.c"
  8854 ;; Parameters:    Size  Location     Type
  8855 ;;  f1              4    0[COMMON] void 
  8856 ;; Auto vars:     Size  Location     Type
  8857 ;;  exp1            1   10[COMMON] unsigned char 
  8858 ;;  sign1           1    9[COMMON] unsigned char 
  8859 ;; Return value:  Size  Location     Type
  8860 ;;                  4    0[COMMON] long 
  8861 ;; Registers used:
  8862 ;;		wreg, status,2, status,0
  8863 ;; Tracked objects:
  8864 ;;		On entry : 0/0
  8865 ;;		On exit  : 0/0
  8866 ;;		Unchanged: 0/0
  8867 ;; Data sizes:     COMMON   BANK0   BANK1   BANK3   BANK2
  8868 ;;      Params:         4       0       0       0       0
  8869 ;;      Locals:         2       0       0       0       0
  8870 ;;      Temps:          5       0       0       0       0
  8871 ;;      Totals:        11       0       0       0       0
  8872 ;;Total ram usage:       11 bytes
  8873 ;; Hardware stack levels used: 1
  8874 ;; This function calls:
  8875 ;;		Nothing
  8876 ;; This function is called by:
  8877 ;;		_isr
  8878 ;; This function uses a non-reentrant model
  8879 ;;
  8880                           
  8881                           
  8882                           ;psect for function i1___fltol
  8883  0800                     i1___fltol:
  8884  0800                     i1l2980:	
  8885                           ;incstack = 0
  8886                           ; Regs used in i1___fltol: [wreg+status,2+status,0]
  8887                           
  8888  0800  1003               	clrc
  8889  0801  0D72               	rlf	i1___fltol@f1+2,w
  8890  0802  0D73               	rlf	i1___fltol@f1+3,w
  8891  0803  00F4               	movwf	??i1___fltol
  8892  0804  0874               	movf	??i1___fltol,w
  8893  0805  00FA               	movwf	i1___fltol@exp1
  8894  0806  087A               	movf	i1___fltol@exp1,w
  8895  0807  1D03               	btfss	3,2
  8896  0808  280A               	goto	u387_21
  8897  0809  280B               	goto	u387_20
  8898  080A                     u387_21:
  8899  080A  2814               	goto	i1l2986
  8900  080B                     u387_20:
  8901  080B                     i1l2982:
  8902  080B  3000               	movlw	0
  8903  080C  00F3               	movwf	?i1___fltol+3
  8904  080D  3000               	movlw	0
  8905  080E  00F2               	movwf	?i1___fltol+2
  8906  080F  3000               	movlw	0
  8907  0810  00F1               	movwf	?i1___fltol+1
  8908  0811  3000               	movlw	0
  8909  0812  00F0               	movwf	?i1___fltol
  8910  0813  2879               	goto	i1l560
  8911  0814                     i1l2986:
  8912  0814  0870               	movf	i1___fltol@f1,w
  8913  0815  00F4               	movwf	??i1___fltol
  8914  0816  0871               	movf	i1___fltol@f1+1,w
  8915  0817  00F5               	movwf	??i1___fltol+1
  8916  0818  0872               	movf	i1___fltol@f1+2,w
  8917  0819  00F6               	movwf	??i1___fltol+2
  8918  081A  0873               	movf	i1___fltol@f1+3,w
  8919  081B  00F7               	movwf	??i1___fltol+3
  8920  081C  301F               	movlw	31
  8921  081D                     u388_25:
  8922  081D  1003               	clrc
  8923  081E  0CF7               	rrf	??i1___fltol+3,f
  8924  081F  0CF6               	rrf	??i1___fltol+2,f
  8925  0820  0CF5               	rrf	??i1___fltol+1,f
  8926  0821  0CF4               	rrf	??i1___fltol,f
  8927  0822                     u388_20:
  8928  0822  3EFF               	addlw	-1
  8929  0823  1D03               	skipz
  8930  0824  281D               	goto	u388_25
  8931  0825  0874               	movf	??i1___fltol,w
  8932  0826  00F8               	movwf	??i1___fltol+4
  8933  0827  0878               	movf	??i1___fltol+4,w
  8934  0828  00F9               	movwf	i1___fltol@sign1
  8935  0829                     i1l2988:
  8936  0829  17F2               	bsf	i1___fltol@f1+2,7
  8937  082A                     i1l2990:
  8938  082A  30FF               	movlw	255
  8939  082B  05F0               	andwf	i1___fltol@f1,f
  8940  082C  30FF               	movlw	255
  8941  082D  05F1               	andwf	i1___fltol@f1+1,f
  8942  082E  30FF               	movlw	255
  8943  082F  05F2               	andwf	i1___fltol@f1+2,f
  8944  0830  3000               	movlw	0
  8945  0831  05F3               	andwf	i1___fltol@f1+3,f
  8946  0832                     i1l2992:
  8947  0832  3096               	movlw	150
  8948  0833  02FA               	subwf	i1___fltol@exp1,f
  8949  0834                     i1l2994:
  8950  0834  1FFA               	btfss	i1___fltol@exp1,7
  8951  0835  2837               	goto	u389_21
  8952  0836  2838               	goto	u389_20
  8953  0837                     u389_21:
  8954  0837  2852               	goto	i1l3004
  8955  0838                     u389_20:
  8956  0838                     i1l2996:
  8957  0838  087A               	movf	i1___fltol@exp1,w
  8958  0839  3A80               	xorlw	128
  8959  083A  3E97               	addlw	151
  8960  083B  1803               	skipnc
  8961  083C  283E               	goto	u390_21
  8962  083D  283F               	goto	u390_20
  8963  083E                     u390_21:
  8964  083E  2840               	goto	i1l3002
  8965  083F                     u390_20:
  8966  083F  280B               	goto	i1l2982
  8967  0840                     i1l3002:
  8968  0840  3001               	movlw	1
  8969  0841                     u391_25:
  8970  0841  1003               	clrc
  8971  0842  0CF3               	rrf	i1___fltol@f1+3,f
  8972  0843  0CF2               	rrf	i1___fltol@f1+2,f
  8973  0844  0CF1               	rrf	i1___fltol@f1+1,f
  8974  0845  0CF0               	rrf	i1___fltol@f1,f
  8975  0846  3EFF               	addlw	-1
  8976  0847  1D03               	skipz
  8977  0848  2841               	goto	u391_25
  8978  0849  3001               	movlw	1
  8979  084A  00F4               	movwf	??i1___fltol
  8980  084B  0874               	movf	??i1___fltol,w
  8981  084C  07FA               	addwf	i1___fltol@exp1,f
  8982  084D  1D03               	btfss	3,2
  8983  084E  2850               	goto	u392_21
  8984  084F  2851               	goto	u392_20
  8985  0850                     u392_21:
  8986  0850  2840               	goto	i1l3002
  8987  0851                     u392_20:
  8988  0851  2869               	goto	i1l3012
  8989  0852                     i1l3004:
  8990  0852  3020               	movlw	32
  8991  0853  027A               	subwf	i1___fltol@exp1,w
  8992  0854  1C03               	skipc
  8993  0855  2857               	goto	u393_21
  8994  0856  2858               	goto	u393_20
  8995  0857                     u393_21:
  8996  0857  2864               	goto	i1l567
  8997  0858                     u393_20:
  8998  0858  280B               	goto	i1l2982
  8999  0859                     i1l3010:
  9000  0859  3001               	movlw	1
  9001  085A  00F4               	movwf	??i1___fltol
  9002  085B                     u394_25:
  9003  085B  1003               	clrc
  9004  085C  0DF0               	rlf	i1___fltol@f1,f
  9005  085D  0DF1               	rlf	i1___fltol@f1+1,f
  9006  085E  0DF2               	rlf	i1___fltol@f1+2,f
  9007  085F  0DF3               	rlf	i1___fltol@f1+3,f
  9008  0860  0BF4               	decfsz	??i1___fltol,f
  9009  0861  285B               	goto	u394_25
  9010  0862  3001               	movlw	1
  9011  0863  02FA               	subwf	i1___fltol@exp1,f
  9012  0864                     i1l567:
  9013  0864  087A               	movf	i1___fltol@exp1,w
  9014  0865  1D03               	btfss	3,2
  9015  0866  2868               	goto	u395_21
  9016  0867  2869               	goto	u395_20
  9017  0868                     u395_21:
  9018  0868  2859               	goto	i1l3010
  9019  0869                     u395_20:
  9020  0869                     i1l3012:
  9021  0869  0879               	movf	i1___fltol@sign1,w
  9022  086A  1903               	btfsc	3,2
  9023  086B  286D               	goto	u396_21
  9024  086C  286E               	goto	u396_20
  9025  086D                     u396_21:
  9026  086D  2879               	goto	i1l570
  9027  086E                     u396_20:
  9028  086E                     i1l3014:
  9029  086E  09F0               	comf	i1___fltol@f1,f
  9030  086F  09F1               	comf	i1___fltol@f1+1,f
  9031  0870  09F2               	comf	i1___fltol@f1+2,f
  9032  0871  09F3               	comf	i1___fltol@f1+3,f
  9033  0872  0AF0               	incf	i1___fltol@f1,f
  9034  0873  1903               	skipnz
  9035  0874  0AF1               	incf	i1___fltol@f1+1,f
  9036  0875  1903               	skipnz
  9037  0876  0AF2               	incf	i1___fltol@f1+2,f
  9038  0877  1903               	skipnz
  9039  0878  0AF3               	incf	i1___fltol@f1+3,f
  9040  0879                     i1l570:
  9041  0879                     i1l560:
  9042  0879  0008               	return
  9043  087A                     __end_ofi1___fltol:
  9044                           
  9045                           	psect	text22
  9046  1196                     __ptext22:	
  9047 ;; *************** function _spiWrite *****************
  9048 ;; Defined at:
  9049 ;;		line 76 in file "Librerias.c"
  9050 ;; Parameters:    Size  Location     Type
  9051 ;;  dat             1    wreg     unsigned char 
  9052 ;; Auto vars:     Size  Location     Type
  9053 ;;  dat             1    0[COMMON] unsigned char 
  9054 ;; Return value:  Size  Location     Type
  9055 ;;                  1    wreg      void 
  9056 ;; Registers used:
  9057 ;;		wreg
  9058 ;; Tracked objects:
  9059 ;;		On entry : 0/0
  9060 ;;		On exit  : 0/0
  9061 ;;		Unchanged: 0/0
  9062 ;; Data sizes:     COMMON   BANK0   BANK1   BANK3   BANK2
  9063 ;;      Params:         0       0       0       0       0
  9064 ;;      Locals:         1       0       0       0       0
  9065 ;;      Temps:          0       0       0       0       0
  9066 ;;      Totals:         1       0       0       0       0
  9067 ;;Total ram usage:        1 bytes
  9068 ;; Hardware stack levels used: 1
  9069 ;; This function calls:
  9070 ;;		Nothing
  9071 ;; This function is called by:
  9072 ;;		_isr
  9073 ;; This function uses a non-reentrant model
  9074 ;;
  9075                           
  9076                           
  9077                           ;psect for function _spiWrite
  9078  1196                     _spiWrite:
  9079                           
  9080                           ;incstack = 0
  9081                           ; Regs used in _spiWrite: [wreg]
  9082                           ;spiWrite@dat stored from wreg
  9083  1196  00F0               	movwf	spiWrite@dat
  9084  1197                     i1l2772:
  9085                           
  9086                           ;Librerias.c: 76: void spiWrite(char dat);Librerias.c: 77: {;Librerias.c: 78:     SSPBUF
      +                           = dat;
  9087  1197  0870               	movf	spiWrite@dat,w
  9088  1198  1283               	bcf	3,5	;RP0=0, select bank0
  9089  1199  1303               	bcf	3,6	;RP1=0, select bank0
  9090  119A  0093               	movwf	19	;volatile
  9091  119B                     i1l129:
  9092  119B  0008               	return
  9093  119C                     __end_of_spiWrite:
  9094                           
  9095                           	psect	text23
  9096  11AB                     __ptext23:	
  9097 ;; *************** function _spiRead *****************
  9098 ;; Defined at:
  9099 ;;		line 89 in file "Librerias.c"
  9100 ;; Parameters:    Size  Location     Type
  9101 ;;		None
  9102 ;; Auto vars:     Size  Location     Type
  9103 ;;		None
  9104 ;; Return value:  Size  Location     Type
  9105 ;;                  1    wreg      unsigned char 
  9106 ;; Registers used:
  9107 ;;		wreg, status,2, status,0, pclath, cstack
  9108 ;; Tracked objects:
  9109 ;;		On entry : 0/0
  9110 ;;		On exit  : 0/0
  9111 ;;		Unchanged: 0/0
  9112 ;; Data sizes:     COMMON   BANK0   BANK1   BANK3   BANK2
  9113 ;;      Params:         0       0       0       0       0
  9114 ;;      Locals:         0       0       0       0       0
  9115 ;;      Temps:          0       0       0       0       0
  9116 ;;      Totals:         0       0       0       0       0
  9117 ;;Total ram usage:        0 bytes
  9118 ;; Hardware stack levels used: 1
  9119 ;; Hardware stack levels required when called: 1
  9120 ;; This function calls:
  9121 ;;		_spiReceiveWait
  9122 ;; This function is called by:
  9123 ;;		_isr
  9124 ;; This function uses a non-reentrant model
  9125 ;;
  9126                           
  9127                           
  9128                           ;psect for function _spiRead
  9129  11AB                     _spiRead:
  9130  11AB                     i1l2766:	
  9131                           ;incstack = 0
  9132                           ; Regs used in _spiRead: [wreg+status,2+status,0+pclath+cstack]
  9133                           
  9134                           
  9135                           ;Librerias.c: 91:     spiReceiveWait();
  9136  11AB  160A  118A  219C  160A  118A  	fcall	_spiReceiveWait
  9137  11B0                     i1l2768:
  9138                           
  9139                           ;Librerias.c: 92:     return(SSPBUF);
  9140  11B0  1283               	bcf	3,5	;RP0=0, select bank0
  9141  11B1  1303               	bcf	3,6	;RP1=0, select bank0
  9142  11B2  0813               	movf	19,w	;volatile
  9143  11B3                     i1l137:
  9144  11B3  0008               	return
  9145  11B4                     __end_of_spiRead:
  9146                           
  9147                           	psect	text24
  9148  119C                     __ptext24:	
  9149 ;; *************** function _spiReceiveWait *****************
  9150 ;; Defined at:
  9151 ;;		line 71 in file "Librerias.c"
  9152 ;; Parameters:    Size  Location     Type
  9153 ;;		None
  9154 ;; Auto vars:     Size  Location     Type
  9155 ;;		None
  9156 ;; Return value:  Size  Location     Type
  9157 ;;                  1    wreg      void 
  9158 ;; Registers used:
  9159 ;;		None
  9160 ;; Tracked objects:
  9161 ;;		On entry : 0/0
  9162 ;;		On exit  : 0/0
  9163 ;;		Unchanged: 0/0
  9164 ;; Data sizes:     COMMON   BANK0   BANK1   BANK3   BANK2
  9165 ;;      Params:         0       0       0       0       0
  9166 ;;      Locals:         0       0       0       0       0
  9167 ;;      Temps:          0       0       0       0       0
  9168 ;;      Totals:         0       0       0       0       0
  9169 ;;Total ram usage:        0 bytes
  9170 ;; Hardware stack levels used: 1
  9171 ;; This function calls:
  9172 ;;		Nothing
  9173 ;; This function is called by:
  9174 ;;		_spiRead
  9175 ;; This function uses a non-reentrant model
  9176 ;;
  9177                           
  9178                           
  9179                           ;psect for function _spiReceiveWait
  9180  119C                     _spiReceiveWait:
  9181  119C                     i1l2294:	
  9182                           ;incstack = 0
  9183                           ; Regs used in _spiReceiveWait: []
  9184                           
  9185  119C                     i1l123:	
  9186                           ;Librerias.c: 73:     while ( !SSPSTATbits.BF );
  9187                           
  9188  119C  1683               	bsf	3,5	;RP0=1, select bank1
  9189  119D  1303               	bcf	3,6	;RP1=0, select bank1
  9190  119E  1C14               	btfss	20,0	;volatile
  9191  119F  29A1               	goto	u254_21
  9192  11A0  29A2               	goto	u254_20
  9193  11A1                     u254_21:
  9194  11A1  299C               	goto	i1l123
  9195  11A2                     u254_20:
  9196  11A2                     i1l126:
  9197  11A2  0008               	return
  9198  11A3                     __end_of_spiReceiveWait:
  9199  007E                     btemp	set	126	;btemp
  9200  007E                     wtemp0	set	126
  9201                           
  9202                           	psect	config
  9203                           
  9204                           ;Config register CONFIG1 @ 0x2007
  9205                           ;	Oscillator Selection bits
  9206                           ;	FOSC = INTRC_NOCLKOUT, INTOSCIO oscillator: I/O function on RA6/OSC2/CLKOUT pin, I/O f
      +                          unction on RA7/OSC1/CLKIN
  9207                           ;	Watchdog Timer Enable bit
  9208                           ;	WDTE = OFF, WDT disabled and can be enabled by SWDTEN bit of the WDTCON register
  9209                           ;	Power-up Timer Enable bit
  9210                           ;	PWRTE = ON, PWRT enabled
  9211                           ;	RE3/MCLR pin function select bit
  9212                           ;	MCLRE = OFF, RE3/MCLR pin function is digital input, MCLR internally tied to VDD
  9213                           ;	Code Protection bit
  9214                           ;	CP = OFF, Program memory code protection is disabled
  9215                           ;	Data Code Protection bit
  9216                           ;	CPD = OFF, Data memory code protection is disabled
  9217                           ;	Brown Out Reset Selection bits
  9218                           ;	BOREN = OFF, BOR disabled
  9219                           ;	Internal External Switchover bit
  9220                           ;	IESO = OFF, Internal/External Switchover mode is disabled
  9221                           ;	Fail-Safe Clock Monitor Enabled bit
  9222                           ;	FCMEN = OFF, Fail-Safe Clock Monitor is disabled
  9223                           ;	Low Voltage Programming Enable bit
  9224                           ;	LVP = OFF, RB3 pin has digital I/O, HV on MCLR must be used for programming
  9225                           ;	In-Circuit Debugger Mode bit
  9226                           ;	DEBUG = 0x1, unprogrammed default
  9227  2007                     	org	8199
  9228  2007  20C4               	dw	8388
  9229                           
  9230                           ;Config register CONFIG2 @ 0x2008
  9231                           ;	Brown-out Reset Selection bit
  9232                           ;	BOR4V = BOR40V, Brown-out Reset set to 4.0V
  9233                           ;	Flash Program Memory Self Write Enable bits
  9234                           ;	WRT = OFF, Write protection off
  9235  2008                     	org	8200
  9236  2008  3FFF               	dw	16383

Data Sizes:
    Strings     0
    Constant    0
    Data        0
    BSS         31
    Persistent  0
    Stack       0

Auto Spaces:
    Space          Size  Autos    Used
    COMMON           14     13      13
    BANK0            80     78      80
    BANK1            80     32      61
    BANK3            96      0       0
    BANK2            96      0       0

Pointer List with Targets:

    convert@data	PTR unsigned char  size(1) Largest target is 10
		 -> adc1(BANK1[10]), adc0(BANK1[10]), 


Critical Paths under _main in COMMON

    None.

Critical Paths under _isr in COMMON

    _isr->i1___fltol

Critical Paths under _main in BANK0

    _main->_convert
    _convert->___flmul
    ___xxtofl->___wmul
    ___wmul->___fltol
    ___flsub->___xxtofl
    ___flmul->___fldiv
    ___fldiv->___xxtofl
    _configE->_spiInit
    _UARTInit->___lldiv

Critical Paths under _isr in BANK0

    None.

Critical Paths under _main in BANK1

    _main->_convert
    _convert->___flmul

Critical Paths under _isr in BANK1

    None.

Critical Paths under _main in BANK3

    None.

Critical Paths under _isr in BANK3

    None.

Critical Paths under _main in BANK2

    None.

Critical Paths under _isr in BANK2

    None.

Call Graph Tables:

 ---------------------------------------------------------------------------------
 (Depth) Function   	        Calls       Base Space   Used Autos Params    Refs
 ---------------------------------------------------------------------------------
 (0) _main                                                 4     4      0   19047
                                             28 BANK1      4     4      0
                          _Select_ch
                           _UARTInit
                            ___fldiv
                            ___flmul
                           ___xxtofl
                            _configE
                            _convert
                          _start_adc
                           _start_ch
 ---------------------------------------------------------------------------------
 (1) _start_ch                                             3     3      0      22
                                              0 BANK0      3     3      0
 ---------------------------------------------------------------------------------
 (1) _start_adc                                            6     3      3     316
                                              0 BANK0      6     3      3
 ---------------------------------------------------------------------------------
 (1) _convert                                             23    17      6   12089
                                             70 BANK0      8     2      6
                                             13 BANK1     15    15      0
                            ___awdiv
                            ___fldiv
                             ___flge
                            ___flmul
                            ___flsub
                            ___fltol
                             ___wmul
                           ___xxtofl
 ---------------------------------------------------------------------------------
 (2) ___xxtofl                                            14    10      4     930
                                             17 BANK0     14    10      4
                            ___fltol (ARG)
                             ___wmul (ARG)
 ---------------------------------------------------------------------------------
 (2) ___wmul                                               6     2      4     852
                                             11 BANK0      6     2      4
                            ___fltol (ARG)
 ---------------------------------------------------------------------------------
 (2) ___fltol                                             11     7      4     861
                                              0 BANK0     11     7      4
 ---------------------------------------------------------------------------------
 (2) ___flsub                                              8     0      8    2637
                                             31 BANK0      8     0      8
                            ___fladd
                            ___fltol (ARG)
                             ___wmul (ARG)
                           ___xxtofl (ARG)
 ---------------------------------------------------------------------------------
 (3) ___fladd                                             20    12      8    2136
                                              0 BANK0     20    12      8
 ---------------------------------------------------------------------------------
 (2) ___flmul                                             26    18      8    2873
                                             57 BANK0     13     5      8
                                              0 BANK1     13    13      0
                          __Umul8_16
                            ___fldiv (ARG)
                            ___flsub (ARG)
                            ___fltol (ARG)
                           ___xxtofl (ARG)
 ---------------------------------------------------------------------------------
 (3) __Umul8_16                                            9     7      2     799
                                              0 BANK0      9     7      2
 ---------------------------------------------------------------------------------
 (2) ___flge                                              12     4      8     334
                                              0 BANK0     12     4      8
 ---------------------------------------------------------------------------------
 (2) ___fldiv                                             26    18      8    1729
                                             31 BANK0     26    18      8
                           ___xxtofl (ARG)
 ---------------------------------------------------------------------------------
 (2) ___awdiv                                              9     5      4     452
                                              0 BANK0      9     5      4
 ---------------------------------------------------------------------------------
 (1) _configE                                              0     0      0     382
                         _config_osc
                            _spiInit
 ---------------------------------------------------------------------------------
 (2) _spiInit                                              4     1      3     360
                                              0 BANK0      4     1      3
 ---------------------------------------------------------------------------------
 (2) _config_osc                                           3     3      0      22
                                              0 BANK0      3     3      0
 ---------------------------------------------------------------------------------
 (1) _UARTInit                                             9     4      5     684
                                             14 BANK0      9     4      5
                            ___lldiv
 ---------------------------------------------------------------------------------
 (2) ___lldiv                                             14     6      8     466
                                              0 BANK0     14     6      8
 ---------------------------------------------------------------------------------
 (1) _Select_ch                                            3     3      0      22
                                              0 BANK0      3     3      0
 ---------------------------------------------------------------------------------
 Estimated maximum stack depth 3
 ---------------------------------------------------------------------------------
 (Depth) Function   	        Calls       Base Space   Used Autos Params    Refs
 ---------------------------------------------------------------------------------
 (4) _isr                                                  2     2      0     303
                                             11 COMMON     2     2      0
                            _spiRead
                           _spiWrite
                          i1___fltol
 ---------------------------------------------------------------------------------
 (5) i1___fltol                                           11     7      4     281
                                              0 COMMON    11     7      4
 ---------------------------------------------------------------------------------
 (5) _spiWrite                                             1     1      0      22
                                              0 COMMON     1     1      0
 ---------------------------------------------------------------------------------
 (5) _spiRead                                              0     0      0       0
                     _spiReceiveWait
 ---------------------------------------------------------------------------------
 (6) _spiReceiveWait                                       0     0      0       0
 ---------------------------------------------------------------------------------
 Estimated maximum stack depth 6
 ---------------------------------------------------------------------------------

 Call Graph Graphs:

 _main (ROOT)
   _Select_ch
   _UARTInit
     ___lldiv
   ___fldiv
     ___xxtofl (ARG)
       ___fltol (ARG)
       ___wmul (ARG)
         ___fltol (ARG)
   ___flmul
     __Umul8_16
     ___fldiv (ARG)
     ___flsub (ARG)
       ___fladd
       ___fltol (ARG)
       ___wmul (ARG)
       ___xxtofl (ARG)
     ___fltol (ARG)
     ___xxtofl (ARG)
   ___xxtofl
   _configE
     _config_osc
     _spiInit
   _convert
     ___awdiv
     ___fldiv
     ___flge
     ___flmul
     ___flsub
     ___fltol
     ___wmul
     ___xxtofl
   _start_adc
   _start_ch

 _isr (ROOT)
   _spiRead
     _spiReceiveWait
   _spiWrite
   i1___fltol

 Address spaces:
Name               Size   Autos  Total    Cost      Usage
BITCOMMON            E      0       0       0        0.0%
EEDATA             100      0       0       0        0.0%
NULL                 0      0       0       0        0.0%
CODE                 0      0       0       0        0.0%
COMMON               E      D       D       1       92.9%
BITSFR0              0      0       0       1        0.0%
SFR0                 0      0       0       1        0.0%
BITSFR1              0      0       0       2        0.0%
SFR1                 0      0       0       2        0.0%
STACK                0      0       0       2        0.0%
ABS                  0      0      9A       3        0.0%
BITBANK0            50      0       0       4        0.0%
BITSFR3              0      0       0       4        0.0%
SFR3                 0      0       0       4        0.0%
BANK0               50     4E      50       5      100.0%
BITSFR2              0      0       0       5        0.0%
SFR2                 0      0       0       5        0.0%
BITBANK1            50      0       0       6        0.0%
BANK1               50     20      3D       7       76.2%
BITBANK3            60      0       0       8        0.0%
BANK3               60      0       0       9        0.0%
BITBANK2            60      0       0      10        0.0%
BANK2               60      0       0      11        0.0%
DATA                 0      0      9A      12        0.0%


Microchip Technology PIC Macro Assembler V2.32 build 20210201212658 
Symbol Table                                                                                   Sat Jul 31 18:41:39 2021

      UARTInit@baud_rate 002E             ___fldiv@aexp 0058             ___fldiv@bexp 0057  
           ___fldiv@sign 0050              _SSPSTATbits 0094                       l88 1270  
           ___awdiv@sign 0026                       fsr 0004      ___wmul@multiplicand 002D  
    __Umul8_16@word_mpld 0026                      l120 11D1                      l115 12C7  
                    l107 12C6                      l230 0FFF                      l119 11CC  
                    l160 1540                      l240 142C                      l410 1387  
                    l234 13F6                      l243 1430                      l236 13F9  
                    l260 147D                      l252 1461                      l245 1435  
                    l237 13FC                      l261 1481                      l246 143A  
                    l238 13FF                      l262 1485                      l254 1465  
                    l271 15C1                      l247 143F                      l263 1489  
                    l255 1469                      l280 15E9                      l248 145C  
                    l264 148D                      l256 146D                      l281 15EE  
                    l273 15C6                      l265 1491                      l257 1471  
                    l282 15F3                      l274 15CB                      l266 1495  
                    l258 1475                      l283 15F8                      l275 15D0  
                    l259 1479                      l267 14CD                      l284 15FD  
                    l276 15D5                      l285 1602                      l277 15DA  
                    l701 0B8F                      l286 1607                      l278 15DF  
                    l710 0BBD                      l374 1204                      l287 160C  
                    l279 15E4                      l527 13F0                      l551 07E6  
                    l288 1655                      l552 07FF                      l560 15BC  
                    l376 121C                      l713 11F5                      l570 15BC  
                    l723 05DB                      l548 077A                      l820 08FF  
                    l725 075B                      l709 0BB1                      l821 090B  
                    l813 08E3                      l671 0A40                      l567 15A7  
                    l807 089E                      l680 0BBD                      l745 073F  
                    l673 0A17                      l809 0935                      l747 074F  
                    l739 06CD                      l763 057E                      l667 0999  
                    l692 0B2F                      l782 1233                      l775 0560  
                    l784 1245                      l688 0B0B                      l769 04B2  
                    l698 0B51                      _isr 12C8                      fsr0 0004  
                    indf 0000             i1___fltol@f1 0070             ___flmul@aexp 00A5  
           ___flmul@bexp 00A6             ___flmul@sign 00A0             ___flmul@temp 00AB  
           ___flmul@prod 00A7             ___fltol@exp1 002A                     l2100 09AF  
                   l2110 09C3                     l2102 09B3                     l2200 0B3D  
                   l2120 09D7                     l2112 09C7                     l2104 09B7  
                   l2210 0B4E                     l2202 0B3F                     l2130 09FB  
                   l2122 09DB                     l2114 09CB                     l2106 09BB  
                   l2050 093D                     l2220 0B6D                     l2204 0B43  
                   l2140 0A2B                     l2132 0A1B                     l2124 09DF  
                   l2116 09CF                     l2108 09BF                     l2060 0952  
                   l2052 0943                     l2300 11FE                     l2310 1320  
                   l2230 0BA6                     l2222 0B8B                     l2214 0B56  
                   l2206 0B44                     l2142 0A34                     l2134 0A24  
                   l2118 09D3                     l2126 09E3                     l2070 096A  
                   l2062 095A                     l2054 0947                     l2302 120B  
                   l3030 1697                     l3022 1656                     l2320 134F  
                   l2312 1332                     l2240 0BBC                     l2232 0BA7  
                   l2224 0B94                     l2216 0B5B                     l2208 0B48  
                   l2160 0A7A                     l2152 0A52                     l2136 0A26  
                   l2144 0A38                     l2128 09E4                     l2080 097C  
                   l2072 0970                     l2064 095B                     l2056 0948  
                   l2048 0936                     l2400 154E                     l2304 1212  
                   l3040 16BE                     l3032 16A1                     l3024 1679  
                   l2322 1361                     l2314 1335                     l2330 137F  
                   l2250 123C                     l2242 1220                     l2234 0BAB  
                   l2226 0B99                     l2218 0B69                     l2162 0A7C  
                   l2154 0A69                     l2146 0A44                     l2170 0A8F  
                   l2138 0A2A                     l2082 0981                     l2090 0991  
                   l2074 0971                     l2058 094D                     l2066 095D  
                   l2410 1575                     l2306 1218                     l3050 175A  
                   l3042 16C2                     l3034 16A7                     l3026 168A  
                   l2324 136F                     l2316 1342                     l2260 127A  
                   l2340 1394                     l2500 062C                     l2252 1241  
                   l2244 1222                     l2236 0BAD                     l2228 0BA1  
                   l2172 0AA5                     l2180 0AFD                     l2164 0A80  
                   l2156 0A6D                     l2148 0A49                     l2092 099F  
                   l2084 0986                     l2076 0977                     l2068 0965  
                   l2420 1583                     l2412 1577                     l2404 1557  
                   l3052 17C5                     l3036 16AE                     l3028 1690  
                   l3044 16C5                     l2326 1370                     l2318 1346  
                   l2270 129B                     l2262 1281                     l2350 13A5  
                   l2342 1396                     l2334 1388                     l2510 0651  
                   l2502 0634                     l2246 1229                     l2238 0BB8  
                   l2190 0B2A                     l2182 0B13                     l2174 0AE3  
                   l2166 0A81                     l2158 0A71                     l2094 09A3  
                   l2086 098E                     l2078 097B                     l2430 15AC  
                   l2414 157B                     l2422 1595                     l2406 156C  
                   l3054 17E5                     l3046 16CF                     l3038 16B8  
                   l2328 1379                     l2272 12A0                     l2264 1286  
                   l2256 1274                     l2360 13BD                     l2352 13AB  
                   l2344 139A                     l2336 138B                     l2520 067C  
                   l2512 0652                     l2504 0636                     l2440 057F  
                   l2248 122D                     l2600 005F                     l2192 0B2E  
                   l2184 0B18                     l2176 0AE9                     l2168 0A8A  
                   l2096 09A7                     l2088 098F                     l2432 15B1  
                   l2408 156D                     l3056 17ED                     l3048 173A  
                   l2266 128D                     l2258 1275                     l2290 11C6  
                   l2362 13CE                     l2354 13AE                     l2370 13E2  
                   l2346 139F                     l2338 138F                     l2530 0699  
                   l2506 063B                     l2514 065B                     l2522 0680  
                   l2450 0596                     l2442 0586                     l2610 0080  
                   l2602 0066                     l2194 0B33                     l2178 0AEE  
                   l2098 09AB                     l2434 11D2                     l2268 1294  
                   l2276 12A7                     l2292 11CB                     l2284 11B7  
                   l2372 13E7                     l2364 13D4                     l2356 13B5  
                   l2348 13A3                     l2540 06B1                     l2532 069D  
                   l2524 0686                     l2516 066D                     l2508 064D  
                   l2460 05AE                     l2452 059B                     l2444 058C  
                   l2380 0772                     l2700 050B                     l2620 00A3  
                   l2612 0085                     l2604 0070                     l2196 0B36  
                   l2188 0B21                     l2436 11D6                     l2428 159C  
                   l2286 11C0                     l2374 13EC                     l2366 13D5  
                   l2358 13B9                     l2550 06D2                     l2542 06B2  
                   l2534 069E                     l2526 068E                     l2518 066E  
                   l2470 05C3                     l2462 05B3                     l2454 05A3  
                   l2446 0590                     l2390 07C2                     l2382 078E  
                   l2710 053E                     l2702 0518                     l2630 00E8  
                   l2622 00A8                     l2614 008F                     l2606 0076  
                   l2198 0B38                     l3190 140A                     l2288 11C4  
                   l2368 13DC                     l2552 06D7                     l2560 0708  
                   l2544 06B6                     l2536 06A7                     l2528 0690  
                   l2480 05E3                     l2472 05C8                     l2464 05B9  
                   l2456 05A4                     l2448 0591                     l2392 07FC  
                   l2384 0796                     l2712 0550                     l2704 0523  
                   l2640 01F5                     l2632 011D                     l2616 0092  
                   l2608 0079                     l2296 11F6                     l3192 144E  
                   l2800 1418                     l3194 12AF                     l2570 073E  
                   l2562 0715                     l2554 06E5                     l2546 06CA  
                   l2538 06AD                     l2490 0601                     l2482 05EF  
                   l2474 05D0                     l2466 05BD                     l2458 05A6  
                   l2394 07FE                     l2386 079A                     l2378 075C  
                   l2714 0554                     l2706 0532                     l2650 029C  
                   l2642 0204                     l2634 014D                     l2626 00B3  
                   l2618 009C                     l2298 11FA                     l2730 08A6  
                   l2722 087D                     l2810 1444                     l2802 141D  
                   l3196 1619                     l2572 0745                     l2564 0723  
                   l2556 06E9                     l2484 05F3                     l2476 05D1  
                   l2468 05BE                     l2388 07BE                     l2716 0555  
                   l2708 053C                     l2660 03A8                     l2652 02C1  
                   l2644 021A                     l2636 0195                     l2628 00CB  
                   l2740 08C8                     l2724 0882                     l2900 0C57  
                   l2804 1423                     l3188 14A1                     l2820 1460  
                   l2574 0749                     l2566 0732                     l2558 0702  
                   l2494 060A                     l2478 05D3                     l2718 0568  
                   l2670 0464                     l2662 03E6                     l2654 02F6  
                   l2646 024F                     l2638 01C5                     l2590 003C  
                   l2582 0020                     l2398 1541                     l2750 08F9  
                   l2742 08CC                     l2734 08AF                     l2726 0886  
                   l2910 0C76                     l2902 0C5D                     l2806 1428  
                   l2840 1652                     l2832 15C0                     l2576 074B  
                   l2568 0736                     l2496 061C                     l2488 05FC  
                   l2680 0486                     l2672 046A                     l2664 042E  
                   l2656 0343                     l2648 0267                     l2592 0043  
                   l2584 0029                     l2760 092C                     l2752 0903  
                   l2744 08DA                     l2736 08B4                     l2728 0896  
                   l2920 0D8B                     l2912 0C97                     l2904 0C66  
                   l2824 1499                     l2850 14D5                     l2498 0624  
                   l2690 04B9                     l2682 0487                     l2674 046B  
                   l2666 043D                     l2658 035B                     l2594 0048  
                   l2586 0033                     l2762 092D                     l2754 090D  
                   l2746 08EA                     l2738 08C1                     l2930 0DB3  
                   l2922 0D93                     l2914 0C9D                     l2906 0C6C  
                   l2836 1611                     l2860 1533                     l2852 1502  
                   l2780 1256                     l2692 04BE                     l2684 048B  
                   l2676 047A                     l2668 0455                     l2596 0052  
                   l2588 0039                     l2756 0923                     l2748 08F5  
                   l2940 0DE7                     l2932 0DBB                     l2924 0D99  
                   l2916 0CB3                     l2908 0C71                     l2838 164B  
                   l2870 153A                     l2862 1534                     l2854 1504  
                   l2790 1264                     l2782 125C                     l2774 1246  
                   l2694 04CC                     l2686 04AD                     l2678 0482  
                   l2598 0055                     l2758 0928                     l2950 0E9F  
                   l2942 0DFF                     l2934 0DBB                     l2918 0D5D  
                   l2926 0D9D                     l2872 153B                     l2864 1535  
                   l2856 1531                     l2848 14CE                     l2792 1265  
                   l2784 125D                     l2776 124A                     l2696 04D0  
                   l2960 0EC2                     l2952 0EA5                     l2944 0E7C  
                   l2936 0DC0                     l2928 0DA3                     l2880 0BDC  
                   l2874 153C                     l2866 1538                     l2858 1532  
                   l2786 125E                     l2778 124D                     l2698 0505  
                   l2970 0FD7                     l2962 0EE3                     l2954 0EB2  
                   l2946 0E92                     l2938 0DE1                     l2890 0BE4  
                   l2882 0BDC                     l2794 13F4                     l2876 153F  
                   l2868 1539                     l2788 1261                     l2972 0FDF  
                   l2964 0EE9                     l2956 0EB8                     l2948 0E9F  
                   l2892 0BFF                     l2884 0BDE                     l2974 0FE5  
                   l2966 0EFF                     l2958 0EBD                     l2894 0C20  
                   l2886 0BE0                     l2878 0BC1                     l2798 1402  
                   l2968 0FA9                     l2976 0FE9                     l2896 0C2B  
                   l2888 0BE4                     l2978 0FEF                     l2898 0C34  
                   ?_isr 0070                     u2100 0986                     u2101 0985  
                   u2110 099F                     u2111 099E                     u3000 0601  
                   u2200 0A44                     u2120 09A3                     u2040 0947  
                   u3001 0600                     u2201 0A43                     u2121 09A2  
                   u2041 0946                     u3010 063B                     u2210 0A49  
                   u2130 09FB                     u2050 094D                     u3011 063A  
                   u2211 0A48                     u2131 09FA                     u2051 094C  
                   u3100 069D                     u2300 0AEE                     u2140 0A06  
                   u2060 0952                     u3101 069C                     u2301 0AED  
                   u2221 0A5B                     u2141 0A04                     u2061 0951  
                   u2310 0B13                     u2230 0A6D                     u2222 0A62  
                   u2150 0A07                     u2070 0970                     u2311 0B12  
                   u2231 0A6C                     u2223 0A69                     u2135 09F7  
                   u2071 096F                     u3200 0732                     u3120 06B1  
                   u3040 0651                     u2400 0B55                     u2320 0B18  
                   u2240 0A71                     u2160 0A1B                     u2080 097B  
                   u3201 0731                     u3121 06B0                     u3041 0650  
                   u3025 063D                     u2401 0B54                     u2321 0B17  
                   u2241 0A70                     u2161 0A1A                     u2081 097A  
                   u3210 0749                     u3130 06B6                     u2410 0B5B  
                   u2250 0A80                     u2170 0A2A                     u2090 0981  
                   u3211 0748                     u3131 06B5                     u3115 06A0  
                   u3035 0646                     u2411 0B5A                     u2251 0A7F  
                   u2171 0A29                     u2091 0980                     u3140 06CA  
                   u3060 066D                     u2500 122D                     u3220 0039  
                   u2420 0B6D                     u2340 0B2E                     u3205 072E  
                   u3141 06C9                     u3061 066C                     u2501 122C  
                   u3301 0133                     u3221 0038                     u2421 0B6C  
                   u2341 0B2D                     u3150 06D1                     u3070 0686  
                   u3302 013E                     u3230 0043                     u2430 0B7C  
                   u2350 0B33                     u2270 0AA5                     u2190 0A40  
                   u3151 06D0                     u3071 0685                     u3055 0654  
                   u3311 0163                     u3303 0149                     u3231 0042  
                   u2351 0B32                     u2335 0B23                     u2271 0AA4  
                   u2191 0A3F                     u4007 17F5                     u3160 06D7  
                   u3080 068E                     u2520 1241                     u3312 016E  
                   u3240 0048                     u2440 0B8B                     u2360 0B3D  
                   u4017 164F                     u3161 06D6                     u3081 068D  
                   u3065 0669                     u2521 1240                     u3401 0376  
                   u3321 01AB                     u3313 0179                     u3241 0047  
                   u2441 0B8A                     u2361 0B3C                     u2281 0ABC  
                   u2273 0AA1                     u2265 0A83                     u2185 0A2D  
                   u2610 1346                     u2530 11C0                     u3170 06E9  
                   u3410 03BA                     u3402 0381                     u3322 01B6  
                   u3250 0076                     u2450 0B94                     u2370 0B43  
                   u2290 0AD0                     u2282 0ABD                     u2611 1345  
                   u2531 11BF                     u3171 06E8                     u2515 1234  
                   u3403 038C                     u3331 01DB                     u3323 01C1  
                   u3251 0075                     u2451 0B93                     u2435 0B77  
                   u2371 0B42                     u2291 0AD1                     u2283 0AC2  
                   u2700 13BD                     u3180 06F8                     u3500 048B  
                   u3332 01E6                     u3260 0080                     u2460 0B99  
                   u2380 0B48                     u2292 0AD6                     u2284 0AC3  
                   u2605 1337                     u2701 13BC                     u3501 048A  
                   u3421 03CC                     u3333 01F1                     u3261 007F  
                   u2461 0B98                     u2381 0B47                     u2293 0AD7  
                   u2285 0AC8                     u2630 1361                     u3190 0715  
                   u3510 04AD                     u3430 0402                     u3422 03D7  
                   u3270 0085                     u2470 0BA6                     u2390 0B4E  
                   u2286 0AC9                     u2550 11FE                     u2631 1360  
                   u3191 0714                     u3095 0692                     u3511 04AC  
                   u3423 03E2                     u3415 03B5                     u3351 0235  
                   u3271 0084                     u2471 0BA5                     u2391 0B4D  
                   u2551 11FD                     u2720 13CE                     u2800 07C2  
                   u3520 04B8                     u3352 0240                     u3280 00A3  
                   u2480 0BAB                     u3600 0886                     u2625 1348  
                   u2721 13CD                     u3185 06F3                     u2801 07C1  
                   u3521 04B7                     u3441 0414                     u3361 0282  
                   u3353 024B                     u3345 01F9                     u3281 00A2  
                   u2481 0BAA                     u3601 0885                     u2650 137F  
                   u3530 04BE                     u3442 041F                     u3362 028D  
                   u3290 00A8                     u2490 0BBC                     u3610 08A6  
                   u2651 137E                     u2635 135D                     u2715 13BE  
                   u3195 0711                     u2811 07D1                     u3531 04BD  
                   u3443 042A                     u3435 03FD                     u3363 0298  
                   u3291 00A7                     u2491 0BBB                     u3611 08A5  
                   u2740 13E2                     u2660 138F                     u2820 07FC  
                   u2812 07D2                     u3540 04D0                     u2580 1218  
                   u3700 0918                     u2645 1371                     u2741 13E1  
                   u2725 13CA                     u2661 138E                     u2821 07FB  
                   u2813 07D7                     u3541 04CF                     u3381 02DC  
                   u2581 1217                     u2565 1205                     u2590 1332  
                   u2750 13E7                     u2670 139A                     u2814 07D8  
                   u3550 04ED                     u3470 046A                     u3382 02E7  
                   u2910 15AC                     u2830 154E                     u3710 0928  
                   u3630 08C7                     u2591 1331                     u2751 13E6  
                   u2735 13D6                     u2671 1399                     u2815 07DD  
                   u3471 0469                     u3455 0432                     u3391 0329  
                   u3383 02F2                     u3375 02A0                     u2911 15AB  
                   u2831 154D                     u2575 120C                     u3711 0927  
                   u3631 08C6                     u2680 13AB                     u2816 07DE  
                   u2760 0772                     u3560 0518                     u3392 0334  
                   u2920 15B1                     u2840 1565                     u3720 092C  
                   u3800 0C6C                     u2681 13AA                     u2825 07F8  
                   u2761 0771                     u3561 0517                     u3465 0459  
                   u3393 033F                     u2921 15B0                     u2905 159E  
                   u3721 092B                     u3705 0913                     u3625 08B9  
                   u3801 0C6B                     u2930 0590                     u2770 078E  
                   u3570 0532                     u3490 0486                     u2850 157B  
                   u3650 08E9                     u3810 0CB3                     u3730 141D  
                   u2931 058F                     u2771 078D                     u3571 0531  
                   u3555 04E8                     u3491 0485                     u2851 157A  
                   u3651 08E8                     u3811 0CB2                     u3731 141C  
                   u2940 0596                     u2780 079A                     u3580 0554  
                   u2860 1582                     u3820 0DA3                     u3740 1428  
                   u2941 0595                     u2781 0799                     u3581 0553  
                   u3565 0514                     u3485 046F                     u2861 1581  
                   u2845 1560                     u3645 08DB                     u3821 0DA2  
                   u3741 1427                     u3750 14D5                     u2950 059B  
                   u3670 08F9                     u3590 0882                     u3830 0DFF  
                   u3751 14D4                     u2695 13AF                     u2951 059A  
                   u2791 07A9                     u3575 052E                     u3671 08F8  
                   u3591 0881                     u3831 0DFE                     u3815 0CAF  
                   u3760 14E3                     u2960 05BD                     u2792 07AA  
                   u2880 1594                     u3680 08FF                     u3840 0EB8  
                   u2961 05BC                     u2793 07AF                     u2881 1593  
                   u3681 08FE                     u3665 08EE                     u3841 0EB7  
                   u3770 1512                     u2970 05C3                     u2794 07B0  
                   u2890 159B                     u3690 0903                     u3850 0EFF  
                   u2971 05C2                     u2795 07B5                     u2891 159A  
                   u2875 1584                     u3691 0902                     u3851 0EFE  
                   u3835 0DFB                     u2980 05C8                     u2796 07B6  
                   u3860 0FEF                     u3780 0BFF                     u3765 14DE  
                   u2981 05C7                     u3861 0FEE                     u3781 0BFE  
                   u2990 05E3                     u3790 0C65                     u3775 150D  
                   u2991 05E2                     u3855 0EFB                     u3791 0C64  
                   i1l74 1319                     u3980 1690                     u3981 168F  
                   u3990 1697                     u3991 1696                     _TXIF 0064  
                   _adc0 00D3                     _adc1 00C9                     _main 1656  
                   btemp 007E                     start 000C          ___fldiv@new_exp 0051  
                  ??_isr 007B            ___fltol@sign1 0029          __end_of___fladd 0BBE  
                  ?_main 0070          __end_of___fldiv 075C          __end_of___awdiv 13F1  
        __end_of___flmul 057F          __end_of___flsub 11F6          __end_of___fltol 15BD  
                  _ANSEL 0188          __end_of___lldiv 1388          ___awdiv@divisor 0020  
                  i1l123 119C                    i1l126 11A2                    i1l137 11B3  
                  i1l129 119B                    i1l560 0879                    i1l570 0879  
                  i1l567 0864          ___awdiv@counter 0025                    _RCREG 001A  
                  _SPBRG 0099                    _PORTB 0006                    _PORTC 0007  
                  _PORTD 0008                    _TRISB 0086                    _TRISC 0087  
                  _TRISD 0088                    _SSPIF 0063                    _TXREG 0019  
        __end_of_configE 1271              convert@data 00B1         __end_of_UARTInit 1541  
            convert@temp 00AD          __end_of_convert 1000                    _conv0 00C4  
                  _conv1 00C0                    pclath 000A          __end_of_spiInit 11D2  
        __end_of_spiRead 11B4           i1___fltol@exp1 007A                    status 0003  
                  wtemp0 007E       __size_ofi1___fltol 007A          __initialization 000F  
           __end_of_main 1800                   ??_main 00BC                   _ADRESH 001E  
       ___awdiv@dividend 0022                   _ANSELH 0189                   i1l3010 0859  
                 i1l3002 0840                   i1l3012 0869                   i1l3004 0852  
                 i1l3020 1316                   i1l3014 086E                   i1l3016 12C8  
                 i1l3018 12CE                   i1l2294 119C                   i1l2772 1197  
                 i1l2766 11AB                   i1l2768 11B0                   i1l2980 0800  
                 i1l2990 082A                   i1l2982 080B                   i1l2992 0832  
                 i1l2994 0834                   i1l2986 0814                   i1l2996 0838  
                 i1l2988 0829                   u254_20 11A2                   u254_21 11A1  
                 u390_20 083F                   u390_21 083E                   u391_25 0841  
                 u392_20 0851                   u392_21 0850                   u393_20 0858  
                 u393_21 0857                   u394_25 085B                   u395_20 0869  
                 u387_20 080B                   u395_21 0868                   u387_21 080A  
                 u396_20 086E                   u388_20 0822                   u396_21 086D  
                 u388_25 081D                   u389_20 0838                   u397_20 12CE  
                 u389_21 0837                   u397_21 12CD                   _TRISA0 0428  
                 _TRISA1 0429                   _TRISC3 043B                   _TRISC5 043D  
                 _SSPCON 0014                   _SSPBUF 0013         __end_of___xxtofl 0936  
                 ___flge 075C             convert@place 006A                ??___fladd 0028  
                 ___wmul 11F6                ??___fldiv 0047                ??___awdiv 0024  
              ??___flmul 0061                ??___flsub 0047                ??___fltol 0024  
              ??___lldiv 0028       __size_of_Select_ch 0099         ___awdiv@quotient 0027  
           start_adc@isr 0020                ??_configE 0024                ??_convert 006C  
      __end_ofi1___fltol 087A       __size_of__Umul8_16 0029                   saved_w 007E  
       __end_of_spiWrite 119C          i1___fltol@sign1 0079                ??_spiInit 0023  
              ??_spiRead 0070         __end_of_start_ch 14CE               ___flge@ff1 0020  
             ___flge@ff2 0024             ___xxtofl@arg 003B             ___xxtofl@exp 003A  
           ___xxtofl@val 0031  __end_of__initialization 001C           config_osc@frec 0022  
             ___fltol@f1 0020           __pcstackCOMMON 0070                ?_UARTInit 002E  
      __end_of_Select_ch 1656               __pbssBANK0 006E               __pbssBANK1 00C0  
      __end_of__Umul8_16 1246               __pmaintext 1656                  ?___flge 0020  
                ?___wmul 002B               ??_UARTInit 0033               __pintentry 0004  
__size_of_spiReceiveWait 0007                ?___xxtofl 0031               _config_osc 1271  
     __size_of_start_adc 006C                  _SSPSTAT 0094            convert@digits 00B8  
              ?_spiWrite 0070          __size_of___flge 00A4                  ___fladd 0936  
                ___fldiv 057F                  ___awdiv 1388                  ___flmul 0020  
                ___flsub 11D2                  ___fltol 1541                  ___lldiv 1320  
        __size_of___wmul 0027                ?_start_ch 0070                _ANSELbits 0188  
                __ptext1 145D                  __ptext2 13F1                  __ptext3 0BBE  
                __ptext4 087A                  __ptext5 11F6                  __ptext6 1541  
                __ptext7 11D2                  __ptext8 0936                  __ptext9 0020  
                _configE 1246                  _convert 0BBE         Select_ch@channel 0022  
           __size_of_isr 0058               ??___xxtofl 0035            start_adc@Vref 0021  
          start_adc@frec 0025                  _spiInit 11B4                  _spiRead 11AB  
                clrloop0 11A4     end_of_initialization 001C          ___lldiv@divisor 0020  
        ___lldiv@counter 002D                _RCSTAbits 0018               ??_spiWrite 0070  
      __end_of_start_adc 145D               ??_start_ch 0020              ___fladd@grs 0033  
          ___xxtofl@sign 0039                _TRISAbits 0085              ?_config_osc 0070  
              _TRISCbits 0087              ___fldiv@grs 0053                i1___fltol 0800  
            ___fldiv@rem 004C              spiWrite@dat 0070              ___flmul@grs 00A1  
              _TXSTAbits 0098           _spiReceiveWait 119C           __end_of___flge 0800  
         __end_of___wmul 121D        __size_of_UARTInit 0073      start_initialization 000F  
            __end_of_isr 1320               ?i1___fltol 0070                _Select_ch 15BD  
 __end_of_spiReceiveWait 11A3                 ??___flge 0028      __size_of_config_osc 0057  
               ??___wmul 002F                __Umul8_16 121D                ___fladd@a 0024  
              ___fladd@b 0020                ___fldiv@a 003F                ___fldiv@b 0043  
              ___flmul@a 005D                ___flmul@b 0059                ___flsub@a 003F  
              ___flsub@b 0043                ___latbits 0002            __pcstackBANK0 0020  
          __pcstackBANK1 00A0        __size_of___xxtofl 00BC                _canal_act 00C8  
             ?_Select_ch 0070          ?_spiReceiveWait 0070                 ?___fladd 0020  
               ?___fldiv 003F                 ?___awdiv 0020                 ?___flmul 0059  
               ?___flsub 003F                 ?___fltol 0020                 ?___lldiv 0020  
             ?__Umul8_16 0020        __size_of_spiWrite 0006                 ?_configE 0070  
      __size_of_start_ch 0071                 ?_convert 0066                 ?_spiInit 0020  
               ?_spiRead 0070              ??i1___fltol 0074     spiInit@sTransmitEdge 0022  
      interrupt_function 0004           ___wmul@product 002F                clear_ram0 11A3  
               _PIE1bits 008C          start_ch@channel 0022       spiInit@sDataSample 0020  
               _PIR1bits 000C          start_adc@justRL 0022                 _UARTInit 14CE  
             _ADCON0bits 001F               _ADCON1bits 009F        ___wmul@multiplier 002B  
              _start_adc 13F1             ??_config_osc 0020                convert@mu 00BA  
            ??_Select_ch 0020             UARTInit@BRGH 0032       __end_of_config_osc 12C8  
            ??__Umul8_16 0022         __size_of___fladd 0288         __size_of___fldiv 01DD  
       __size_of___awdiv 0069         __size_of___flmul 055F         __size_of___flsub 0024  
       __size_of___fltol 007C         __size_of___lldiv 0068               ?_start_adc 0020  
             _ANSELHbits 0189         __size_of_configE 002B         __size_of_convert 0442  
               ___xxtofl 087A                 __ptext10 121D                 __ptext11 075C  
               __ptext20 12C8                 __ptext12 057F                 __ptext21 0800  
               __ptext13 1388                 __ptext22 1196                 __ptext14 1246  
               __ptext23 11AB                 __ptext15 11B4                 __ptext24 119C  
               __ptext16 1271                 __ptext17 14CE                 __ptext18 1320  
               __ptext19 15BD         __size_of_spiInit 001E         __size_of_spiRead 0009  
          __size_of_main 01AA                 _var_adc0 006F                 _var_adc1 006E  
               _spiWrite 1196             spiInit@sType 0023                 _start_ch 145D  
      spiInit@sClockIdle 0021                 convert@a 0066                 convert@i 00B6  
               convert@j 00AF                 convert@x 00B2               _INTCONbits 000B  
               intlevel1 0000         ___lldiv@dividend 0024         ??_spiReceiveWait 0070  
             _OSCCONbits 008F              ??_start_adc 0023   __Umul8_16@multiplicand 0020  
       ___lldiv@quotient 0029            ___fladd@signs 0030             ___fladd@aexp 0031  
           ___fladd@bexp 0032     __Umul8_16@multiplier 0028        __Umul8_16@product 0024  
